
NikFocusStackAdaFruitLcdShield.elf:     file format elf32-avr

Sections:
Idx Name          Size      VMA       LMA       File off  Algn
  0 .data         0000016a  00800100  00007e6c  00007f20  2**0
                  CONTENTS, ALLOC, LOAD, DATA
  1 .text         00007e6c  00000000  00000000  000000b4  2**1
                  CONTENTS, ALLOC, LOAD, READONLY, CODE
  2 .bss          000002c5  0080026a  0080026a  0000808a  2**0
                  ALLOC
  3 .eeprom       00000006  00810000  00810000  0000808a  2**0
                  CONTENTS, ALLOC, LOAD, DATA
  4 .comment      0000005f  00000000  00000000  00008090  2**0
                  CONTENTS, READONLY
  5 .debug_aranges 00000748  00000000  00000000  000080ef  2**0
                  CONTENTS, READONLY, DEBUGGING
  6 .debug_info   0000b291  00000000  00000000  00008837  2**0
                  CONTENTS, READONLY, DEBUGGING
  7 .debug_abbrev 000027b4  00000000  00000000  00013ac8  2**0
                  CONTENTS, READONLY, DEBUGGING
  8 .debug_line   000067e8  00000000  00000000  0001627c  2**0
                  CONTENTS, READONLY, DEBUGGING
  9 .debug_frame  00001a14  00000000  00000000  0001ca64  2**2
                  CONTENTS, READONLY, DEBUGGING
 10 .debug_str    000159a0  00000000  00000000  0001e478  2**0
                  CONTENTS, READONLY, DEBUGGING
 11 .debug_loc    0000370e  00000000  00000000  00033e18  2**0
                  CONTENTS, READONLY, DEBUGGING
 12 .debug_ranges 00000668  00000000  00000000  00037526  2**0
                  CONTENTS, READONLY, DEBUGGING
 13 .debug_macro  00006d96  00000000  00000000  00037b8e  2**0
                  CONTENTS, READONLY, DEBUGGING

Disassembly of section .text:

00000000 <__vectors>:
       0:	e0 c1       	rjmp	.+960    	; 0x3c2 <__dtors_end>
       2:	00 00       	nop
       4:	06 c2       	rjmp	.+1036   	; 0x412 <__bad_interrupt>
       6:	00 00       	nop
       8:	04 c2       	rjmp	.+1032   	; 0x412 <__bad_interrupt>
       a:	00 00       	nop
       c:	02 c2       	rjmp	.+1028   	; 0x412 <__bad_interrupt>
       e:	00 00       	nop
      10:	00 c2       	rjmp	.+1024   	; 0x412 <__bad_interrupt>
      12:	00 00       	nop
      14:	fe c1       	rjmp	.+1020   	; 0x412 <__bad_interrupt>
      16:	00 00       	nop
      18:	fc c1       	rjmp	.+1016   	; 0x412 <__bad_interrupt>
      1a:	00 00       	nop
      1c:	fa c1       	rjmp	.+1012   	; 0x412 <__bad_interrupt>
      1e:	00 00       	nop
      20:	f8 c1       	rjmp	.+1008   	; 0x412 <__bad_interrupt>
      22:	00 00       	nop
      24:	f6 c1       	rjmp	.+1004   	; 0x412 <__bad_interrupt>
      26:	00 00       	nop
      28:	f4 c1       	rjmp	.+1000   	; 0x412 <__bad_interrupt>
      2a:	00 00       	nop
      2c:	f2 c1       	rjmp	.+996    	; 0x412 <__bad_interrupt>
      2e:	00 00       	nop
      30:	f0 c1       	rjmp	.+992    	; 0x412 <__bad_interrupt>
      32:	00 00       	nop
      34:	ee c1       	rjmp	.+988    	; 0x412 <__bad_interrupt>
      36:	00 00       	nop
      38:	ec c1       	rjmp	.+984    	; 0x412 <__bad_interrupt>
      3a:	00 00       	nop
      3c:	ea c1       	rjmp	.+980    	; 0x412 <__bad_interrupt>
      3e:	00 00       	nop
      40:	0c 94 4c 2c 	jmp	0x5898	; 0x5898 <__vector_16>
      44:	e6 c1       	rjmp	.+972    	; 0x412 <__bad_interrupt>
      46:	00 00       	nop
      48:	0c 94 8e 29 	jmp	0x531c	; 0x531c <__vector_18>
      4c:	0c 94 cf 29 	jmp	0x539e	; 0x539e <__vector_19>
      50:	e0 c1       	rjmp	.+960    	; 0x412 <__bad_interrupt>
      52:	00 00       	nop
      54:	de c1       	rjmp	.+956    	; 0x412 <__bad_interrupt>
      56:	00 00       	nop
      58:	dc c1       	rjmp	.+952    	; 0x412 <__bad_interrupt>
      5a:	00 00       	nop
      5c:	da c1       	rjmp	.+948    	; 0x412 <__bad_interrupt>
      5e:	00 00       	nop
      60:	0c 94 7e 25 	jmp	0x4afc	; 0x4afc <__vector_24>
      64:	d6 c1       	rjmp	.+940    	; 0x412 <__bad_interrupt>
      66:	00 00       	nop
      68:	ab 26       	eor	r10, r27
      6a:	af 26       	eor	r10, r31
      6c:	af 26       	eor	r10, r31
      6e:	af 26       	eor	r10, r31
      70:	af 26       	eor	r10, r31
      72:	af 26       	eor	r10, r31
      74:	af 26       	eor	r10, r31
      76:	af 26       	eor	r10, r31
      78:	af 25       	eor	r26, r15
      7a:	af 26       	eor	r10, r31
      7c:	af 26       	eor	r10, r31
      7e:	af 26       	eor	r10, r31
      80:	af 26       	eor	r10, r31
      82:	af 26       	eor	r10, r31
      84:	af 26       	eor	r10, r31
      86:	af 26       	eor	r10, r31
      88:	af 25       	eor	r26, r15
      8a:	af 26       	eor	r10, r31
      8c:	af 26       	eor	r10, r31
      8e:	af 26       	eor	r10, r31
      90:	af 26       	eor	r10, r31
      92:	af 26       	eor	r10, r31
      94:	af 26       	eor	r10, r31
      96:	af 26       	eor	r10, r31
      98:	b8 25       	eor	r27, r8
      9a:	af 26       	eor	r10, r31
      9c:	af 26       	eor	r10, r31
      9e:	af 26       	eor	r10, r31
      a0:	af 26       	eor	r10, r31
      a2:	af 26       	eor	r10, r31
      a4:	af 26       	eor	r10, r31
      a6:	af 26       	eor	r10, r31
      a8:	e3 25       	eor	r30, r3
      aa:	af 26       	eor	r10, r31
      ac:	af 26       	eor	r10, r31
      ae:	af 26       	eor	r10, r31
      b0:	af 26       	eor	r10, r31
      b2:	af 26       	eor	r10, r31
      b4:	af 26       	eor	r10, r31
      b6:	af 26       	eor	r10, r31
      b8:	b8 25       	eor	r27, r8
      ba:	af 26       	eor	r10, r31
      bc:	af 26       	eor	r10, r31
      be:	af 26       	eor	r10, r31
      c0:	af 26       	eor	r10, r31
      c2:	af 26       	eor	r10, r31
      c4:	af 26       	eor	r10, r31
      c6:	af 26       	eor	r10, r31
      c8:	e8 25       	eor	r30, r8
      ca:	af 26       	eor	r10, r31
      cc:	af 26       	eor	r10, r31
      ce:	af 26       	eor	r10, r31
      d0:	af 26       	eor	r10, r31
      d2:	af 26       	eor	r10, r31
      d4:	af 26       	eor	r10, r31
      d6:	af 26       	eor	r10, r31
      d8:	ed 25       	eor	r30, r13
      da:	af 26       	eor	r10, r31
      dc:	af 26       	eor	r10, r31
      de:	af 26       	eor	r10, r31
      e0:	af 26       	eor	r10, r31
      e2:	af 26       	eor	r10, r31
      e4:	af 26       	eor	r10, r31
      e6:	af 26       	eor	r10, r31
      e8:	02 26       	eor	r0, r18
      ea:	af 26       	eor	r10, r31
      ec:	af 26       	eor	r10, r31
      ee:	af 26       	eor	r10, r31
      f0:	af 26       	eor	r10, r31
      f2:	af 26       	eor	r10, r31
      f4:	af 26       	eor	r10, r31
      f6:	af 26       	eor	r10, r31
      f8:	2f 26       	eor	r2, r31
      fa:	af 26       	eor	r10, r31
      fc:	af 26       	eor	r10, r31
      fe:	af 26       	eor	r10, r31
     100:	af 26       	eor	r10, r31
     102:	af 26       	eor	r10, r31
     104:	af 26       	eor	r10, r31
     106:	af 26       	eor	r10, r31
     108:	f2 25       	eor	r31, r2
     10a:	af 26       	eor	r10, r31
     10c:	af 26       	eor	r10, r31
     10e:	af 26       	eor	r10, r31
     110:	af 26       	eor	r10, r31
     112:	af 26       	eor	r10, r31
     114:	af 26       	eor	r10, r31
     116:	af 26       	eor	r10, r31
     118:	0e 26       	eor	r0, r30
     11a:	af 26       	eor	r10, r31
     11c:	af 26       	eor	r10, r31
     11e:	af 26       	eor	r10, r31
     120:	af 26       	eor	r10, r31
     122:	af 26       	eor	r10, r31
     124:	af 26       	eor	r10, r31
     126:	af 26       	eor	r10, r31
     128:	31 26       	eor	r3, r17
     12a:	af 26       	eor	r10, r31
     12c:	af 26       	eor	r10, r31
     12e:	af 26       	eor	r10, r31
     130:	af 26       	eor	r10, r31
     132:	af 26       	eor	r10, r31
     134:	af 26       	eor	r10, r31
     136:	af 26       	eor	r10, r31
     138:	31 26       	eor	r3, r17
     13a:	af 26       	eor	r10, r31
     13c:	af 26       	eor	r10, r31
     13e:	af 26       	eor	r10, r31
     140:	af 26       	eor	r10, r31
     142:	af 26       	eor	r10, r31
     144:	af 26       	eor	r10, r31
     146:	af 26       	eor	r10, r31
     148:	31 26       	eor	r3, r17
     14a:	af 26       	eor	r10, r31
     14c:	af 26       	eor	r10, r31
     14e:	af 26       	eor	r10, r31
     150:	af 26       	eor	r10, r31
     152:	af 26       	eor	r10, r31
     154:	af 26       	eor	r10, r31
     156:	af 26       	eor	r10, r31
     158:	31 26       	eor	r3, r17
     15a:	af 26       	eor	r10, r31
     15c:	af 26       	eor	r10, r31
     15e:	af 26       	eor	r10, r31
     160:	af 26       	eor	r10, r31
     162:	af 26       	eor	r10, r31
     164:	af 26       	eor	r10, r31
     166:	af 26       	eor	r10, r31
     168:	39 26       	eor	r3, r25
     16a:	af 26       	eor	r10, r31
     16c:	af 26       	eor	r10, r31
     16e:	af 26       	eor	r10, r31
     170:	af 26       	eor	r10, r31
     172:	af 26       	eor	r10, r31
     174:	af 26       	eor	r10, r31
     176:	af 26       	eor	r10, r31
     178:	71 26       	eor	r7, r17
     17a:	af 26       	eor	r10, r31
     17c:	af 26       	eor	r10, r31
     17e:	af 26       	eor	r10, r31
     180:	af 26       	eor	r10, r31
     182:	af 26       	eor	r10, r31
     184:	af 26       	eor	r10, r31
     186:	af 26       	eor	r10, r31
     188:	39 26       	eor	r3, r25
     18a:	af 26       	eor	r10, r31
     18c:	af 26       	eor	r10, r31
     18e:	af 26       	eor	r10, r31
     190:	af 26       	eor	r10, r31
     192:	af 26       	eor	r10, r31
     194:	af 26       	eor	r10, r31
     196:	af 26       	eor	r10, r31
     198:	71 26       	eor	r7, r17
     19a:	af 26       	eor	r10, r31
     19c:	af 26       	eor	r10, r31
     19e:	af 26       	eor	r10, r31
     1a0:	af 26       	eor	r10, r31
     1a2:	af 26       	eor	r10, r31
     1a4:	af 26       	eor	r10, r31
     1a6:	af 26       	eor	r10, r31
     1a8:	53 26       	eor	r5, r19
     1aa:	af 26       	eor	r10, r31
     1ac:	af 26       	eor	r10, r31
     1ae:	af 26       	eor	r10, r31
     1b0:	af 26       	eor	r10, r31
     1b2:	af 26       	eor	r10, r31
     1b4:	af 26       	eor	r10, r31
     1b6:	af 26       	eor	r10, r31
     1b8:	74 26       	eor	r7, r20
     1ba:	af 26       	eor	r10, r31
     1bc:	af 26       	eor	r10, r31
     1be:	af 26       	eor	r10, r31
     1c0:	af 26       	eor	r10, r31
     1c2:	af 26       	eor	r10, r31
     1c4:	af 26       	eor	r10, r31
     1c6:	af 26       	eor	r10, r31
     1c8:	74 26       	eor	r7, r20
     1ca:	af 26       	eor	r10, r31
     1cc:	af 26       	eor	r10, r31
     1ce:	af 26       	eor	r10, r31
     1d0:	af 26       	eor	r10, r31
     1d2:	af 26       	eor	r10, r31
     1d4:	af 26       	eor	r10, r31
     1d6:	af 26       	eor	r10, r31
     1d8:	8a 26       	eor	r8, r26
     1da:	af 26       	eor	r10, r31
     1dc:	af 26       	eor	r10, r31
     1de:	af 26       	eor	r10, r31
     1e0:	af 26       	eor	r10, r31
     1e2:	af 26       	eor	r10, r31
     1e4:	af 26       	eor	r10, r31
     1e6:	af 26       	eor	r10, r31
     1e8:	a6 26       	eor	r10, r22
     1ea:	af 26       	eor	r10, r31
     1ec:	af 26       	eor	r10, r31
     1ee:	af 26       	eor	r10, r31
     1f0:	af 26       	eor	r10, r31
     1f2:	af 26       	eor	r10, r31
     1f4:	af 26       	eor	r10, r31
     1f6:	af 26       	eor	r10, r31
     1f8:	a6 26       	eor	r10, r22
     1fa:	af 26       	eor	r10, r31
     1fc:	af 26       	eor	r10, r31
     1fe:	af 26       	eor	r10, r31
     200:	af 26       	eor	r10, r31
     202:	af 26       	eor	r10, r31
     204:	af 26       	eor	r10, r31
     206:	af 26       	eor	r10, r31
     208:	af 26       	eor	r10, r31
     20a:	af 26       	eor	r10, r31
     20c:	af 26       	eor	r10, r31
     20e:	af 26       	eor	r10, r31
     210:	af 26       	eor	r10, r31
     212:	af 26       	eor	r10, r31
     214:	af 26       	eor	r10, r31
     216:	af 26       	eor	r10, r31
     218:	af 26       	eor	r10, r31
     21a:	af 26       	eor	r10, r31
     21c:	af 26       	eor	r10, r31
     21e:	af 26       	eor	r10, r31
     220:	af 26       	eor	r10, r31
     222:	af 26       	eor	r10, r31
     224:	af 26       	eor	r10, r31
     226:	af 26       	eor	r10, r31
     228:	af 26       	eor	r10, r31
     22a:	af 26       	eor	r10, r31
     22c:	af 26       	eor	r10, r31
     22e:	af 26       	eor	r10, r31
     230:	af 26       	eor	r10, r31
     232:	af 26       	eor	r10, r31
     234:	af 26       	eor	r10, r31
     236:	af 26       	eor	r10, r31
     238:	af 26       	eor	r10, r31
     23a:	af 26       	eor	r10, r31
     23c:	af 26       	eor	r10, r31
     23e:	af 26       	eor	r10, r31
     240:	af 26       	eor	r10, r31
     242:	af 26       	eor	r10, r31
     244:	af 26       	eor	r10, r31
     246:	af 26       	eor	r10, r31
     248:	af 26       	eor	r10, r31
     24a:	af 26       	eor	r10, r31
     24c:	af 26       	eor	r10, r31
     24e:	af 26       	eor	r10, r31
     250:	af 26       	eor	r10, r31
     252:	af 26       	eor	r10, r31
     254:	af 26       	eor	r10, r31
     256:	af 26       	eor	r10, r31
     258:	af 26       	eor	r10, r31

0000025a <__trampolines_end>:
     25a:	55 53       	subi	r21, 0x35	; 53
     25c:	42 20       	and	r4, r2
     25e:	64 69       	ori	r22, 0x94	; 148
     260:	64 20       	and	r6, r4
     262:	6e 6f       	ori	r22, 0xFE	; 254
     264:	74 20       	and	r7, r4
     266:	73 74       	andi	r23, 0x43	; 67
     268:	61 72       	andi	r22, 0x21	; 33
     26a:	74 2e       	mov	r7, r20
	...

0000026d <_ZZN10NikType0034InitEhhbE3__c>:
     26d:	4e 6f 74 20 6e 69 6b 6f 6e 00                       Not nikon.

00000277 <_ZZN10NikType0037OnEventEPK7NKEventE3__c>:
     277:	43 61 70 20 4f 4b 00                                Cap OK.

0000027e <_ZZN10NikType00313captureToCardEvE3__c>:
     27e:	43 61 70 74 75 72 65 00                             Capture.

00000286 <_ZZN10NikType00316prepareNextFrameEvE3__c>:
     286:	4c 56 20 6f 6e 00                                   LV on.

0000028c <_ZZN10NikType00316prepareNextFrameEvE3__c_0>:
     28c:	46 6f 63 75 73 00                                   Focus.

00000292 <_ZZN10NikType00316prepareNextFrameEvE3__c_1>:
     292:	4c 56 20 6f 66 66 00                                LV off.

00000299 <_ZZN10NikType00316prepareNextFrameEvE3__c_2>:
     299:	49 6e 66 00                                         Inf.

0000029d <_ZZN10NikType00319focusStackNextFrameEvE3__c>:
     29d:	43 61 72 64 46 75 6c 6c 00                          CardFull.

000002a6 <_ZZN10NikType00320restoreOriginalFocusEvE3__c>:
     2a6:	52 65 73 74 6f 72 65 00                             Restore.

000002ae <_ZZN20RunFocusStackHandler12reportStatusEPK19__FlashStringHelperE3__c>:
     2ae:	20 20 20 20 20 20 20 00                                    .

000002b6 <_ZZN20RunFocusStackHandler11reportFrameEjE3__c>:
     2b6:	20 20 20 20 00                                          .

000002bb <_ZZN20RunFocusStackHandler11reportDelayEhE3__c>:
     2bb:	44 65 6c 61 79 00                                   Delay.

000002c1 <_ZZN20RunFocusStackHandler11reportDelayEhE3__c_0>:
     2c1:	20 20 20 20 00                                          .

000002c6 <_ZZN20RunFocusStackHandler11reportDelayEhE3__c_1>:
     2c6:	20 20 20 20 20 20 20 20 00                                  .

000002cf <_ZZN12SetupHandler19updateDriveAmountUIEiE3__c>:
     2cf:	30 00                                               0.

000002d1 <_ZZN12SetupHandler14updateFramesUIEiE3__c>:
     2d1:	30 00                                               0.

000002d3 <_ZZN12SetupHandler18updateFrameDelayUIEiE3__c>:
     2d3:	30 00                                               0.

000002d5 <_ZZN12SetupHandler20updateRestoreFocusUIEiE3__c>:
     2d5:	20 20 20 00                                            .

000002d9 <_ZZN12SetupHandler20updateRestoreFocusUIEiE3__c_0>:
     2d9:	59 65 73 00                                         Yes.

000002dd <_ZZN12SetupHandler20updateRestoreFocusUIEiE3__c_1>:
     2dd:	4e 6f 00                                            No.

000002e0 <digital_pin_to_timer_PGM>:
     2e0:	00 00 00 07 00 02 01 00 00 03 04 06 00 00 00 00     ................
     2f0:	00 00 00 00                                         ....

000002f4 <digital_pin_to_bit_mask_PGM>:
     2f4:	01 02 04 08 10 20 40 80 01 02 04 08 10 20 01 02     ..... @...... ..
     304:	04 08 10 20                                         ... 

00000308 <digital_pin_to_port_PGM>:
     308:	04 04 04 04 04 04 04 04 02 02 02 02 02 02 03 03     ................
     318:	03 03 03 03                                         ....

0000031c <port_to_output_PGM>:
     31c:	00 00 00 00 25 00 28 00 2b 00                       ....%.(.+.

00000326 <port_to_mode_PGM>:
     326:	00 00 00 00 24 00 27 00 2a 00                       ....$.'.*.

00000330 <_ZZN20MultiByteValueParser5ParseEPPhPjE3__c>:
     330:	42 75 66 66 65 72 20 70 6f 69 6e 74 65 72 20 69     Buffer pointer i
     340:	73 20 4e 55 4c 4c 21 0d 0a 00                       s NULL!...

0000034a <_ZZN3USB10inTransferEhhPjPhE3__c_4>:
     34a:	0d 0a 00                                            ...

0000034d <_ZZN3USB10inTransferEhhPjPhE3__c_3>:
     34d:	28 55 53 42 3a 3a 49 6e 54 72 61 6e 73 66 65 72     (USB::InTransfer
     35d:	29 20 65 70 20 72 65 71 75 65 73 74 65 64 20 00     ) ep requested .

0000036d <_ZZN3USB10inTransferEhhPjPhE3__c_2>:
     36d:	0d 0a 00                                            ...

00000370 <_ZZN3USB10inTransferEhhPjPhE3__c_1>:
     370:	28 55 53 42 3a 3a 49 6e 54 72 61 6e 73 66 65 72     (USB::InTransfer
     380:	29 20 61 64 64 72 20 72 65 71 75 65 73 74 65 64     ) addr requested
     390:	20 00                                                .

00000392 <_ZZN3USB10inTransferEhhPjPhE3__c_0>:
     392:	0d 0a 00                                            ...

00000395 <_ZZN3USB10inTransferEhhPjPhE3__c>:
     395:	28 55 53 42 3a 3a 49 6e 54 72 61 6e 73 66 65 72     (USB::InTransfer
     3a5:	29 20 53 65 74 41 64 64 72 65 73 73 20 46 61 69     ) SetAddress Fai
     3b5:	6c 65 64 20 00                                      led .

000003ba <__ctors_start>:
     3ba:	eb 0f       	add	r30, r27
     3bc:	e6 28       	or	r14, r6
     3be:	8b 2a       	or	r8, r27

000003c0 <__ctors_end>:
     3c0:	f7 0f       	add	r31, r23

000003c2 <__dtors_end>:
     3c2:	11 24       	eor	r1, r1
     3c4:	1f be       	out	0x3f, r1	; 63
     3c6:	cf ef       	ldi	r28, 0xFF	; 255
     3c8:	d8 e0       	ldi	r29, 0x08	; 8
     3ca:	de bf       	out	0x3e, r29	; 62
     3cc:	cd bf       	out	0x3d, r28	; 61

000003ce <__do_copy_data>:
     3ce:	12 e0       	ldi	r17, 0x02	; 2
     3d0:	a0 e0       	ldi	r26, 0x00	; 0
     3d2:	b1 e0       	ldi	r27, 0x01	; 1
     3d4:	ec e6       	ldi	r30, 0x6C	; 108
     3d6:	fe e7       	ldi	r31, 0x7E	; 126
     3d8:	02 c0       	rjmp	.+4      	; 0x3de <__do_copy_data+0x10>
     3da:	05 90       	lpm	r0, Z+
     3dc:	0d 92       	st	X+, r0
     3de:	aa 36       	cpi	r26, 0x6A	; 106
     3e0:	b1 07       	cpc	r27, r17
     3e2:	d9 f7       	brne	.-10     	; 0x3da <__do_copy_data+0xc>

000003e4 <__do_clear_bss>:
     3e4:	25 e0       	ldi	r18, 0x05	; 5
     3e6:	aa e6       	ldi	r26, 0x6A	; 106
     3e8:	b2 e0       	ldi	r27, 0x02	; 2
     3ea:	01 c0       	rjmp	.+2      	; 0x3ee <.do_clear_bss_start>

000003ec <.do_clear_bss_loop>:
     3ec:	1d 92       	st	X+, r1

000003ee <.do_clear_bss_start>:
     3ee:	af 32       	cpi	r26, 0x2F	; 47
     3f0:	b2 07       	cpc	r27, r18
     3f2:	e1 f7       	brne	.-8      	; 0x3ec <.do_clear_bss_loop>

000003f4 <__do_global_ctors>:
     3f4:	13 e0       	ldi	r17, 0x03	; 3
     3f6:	c0 ec       	ldi	r28, 0xC0	; 192
     3f8:	d3 e0       	ldi	r29, 0x03	; 3
     3fa:	04 c0       	rjmp	.+8      	; 0x404 <__do_global_ctors+0x10>
     3fc:	22 97       	sbiw	r28, 0x02	; 2
     3fe:	fe 01       	movw	r30, r28
     400:	0e 94 bb 3e 	call	0x7d76	; 0x7d76 <__tablejump__>
     404:	ca 3b       	cpi	r28, 0xBA	; 186
     406:	d1 07       	cpc	r29, r17
     408:	c9 f7       	brne	.-14     	; 0x3fc <__do_global_ctors+0x8>
     40a:	0e 94 e1 2a 	call	0x55c2	; 0x55c2 <main>
     40e:	0c 94 2a 3f 	jmp	0x7e54	; 0x7e54 <__do_global_dtors>

00000412 <__bad_interrupt>:
     412:	f6 cd       	rjmp	.-1044   	; 0x0 <__vectors>

00000414 <_ZL8wiresendh>:
#else
 #include "WProgram.h"
#endif

// minihelper
static inline void wiresend(uint8_t x) {
     414:	cf 93       	push	r28
     416:	df 93       	push	r29
     418:	1f 92       	push	r1
     41a:	cd b7       	in	r28, 0x3d	; 61
     41c:	de b7       	in	r29, 0x3e	; 62
     41e:	89 83       	std	Y+1, r24	; 0x01
#if ARDUINO >= 100
  WIRE.write((uint8_t)x);
     420:	69 81       	ldd	r22, Y+1	; 0x01
     422:	88 e6       	ldi	r24, 0x68	; 104
     424:	94 e0       	ldi	r25, 0x04	; 4
     426:	0e 94 cf 27 	call	0x4f9e	; 0x4f9e <_ZN7TwoWire5writeEh>
#else
  WIRE.send(x);
#endif
}
     42a:	0f 90       	pop	r0
     42c:	df 91       	pop	r29
     42e:	cf 91       	pop	r28
     430:	08 95       	ret

00000432 <_ZL8wirerecvv>:

static inline uint8_t wirerecv(void) {
     432:	cf 93       	push	r28
     434:	df 93       	push	r29
     436:	cd b7       	in	r28, 0x3d	; 61
     438:	de b7       	in	r29, 0x3e	; 62
#if ARDUINO >= 100
  return WIRE.read();
     43a:	88 e6       	ldi	r24, 0x68	; 104
     43c:	94 e0       	ldi	r25, 0x04	; 4
     43e:	0e 94 68 28 	call	0x50d0	; 0x50d0 <_ZN7TwoWire4readEv>
#else
  return WIRE.receive();
#endif
}
     442:	df 91       	pop	r29
     444:	cf 91       	pop	r28
     446:	08 95       	ret

00000448 <_ZN17Adafruit_MCP230175beginEh>:

////////////////////////////////////////////////////////////////////////////////

void Adafruit_MCP23017::begin(uint8_t addr) {
     448:	cf 93       	push	r28
     44a:	df 93       	push	r29
     44c:	00 d0       	rcall	.+0      	; 0x44e <_ZN17Adafruit_MCP230175beginEh+0x6>
     44e:	1f 92       	push	r1
     450:	cd b7       	in	r28, 0x3d	; 61
     452:	de b7       	in	r29, 0x3e	; 62
     454:	9a 83       	std	Y+2, r25	; 0x02
     456:	89 83       	std	Y+1, r24	; 0x01
     458:	6b 83       	std	Y+3, r22	; 0x03
  if (addr > 7) {
     45a:	8b 81       	ldd	r24, Y+3	; 0x03
     45c:	88 30       	cpi	r24, 0x08	; 8
     45e:	10 f0       	brcs	.+4      	; 0x464 <_ZN17Adafruit_MCP230175beginEh+0x1c>
    addr = 7;
     460:	87 e0       	ldi	r24, 0x07	; 7
     462:	8b 83       	std	Y+3, r24	; 0x03
  }
  i2caddr = addr;
     464:	89 81       	ldd	r24, Y+1	; 0x01
     466:	9a 81       	ldd	r25, Y+2	; 0x02
     468:	2b 81       	ldd	r18, Y+3	; 0x03
     46a:	fc 01       	movw	r30, r24
     46c:	20 83       	st	Z, r18

  WIRE.begin();
     46e:	88 e6       	ldi	r24, 0x68	; 104
     470:	94 e0       	ldi	r25, 0x04	; 4
     472:	0e 94 13 27 	call	0x4e26	; 0x4e26 <_ZN7TwoWire5beginEv>

  
  // set defaults!
  WIRE.beginTransmission(MCP23017_ADDRESS | i2caddr);
     476:	89 81       	ldd	r24, Y+1	; 0x01
     478:	9a 81       	ldd	r25, Y+2	; 0x02
     47a:	fc 01       	movw	r30, r24
     47c:	80 81       	ld	r24, Z
     47e:	80 62       	ori	r24, 0x20	; 32
     480:	88 2f       	mov	r24, r24
     482:	90 e0       	ldi	r25, 0x00	; 0
     484:	bc 01       	movw	r22, r24
     486:	88 e6       	ldi	r24, 0x68	; 104
     488:	94 e0       	ldi	r25, 0x04	; 4
     48a:	0e 94 85 27 	call	0x4f0a	; 0x4f0a <_ZN7TwoWire17beginTransmissionEi>
  wiresend(MCP23017_IODIRA);
     48e:	80 e0       	ldi	r24, 0x00	; 0
     490:	c1 df       	rcall	.-126    	; 0x414 <_ZL8wiresendh>
  wiresend(0xFF);  // all inputs on port A
     492:	8f ef       	ldi	r24, 0xFF	; 255
     494:	bf df       	rcall	.-130    	; 0x414 <_ZL8wiresendh>
  WIRE.endTransmission();
     496:	88 e6       	ldi	r24, 0x68	; 104
     498:	94 e0       	ldi	r25, 0x04	; 4
     49a:	0e 94 bf 27 	call	0x4f7e	; 0x4f7e <_ZN7TwoWire15endTransmissionEv>

  WIRE.beginTransmission(MCP23017_ADDRESS | i2caddr);
     49e:	89 81       	ldd	r24, Y+1	; 0x01
     4a0:	9a 81       	ldd	r25, Y+2	; 0x02
     4a2:	fc 01       	movw	r30, r24
     4a4:	80 81       	ld	r24, Z
     4a6:	80 62       	ori	r24, 0x20	; 32
     4a8:	88 2f       	mov	r24, r24
     4aa:	90 e0       	ldi	r25, 0x00	; 0
     4ac:	bc 01       	movw	r22, r24
     4ae:	88 e6       	ldi	r24, 0x68	; 104
     4b0:	94 e0       	ldi	r25, 0x04	; 4
     4b2:	0e 94 85 27 	call	0x4f0a	; 0x4f0a <_ZN7TwoWire17beginTransmissionEi>
  wiresend(MCP23017_IODIRB);
     4b6:	81 e0       	ldi	r24, 0x01	; 1
     4b8:	ad df       	rcall	.-166    	; 0x414 <_ZL8wiresendh>
  wiresend(0xFF);  // all inputs on port B
     4ba:	8f ef       	ldi	r24, 0xFF	; 255
     4bc:	ab df       	rcall	.-170    	; 0x414 <_ZL8wiresendh>
  WIRE.endTransmission();
     4be:	88 e6       	ldi	r24, 0x68	; 104
     4c0:	94 e0       	ldi	r25, 0x04	; 4
     4c2:	0e 94 bf 27 	call	0x4f7e	; 0x4f7e <_ZN7TwoWire15endTransmissionEv>
}
     4c6:	0f 90       	pop	r0
     4c8:	0f 90       	pop	r0
     4ca:	0f 90       	pop	r0
     4cc:	df 91       	pop	r29
     4ce:	cf 91       	pop	r28
     4d0:	08 95       	ret

000004d2 <_ZN17Adafruit_MCP230175beginEv>:


void Adafruit_MCP23017::begin(void) {
     4d2:	cf 93       	push	r28
     4d4:	df 93       	push	r29
     4d6:	00 d0       	rcall	.+0      	; 0x4d8 <_ZN17Adafruit_MCP230175beginEv+0x6>
     4d8:	cd b7       	in	r28, 0x3d	; 61
     4da:	de b7       	in	r29, 0x3e	; 62
     4dc:	9a 83       	std	Y+2, r25	; 0x02
     4de:	89 83       	std	Y+1, r24	; 0x01
  begin(0);
     4e0:	89 81       	ldd	r24, Y+1	; 0x01
     4e2:	9a 81       	ldd	r25, Y+2	; 0x02
     4e4:	60 e0       	ldi	r22, 0x00	; 0
     4e6:	b0 df       	rcall	.-160    	; 0x448 <_ZN17Adafruit_MCP230175beginEh>
}
     4e8:	0f 90       	pop	r0
     4ea:	0f 90       	pop	r0
     4ec:	df 91       	pop	r29
     4ee:	cf 91       	pop	r28
     4f0:	08 95       	ret

000004f2 <_ZN17Adafruit_MCP230177pinModeEhh>:

void Adafruit_MCP23017::pinMode(uint8_t p, uint8_t d) {
     4f2:	cf 93       	push	r28
     4f4:	df 93       	push	r29
     4f6:	00 d0       	rcall	.+0      	; 0x4f8 <_ZN17Adafruit_MCP230177pinModeEhh+0x6>
     4f8:	00 d0       	rcall	.+0      	; 0x4fa <_ZN17Adafruit_MCP230177pinModeEhh+0x8>
     4fa:	00 d0       	rcall	.+0      	; 0x4fc <_ZN17Adafruit_MCP230177pinModeEhh+0xa>
     4fc:	cd b7       	in	r28, 0x3d	; 61
     4fe:	de b7       	in	r29, 0x3e	; 62
     500:	9c 83       	std	Y+4, r25	; 0x04
     502:	8b 83       	std	Y+3, r24	; 0x03
     504:	6d 83       	std	Y+5, r22	; 0x05
     506:	4e 83       	std	Y+6, r20	; 0x06
  uint8_t iodir;
  uint8_t iodiraddr;

  // only 16 bits!
  if (p > 15)
     508:	8d 81       	ldd	r24, Y+5	; 0x05
     50a:	80 31       	cpi	r24, 0x10	; 16
     50c:	08 f0       	brcs	.+2      	; 0x510 <_ZN17Adafruit_MCP230177pinModeEhh+0x1e>
    return;
     50e:	62 c0       	rjmp	.+196    	; 0x5d4 <_ZN17Adafruit_MCP230177pinModeEhh+0xe2>

  if (p < 8)
     510:	8d 81       	ldd	r24, Y+5	; 0x05
     512:	88 30       	cpi	r24, 0x08	; 8
     514:	10 f4       	brcc	.+4      	; 0x51a <_ZN17Adafruit_MCP230177pinModeEhh+0x28>
    iodiraddr = MCP23017_IODIRA;
     516:	1a 82       	std	Y+2, r1	; 0x02
     518:	05 c0       	rjmp	.+10     	; 0x524 <_ZN17Adafruit_MCP230177pinModeEhh+0x32>
  else {
    iodiraddr = MCP23017_IODIRB;
     51a:	81 e0       	ldi	r24, 0x01	; 1
     51c:	8a 83       	std	Y+2, r24	; 0x02
    p -= 8;
     51e:	8d 81       	ldd	r24, Y+5	; 0x05
     520:	88 50       	subi	r24, 0x08	; 8
     522:	8d 83       	std	Y+5, r24	; 0x05
  }

  // read the current IODIR
  WIRE.beginTransmission(MCP23017_ADDRESS | i2caddr);
     524:	8b 81       	ldd	r24, Y+3	; 0x03
     526:	9c 81       	ldd	r25, Y+4	; 0x04
     528:	fc 01       	movw	r30, r24
     52a:	80 81       	ld	r24, Z
     52c:	80 62       	ori	r24, 0x20	; 32
     52e:	88 2f       	mov	r24, r24
     530:	90 e0       	ldi	r25, 0x00	; 0
     532:	bc 01       	movw	r22, r24
     534:	88 e6       	ldi	r24, 0x68	; 104
     536:	94 e0       	ldi	r25, 0x04	; 4
     538:	0e 94 85 27 	call	0x4f0a	; 0x4f0a <_ZN7TwoWire17beginTransmissionEi>
  wiresend(iodiraddr);	
     53c:	8a 81       	ldd	r24, Y+2	; 0x02
     53e:	6a df       	rcall	.-300    	; 0x414 <_ZL8wiresendh>
  WIRE.endTransmission();
     540:	88 e6       	ldi	r24, 0x68	; 104
     542:	94 e0       	ldi	r25, 0x04	; 4
     544:	0e 94 bf 27 	call	0x4f7e	; 0x4f7e <_ZN7TwoWire15endTransmissionEv>
  
  WIRE.requestFrom(MCP23017_ADDRESS | i2caddr, 1);
     548:	8b 81       	ldd	r24, Y+3	; 0x03
     54a:	9c 81       	ldd	r25, Y+4	; 0x04
     54c:	fc 01       	movw	r30, r24
     54e:	80 81       	ld	r24, Z
     550:	80 62       	ori	r24, 0x20	; 32
     552:	88 2f       	mov	r24, r24
     554:	90 e0       	ldi	r25, 0x00	; 0
     556:	41 e0       	ldi	r20, 0x01	; 1
     558:	50 e0       	ldi	r21, 0x00	; 0
     55a:	bc 01       	movw	r22, r24
     55c:	88 e6       	ldi	r24, 0x68	; 104
     55e:	94 e0       	ldi	r25, 0x04	; 4
     560:	0e 94 4f 27 	call	0x4e9e	; 0x4e9e <_ZN7TwoWire11requestFromEii>
  iodir = wirerecv();
     564:	66 df       	rcall	.-308    	; 0x432 <_ZL8wirerecvv>
     566:	89 83       	std	Y+1, r24	; 0x01

  // set the pin and direction
  if (d == INPUT) {
     568:	8e 81       	ldd	r24, Y+6	; 0x06
     56a:	88 23       	and	r24, r24
     56c:	81 f4       	brne	.+32     	; 0x58e <_ZN17Adafruit_MCP230177pinModeEhh+0x9c>
    iodir |= 1 << p; 
     56e:	8d 81       	ldd	r24, Y+5	; 0x05
     570:	28 2f       	mov	r18, r24
     572:	30 e0       	ldi	r19, 0x00	; 0
     574:	81 e0       	ldi	r24, 0x01	; 1
     576:	90 e0       	ldi	r25, 0x00	; 0
     578:	02 2e       	mov	r0, r18
     57a:	02 c0       	rjmp	.+4      	; 0x580 <_ZN17Adafruit_MCP230177pinModeEhh+0x8e>
     57c:	88 0f       	add	r24, r24
     57e:	99 1f       	adc	r25, r25
     580:	0a 94       	dec	r0
     582:	e2 f7       	brpl	.-8      	; 0x57c <_ZN17Adafruit_MCP230177pinModeEhh+0x8a>
     584:	98 2f       	mov	r25, r24
     586:	89 81       	ldd	r24, Y+1	; 0x01
     588:	89 2b       	or	r24, r25
     58a:	89 83       	std	Y+1, r24	; 0x01
     58c:	0f c0       	rjmp	.+30     	; 0x5ac <_ZN17Adafruit_MCP230177pinModeEhh+0xba>
  } else {
    iodir &= ~(1 << p);
     58e:	8d 81       	ldd	r24, Y+5	; 0x05
     590:	28 2f       	mov	r18, r24
     592:	30 e0       	ldi	r19, 0x00	; 0
     594:	81 e0       	ldi	r24, 0x01	; 1
     596:	90 e0       	ldi	r25, 0x00	; 0
     598:	02 c0       	rjmp	.+4      	; 0x59e <_ZN17Adafruit_MCP230177pinModeEhh+0xac>
     59a:	88 0f       	add	r24, r24
     59c:	99 1f       	adc	r25, r25
     59e:	2a 95       	dec	r18
     5a0:	e2 f7       	brpl	.-8      	; 0x59a <_ZN17Adafruit_MCP230177pinModeEhh+0xa8>
     5a2:	98 2f       	mov	r25, r24
     5a4:	90 95       	com	r25
     5a6:	89 81       	ldd	r24, Y+1	; 0x01
     5a8:	89 23       	and	r24, r25
     5aa:	89 83       	std	Y+1, r24	; 0x01
  }

  // write the new IODIR
  WIRE.beginTransmission(MCP23017_ADDRESS | i2caddr);
     5ac:	8b 81       	ldd	r24, Y+3	; 0x03
     5ae:	9c 81       	ldd	r25, Y+4	; 0x04
     5b0:	fc 01       	movw	r30, r24
     5b2:	80 81       	ld	r24, Z
     5b4:	80 62       	ori	r24, 0x20	; 32
     5b6:	88 2f       	mov	r24, r24
     5b8:	90 e0       	ldi	r25, 0x00	; 0
     5ba:	bc 01       	movw	r22, r24
     5bc:	88 e6       	ldi	r24, 0x68	; 104
     5be:	94 e0       	ldi	r25, 0x04	; 4
     5c0:	0e 94 85 27 	call	0x4f0a	; 0x4f0a <_ZN7TwoWire17beginTransmissionEi>
  wiresend(iodiraddr);
     5c4:	8a 81       	ldd	r24, Y+2	; 0x02
     5c6:	26 df       	rcall	.-436    	; 0x414 <_ZL8wiresendh>
  wiresend(iodir);	
     5c8:	89 81       	ldd	r24, Y+1	; 0x01
     5ca:	24 df       	rcall	.-440    	; 0x414 <_ZL8wiresendh>
  WIRE.endTransmission();
     5cc:	88 e6       	ldi	r24, 0x68	; 104
     5ce:	94 e0       	ldi	r25, 0x04	; 4
     5d0:	0e 94 bf 27 	call	0x4f7e	; 0x4f7e <_ZN7TwoWire15endTransmissionEv>
}
     5d4:	26 96       	adiw	r28, 0x06	; 6
     5d6:	0f b6       	in	r0, 0x3f	; 63
     5d8:	f8 94       	cli
     5da:	de bf       	out	0x3e, r29	; 62
     5dc:	0f be       	out	0x3f, r0	; 63
     5de:	cd bf       	out	0x3d, r28	; 61
     5e0:	df 91       	pop	r29
     5e2:	cf 91       	pop	r28
     5e4:	08 95       	ret

000005e6 <_ZN17Adafruit_MCP2301710readGPIOABEv>:

uint16_t Adafruit_MCP23017::readGPIOAB() {
     5e6:	cf 93       	push	r28
     5e8:	df 93       	push	r29
     5ea:	00 d0       	rcall	.+0      	; 0x5ec <_ZN17Adafruit_MCP2301710readGPIOABEv+0x6>
     5ec:	00 d0       	rcall	.+0      	; 0x5ee <_ZN17Adafruit_MCP2301710readGPIOABEv+0x8>
     5ee:	1f 92       	push	r1
     5f0:	cd b7       	in	r28, 0x3d	; 61
     5f2:	de b7       	in	r29, 0x3e	; 62
     5f4:	9d 83       	std	Y+5, r25	; 0x05
     5f6:	8c 83       	std	Y+4, r24	; 0x04
  uint16_t ba = 0;
     5f8:	1a 82       	std	Y+2, r1	; 0x02
     5fa:	19 82       	std	Y+1, r1	; 0x01
  uint8_t a;

  // read the current GPIO output latches
  WIRE.beginTransmission(MCP23017_ADDRESS | i2caddr);
     5fc:	8c 81       	ldd	r24, Y+4	; 0x04
     5fe:	9d 81       	ldd	r25, Y+5	; 0x05
     600:	fc 01       	movw	r30, r24
     602:	80 81       	ld	r24, Z
     604:	80 62       	ori	r24, 0x20	; 32
     606:	88 2f       	mov	r24, r24
     608:	90 e0       	ldi	r25, 0x00	; 0
     60a:	bc 01       	movw	r22, r24
     60c:	88 e6       	ldi	r24, 0x68	; 104
     60e:	94 e0       	ldi	r25, 0x04	; 4
     610:	0e 94 85 27 	call	0x4f0a	; 0x4f0a <_ZN7TwoWire17beginTransmissionEi>
  wiresend(MCP23017_GPIOA);	
     614:	82 e1       	ldi	r24, 0x12	; 18
     616:	fe de       	rcall	.-516    	; 0x414 <_ZL8wiresendh>
  WIRE.endTransmission();
     618:	88 e6       	ldi	r24, 0x68	; 104
     61a:	94 e0       	ldi	r25, 0x04	; 4
     61c:	0e 94 bf 27 	call	0x4f7e	; 0x4f7e <_ZN7TwoWire15endTransmissionEv>
  
  WIRE.requestFrom(MCP23017_ADDRESS | i2caddr, 2);
     620:	8c 81       	ldd	r24, Y+4	; 0x04
     622:	9d 81       	ldd	r25, Y+5	; 0x05
     624:	fc 01       	movw	r30, r24
     626:	80 81       	ld	r24, Z
     628:	80 62       	ori	r24, 0x20	; 32
     62a:	88 2f       	mov	r24, r24
     62c:	90 e0       	ldi	r25, 0x00	; 0
     62e:	42 e0       	ldi	r20, 0x02	; 2
     630:	50 e0       	ldi	r21, 0x00	; 0
     632:	bc 01       	movw	r22, r24
     634:	88 e6       	ldi	r24, 0x68	; 104
     636:	94 e0       	ldi	r25, 0x04	; 4
     638:	0e 94 4f 27 	call	0x4e9e	; 0x4e9e <_ZN7TwoWire11requestFromEii>
  a = wirerecv();
     63c:	fa de       	rcall	.-524    	; 0x432 <_ZL8wirerecvv>
     63e:	8b 83       	std	Y+3, r24	; 0x03
  ba = wirerecv();
     640:	f8 de       	rcall	.-528    	; 0x432 <_ZL8wirerecvv>
     642:	88 2f       	mov	r24, r24
     644:	90 e0       	ldi	r25, 0x00	; 0
     646:	9a 83       	std	Y+2, r25	; 0x02
     648:	89 83       	std	Y+1, r24	; 0x01
  ba <<= 8;
     64a:	89 81       	ldd	r24, Y+1	; 0x01
     64c:	9a 81       	ldd	r25, Y+2	; 0x02
     64e:	98 2f       	mov	r25, r24
     650:	88 27       	eor	r24, r24
     652:	9a 83       	std	Y+2, r25	; 0x02
     654:	89 83       	std	Y+1, r24	; 0x01
  ba |= a;
     656:	8b 81       	ldd	r24, Y+3	; 0x03
     658:	88 2f       	mov	r24, r24
     65a:	90 e0       	ldi	r25, 0x00	; 0
     65c:	29 81       	ldd	r18, Y+1	; 0x01
     65e:	3a 81       	ldd	r19, Y+2	; 0x02
     660:	82 2b       	or	r24, r18
     662:	93 2b       	or	r25, r19
     664:	9a 83       	std	Y+2, r25	; 0x02
     666:	89 83       	std	Y+1, r24	; 0x01

  return ba;
     668:	89 81       	ldd	r24, Y+1	; 0x01
     66a:	9a 81       	ldd	r25, Y+2	; 0x02
}
     66c:	0f 90       	pop	r0
     66e:	0f 90       	pop	r0
     670:	0f 90       	pop	r0
     672:	0f 90       	pop	r0
     674:	0f 90       	pop	r0
     676:	df 91       	pop	r29
     678:	cf 91       	pop	r28
     67a:	08 95       	ret

0000067c <_ZN17Adafruit_MCP2301711writeGPIOABEj>:

void Adafruit_MCP23017::writeGPIOAB(uint16_t ba) {
     67c:	cf 93       	push	r28
     67e:	df 93       	push	r29
     680:	00 d0       	rcall	.+0      	; 0x682 <_ZN17Adafruit_MCP2301711writeGPIOABEj+0x6>
     682:	00 d0       	rcall	.+0      	; 0x684 <_ZN17Adafruit_MCP2301711writeGPIOABEj+0x8>
     684:	cd b7       	in	r28, 0x3d	; 61
     686:	de b7       	in	r29, 0x3e	; 62
     688:	9a 83       	std	Y+2, r25	; 0x02
     68a:	89 83       	std	Y+1, r24	; 0x01
     68c:	7c 83       	std	Y+4, r23	; 0x04
     68e:	6b 83       	std	Y+3, r22	; 0x03
  WIRE.beginTransmission(MCP23017_ADDRESS | i2caddr);
     690:	89 81       	ldd	r24, Y+1	; 0x01
     692:	9a 81       	ldd	r25, Y+2	; 0x02
     694:	fc 01       	movw	r30, r24
     696:	80 81       	ld	r24, Z
     698:	80 62       	ori	r24, 0x20	; 32
     69a:	88 2f       	mov	r24, r24
     69c:	90 e0       	ldi	r25, 0x00	; 0
     69e:	bc 01       	movw	r22, r24
     6a0:	88 e6       	ldi	r24, 0x68	; 104
     6a2:	94 e0       	ldi	r25, 0x04	; 4
     6a4:	0e 94 85 27 	call	0x4f0a	; 0x4f0a <_ZN7TwoWire17beginTransmissionEi>
  wiresend(MCP23017_GPIOA);	
     6a8:	82 e1       	ldi	r24, 0x12	; 18
     6aa:	b4 de       	rcall	.-664    	; 0x414 <_ZL8wiresendh>
  wiresend(ba & 0xFF);
     6ac:	8b 81       	ldd	r24, Y+3	; 0x03
     6ae:	b2 de       	rcall	.-668    	; 0x414 <_ZL8wiresendh>
  wiresend(ba >> 8);
     6b0:	8b 81       	ldd	r24, Y+3	; 0x03
     6b2:	9c 81       	ldd	r25, Y+4	; 0x04
     6b4:	89 2f       	mov	r24, r25
     6b6:	99 27       	eor	r25, r25
     6b8:	ad de       	rcall	.-678    	; 0x414 <_ZL8wiresendh>
  WIRE.endTransmission();
     6ba:	88 e6       	ldi	r24, 0x68	; 104
     6bc:	94 e0       	ldi	r25, 0x04	; 4
     6be:	0e 94 bf 27 	call	0x4f7e	; 0x4f7e <_ZN7TwoWire15endTransmissionEv>
}
     6c2:	0f 90       	pop	r0
     6c4:	0f 90       	pop	r0
     6c6:	0f 90       	pop	r0
     6c8:	0f 90       	pop	r0
     6ca:	df 91       	pop	r29
     6cc:	cf 91       	pop	r28
     6ce:	08 95       	ret

000006d0 <_ZN17Adafruit_MCP2301712digitalWriteEhh>:

void Adafruit_MCP23017::digitalWrite(uint8_t p, uint8_t d) {
     6d0:	cf 93       	push	r28
     6d2:	df 93       	push	r29
     6d4:	cd b7       	in	r28, 0x3d	; 61
     6d6:	de b7       	in	r29, 0x3e	; 62
     6d8:	27 97       	sbiw	r28, 0x07	; 7
     6da:	0f b6       	in	r0, 0x3f	; 63
     6dc:	f8 94       	cli
     6de:	de bf       	out	0x3e, r29	; 62
     6e0:	0f be       	out	0x3f, r0	; 63
     6e2:	cd bf       	out	0x3d, r28	; 61
     6e4:	9d 83       	std	Y+5, r25	; 0x05
     6e6:	8c 83       	std	Y+4, r24	; 0x04
     6e8:	6e 83       	std	Y+6, r22	; 0x06
     6ea:	4f 83       	std	Y+7, r20	; 0x07
  uint8_t gpio;
  uint8_t gpioaddr, olataddr;

  // only 16 bits!
  if (p > 15)
     6ec:	8e 81       	ldd	r24, Y+6	; 0x06
     6ee:	80 31       	cpi	r24, 0x10	; 16
     6f0:	08 f0       	brcs	.+2      	; 0x6f4 <_ZN17Adafruit_MCP2301712digitalWriteEhh+0x24>
    return;
     6f2:	67 c0       	rjmp	.+206    	; 0x7c2 <_ZN17Adafruit_MCP2301712digitalWriteEhh+0xf2>

  if (p < 8) {
     6f4:	8e 81       	ldd	r24, Y+6	; 0x06
     6f6:	88 30       	cpi	r24, 0x08	; 8
     6f8:	28 f4       	brcc	.+10     	; 0x704 <_ZN17Adafruit_MCP2301712digitalWriteEhh+0x34>
    olataddr = MCP23017_OLATA;
     6fa:	84 e1       	ldi	r24, 0x14	; 20
     6fc:	8b 83       	std	Y+3, r24	; 0x03
    gpioaddr = MCP23017_GPIOA;
     6fe:	82 e1       	ldi	r24, 0x12	; 18
     700:	8a 83       	std	Y+2, r24	; 0x02
     702:	07 c0       	rjmp	.+14     	; 0x712 <_ZN17Adafruit_MCP2301712digitalWriteEhh+0x42>
  } else {
    olataddr = MCP23017_OLATB;
     704:	85 e1       	ldi	r24, 0x15	; 21
     706:	8b 83       	std	Y+3, r24	; 0x03
    gpioaddr = MCP23017_GPIOB;
     708:	83 e1       	ldi	r24, 0x13	; 19
     70a:	8a 83       	std	Y+2, r24	; 0x02
    p -= 8;
     70c:	8e 81       	ldd	r24, Y+6	; 0x06
     70e:	88 50       	subi	r24, 0x08	; 8
     710:	8e 83       	std	Y+6, r24	; 0x06
  }

  // read the current GPIO output latches
  WIRE.beginTransmission(MCP23017_ADDRESS | i2caddr);
     712:	8c 81       	ldd	r24, Y+4	; 0x04
     714:	9d 81       	ldd	r25, Y+5	; 0x05
     716:	fc 01       	movw	r30, r24
     718:	80 81       	ld	r24, Z
     71a:	80 62       	ori	r24, 0x20	; 32
     71c:	88 2f       	mov	r24, r24
     71e:	90 e0       	ldi	r25, 0x00	; 0
     720:	bc 01       	movw	r22, r24
     722:	88 e6       	ldi	r24, 0x68	; 104
     724:	94 e0       	ldi	r25, 0x04	; 4
     726:	0e 94 85 27 	call	0x4f0a	; 0x4f0a <_ZN7TwoWire17beginTransmissionEi>
  wiresend(olataddr);	
     72a:	8b 81       	ldd	r24, Y+3	; 0x03
     72c:	73 de       	rcall	.-794    	; 0x414 <_ZL8wiresendh>
  WIRE.endTransmission();
     72e:	88 e6       	ldi	r24, 0x68	; 104
     730:	94 e0       	ldi	r25, 0x04	; 4
     732:	0e 94 bf 27 	call	0x4f7e	; 0x4f7e <_ZN7TwoWire15endTransmissionEv>
  
  WIRE.requestFrom(MCP23017_ADDRESS | i2caddr, 1);
     736:	8c 81       	ldd	r24, Y+4	; 0x04
     738:	9d 81       	ldd	r25, Y+5	; 0x05
     73a:	fc 01       	movw	r30, r24
     73c:	80 81       	ld	r24, Z
     73e:	80 62       	ori	r24, 0x20	; 32
     740:	88 2f       	mov	r24, r24
     742:	90 e0       	ldi	r25, 0x00	; 0
     744:	41 e0       	ldi	r20, 0x01	; 1
     746:	50 e0       	ldi	r21, 0x00	; 0
     748:	bc 01       	movw	r22, r24
     74a:	88 e6       	ldi	r24, 0x68	; 104
     74c:	94 e0       	ldi	r25, 0x04	; 4
     74e:	0e 94 4f 27 	call	0x4e9e	; 0x4e9e <_ZN7TwoWire11requestFromEii>
   gpio = wirerecv();
     752:	6f de       	rcall	.-802    	; 0x432 <_ZL8wirerecvv>
     754:	89 83       	std	Y+1, r24	; 0x01

  // set the pin and direction
  if (d == HIGH) {
     756:	8f 81       	ldd	r24, Y+7	; 0x07
     758:	81 30       	cpi	r24, 0x01	; 1
     75a:	81 f4       	brne	.+32     	; 0x77c <_ZN17Adafruit_MCP2301712digitalWriteEhh+0xac>
    gpio |= 1 << p; 
     75c:	8e 81       	ldd	r24, Y+6	; 0x06
     75e:	28 2f       	mov	r18, r24
     760:	30 e0       	ldi	r19, 0x00	; 0
     762:	81 e0       	ldi	r24, 0x01	; 1
     764:	90 e0       	ldi	r25, 0x00	; 0
     766:	02 2e       	mov	r0, r18
     768:	02 c0       	rjmp	.+4      	; 0x76e <_ZN17Adafruit_MCP2301712digitalWriteEhh+0x9e>
     76a:	88 0f       	add	r24, r24
     76c:	99 1f       	adc	r25, r25
     76e:	0a 94       	dec	r0
     770:	e2 f7       	brpl	.-8      	; 0x76a <_ZN17Adafruit_MCP2301712digitalWriteEhh+0x9a>
     772:	98 2f       	mov	r25, r24
     774:	89 81       	ldd	r24, Y+1	; 0x01
     776:	89 2b       	or	r24, r25
     778:	89 83       	std	Y+1, r24	; 0x01
     77a:	0f c0       	rjmp	.+30     	; 0x79a <_ZN17Adafruit_MCP2301712digitalWriteEhh+0xca>
  } else {
    gpio &= ~(1 << p);
     77c:	8e 81       	ldd	r24, Y+6	; 0x06
     77e:	28 2f       	mov	r18, r24
     780:	30 e0       	ldi	r19, 0x00	; 0
     782:	81 e0       	ldi	r24, 0x01	; 1
     784:	90 e0       	ldi	r25, 0x00	; 0
     786:	02 c0       	rjmp	.+4      	; 0x78c <_ZN17Adafruit_MCP2301712digitalWriteEhh+0xbc>
     788:	88 0f       	add	r24, r24
     78a:	99 1f       	adc	r25, r25
     78c:	2a 95       	dec	r18
     78e:	e2 f7       	brpl	.-8      	; 0x788 <_ZN17Adafruit_MCP2301712digitalWriteEhh+0xb8>
     790:	98 2f       	mov	r25, r24
     792:	90 95       	com	r25
     794:	89 81       	ldd	r24, Y+1	; 0x01
     796:	89 23       	and	r24, r25
     798:	89 83       	std	Y+1, r24	; 0x01
  }

  // write the new GPIO
  WIRE.beginTransmission(MCP23017_ADDRESS | i2caddr);
     79a:	8c 81       	ldd	r24, Y+4	; 0x04
     79c:	9d 81       	ldd	r25, Y+5	; 0x05
     79e:	fc 01       	movw	r30, r24
     7a0:	80 81       	ld	r24, Z
     7a2:	80 62       	ori	r24, 0x20	; 32
     7a4:	88 2f       	mov	r24, r24
     7a6:	90 e0       	ldi	r25, 0x00	; 0
     7a8:	bc 01       	movw	r22, r24
     7aa:	88 e6       	ldi	r24, 0x68	; 104
     7ac:	94 e0       	ldi	r25, 0x04	; 4
     7ae:	0e 94 85 27 	call	0x4f0a	; 0x4f0a <_ZN7TwoWire17beginTransmissionEi>
  wiresend(gpioaddr);
     7b2:	8a 81       	ldd	r24, Y+2	; 0x02
     7b4:	2f de       	rcall	.-930    	; 0x414 <_ZL8wiresendh>
  wiresend(gpio);	
     7b6:	89 81       	ldd	r24, Y+1	; 0x01
     7b8:	2d de       	rcall	.-934    	; 0x414 <_ZL8wiresendh>
  WIRE.endTransmission();
     7ba:	88 e6       	ldi	r24, 0x68	; 104
     7bc:	94 e0       	ldi	r25, 0x04	; 4
     7be:	0e 94 bf 27 	call	0x4f7e	; 0x4f7e <_ZN7TwoWire15endTransmissionEv>
}
     7c2:	27 96       	adiw	r28, 0x07	; 7
     7c4:	0f b6       	in	r0, 0x3f	; 63
     7c6:	f8 94       	cli
     7c8:	de bf       	out	0x3e, r29	; 62
     7ca:	0f be       	out	0x3f, r0	; 63
     7cc:	cd bf       	out	0x3d, r28	; 61
     7ce:	df 91       	pop	r29
     7d0:	cf 91       	pop	r28
     7d2:	08 95       	ret

000007d4 <_ZN17Adafruit_MCP230176pullUpEhh>:

void Adafruit_MCP23017::pullUp(uint8_t p, uint8_t d) {
     7d4:	cf 93       	push	r28
     7d6:	df 93       	push	r29
     7d8:	00 d0       	rcall	.+0      	; 0x7da <_ZN17Adafruit_MCP230176pullUpEhh+0x6>
     7da:	00 d0       	rcall	.+0      	; 0x7dc <_ZN17Adafruit_MCP230176pullUpEhh+0x8>
     7dc:	00 d0       	rcall	.+0      	; 0x7de <_ZN17Adafruit_MCP230176pullUpEhh+0xa>
     7de:	cd b7       	in	r28, 0x3d	; 61
     7e0:	de b7       	in	r29, 0x3e	; 62
     7e2:	9c 83       	std	Y+4, r25	; 0x04
     7e4:	8b 83       	std	Y+3, r24	; 0x03
     7e6:	6d 83       	std	Y+5, r22	; 0x05
     7e8:	4e 83       	std	Y+6, r20	; 0x06
  uint8_t gppu;
  uint8_t gppuaddr;

  // only 16 bits!
  if (p > 15)
     7ea:	8d 81       	ldd	r24, Y+5	; 0x05
     7ec:	80 31       	cpi	r24, 0x10	; 16
     7ee:	08 f0       	brcs	.+2      	; 0x7f2 <_ZN17Adafruit_MCP230176pullUpEhh+0x1e>
    return;
     7f0:	63 c0       	rjmp	.+198    	; 0x8b8 <_ZN17Adafruit_MCP230176pullUpEhh+0xe4>

  if (p < 8)
     7f2:	8d 81       	ldd	r24, Y+5	; 0x05
     7f4:	88 30       	cpi	r24, 0x08	; 8
     7f6:	18 f4       	brcc	.+6      	; 0x7fe <_ZN17Adafruit_MCP230176pullUpEhh+0x2a>
    gppuaddr = MCP23017_GPPUA;
     7f8:	8c e0       	ldi	r24, 0x0C	; 12
     7fa:	8a 83       	std	Y+2, r24	; 0x02
     7fc:	05 c0       	rjmp	.+10     	; 0x808 <_ZN17Adafruit_MCP230176pullUpEhh+0x34>
  else {
    gppuaddr = MCP23017_GPPUB;
     7fe:	8d e0       	ldi	r24, 0x0D	; 13
     800:	8a 83       	std	Y+2, r24	; 0x02
    p -= 8;
     802:	8d 81       	ldd	r24, Y+5	; 0x05
     804:	88 50       	subi	r24, 0x08	; 8
     806:	8d 83       	std	Y+5, r24	; 0x05
  }


  // read the current pullup resistor set
  WIRE.beginTransmission(MCP23017_ADDRESS | i2caddr);
     808:	8b 81       	ldd	r24, Y+3	; 0x03
     80a:	9c 81       	ldd	r25, Y+4	; 0x04
     80c:	fc 01       	movw	r30, r24
     80e:	80 81       	ld	r24, Z
     810:	80 62       	ori	r24, 0x20	; 32
     812:	88 2f       	mov	r24, r24
     814:	90 e0       	ldi	r25, 0x00	; 0
     816:	bc 01       	movw	r22, r24
     818:	88 e6       	ldi	r24, 0x68	; 104
     81a:	94 e0       	ldi	r25, 0x04	; 4
     81c:	0e 94 85 27 	call	0x4f0a	; 0x4f0a <_ZN7TwoWire17beginTransmissionEi>
  wiresend(gppuaddr);	
     820:	8a 81       	ldd	r24, Y+2	; 0x02
     822:	f8 dd       	rcall	.-1040   	; 0x414 <_ZL8wiresendh>
  WIRE.endTransmission();
     824:	88 e6       	ldi	r24, 0x68	; 104
     826:	94 e0       	ldi	r25, 0x04	; 4
     828:	0e 94 bf 27 	call	0x4f7e	; 0x4f7e <_ZN7TwoWire15endTransmissionEv>
  
  WIRE.requestFrom(MCP23017_ADDRESS | i2caddr, 1);
     82c:	8b 81       	ldd	r24, Y+3	; 0x03
     82e:	9c 81       	ldd	r25, Y+4	; 0x04
     830:	fc 01       	movw	r30, r24
     832:	80 81       	ld	r24, Z
     834:	80 62       	ori	r24, 0x20	; 32
     836:	88 2f       	mov	r24, r24
     838:	90 e0       	ldi	r25, 0x00	; 0
     83a:	41 e0       	ldi	r20, 0x01	; 1
     83c:	50 e0       	ldi	r21, 0x00	; 0
     83e:	bc 01       	movw	r22, r24
     840:	88 e6       	ldi	r24, 0x68	; 104
     842:	94 e0       	ldi	r25, 0x04	; 4
     844:	0e 94 4f 27 	call	0x4e9e	; 0x4e9e <_ZN7TwoWire11requestFromEii>
  gppu = wirerecv();
     848:	f4 dd       	rcall	.-1048   	; 0x432 <_ZL8wirerecvv>
     84a:	89 83       	std	Y+1, r24	; 0x01

  // set the pin and direction
  if (d == HIGH) {
     84c:	8e 81       	ldd	r24, Y+6	; 0x06
     84e:	81 30       	cpi	r24, 0x01	; 1
     850:	81 f4       	brne	.+32     	; 0x872 <_ZN17Adafruit_MCP230176pullUpEhh+0x9e>
    gppu |= 1 << p; 
     852:	8d 81       	ldd	r24, Y+5	; 0x05
     854:	28 2f       	mov	r18, r24
     856:	30 e0       	ldi	r19, 0x00	; 0
     858:	81 e0       	ldi	r24, 0x01	; 1
     85a:	90 e0       	ldi	r25, 0x00	; 0
     85c:	02 2e       	mov	r0, r18
     85e:	02 c0       	rjmp	.+4      	; 0x864 <_ZN17Adafruit_MCP230176pullUpEhh+0x90>
     860:	88 0f       	add	r24, r24
     862:	99 1f       	adc	r25, r25
     864:	0a 94       	dec	r0
     866:	e2 f7       	brpl	.-8      	; 0x860 <_ZN17Adafruit_MCP230176pullUpEhh+0x8c>
     868:	98 2f       	mov	r25, r24
     86a:	89 81       	ldd	r24, Y+1	; 0x01
     86c:	89 2b       	or	r24, r25
     86e:	89 83       	std	Y+1, r24	; 0x01
     870:	0f c0       	rjmp	.+30     	; 0x890 <_ZN17Adafruit_MCP230176pullUpEhh+0xbc>
  } else {
    gppu &= ~(1 << p);
     872:	8d 81       	ldd	r24, Y+5	; 0x05
     874:	28 2f       	mov	r18, r24
     876:	30 e0       	ldi	r19, 0x00	; 0
     878:	81 e0       	ldi	r24, 0x01	; 1
     87a:	90 e0       	ldi	r25, 0x00	; 0
     87c:	02 c0       	rjmp	.+4      	; 0x882 <_ZN17Adafruit_MCP230176pullUpEhh+0xae>
     87e:	88 0f       	add	r24, r24
     880:	99 1f       	adc	r25, r25
     882:	2a 95       	dec	r18
     884:	e2 f7       	brpl	.-8      	; 0x87e <_ZN17Adafruit_MCP230176pullUpEhh+0xaa>
     886:	98 2f       	mov	r25, r24
     888:	90 95       	com	r25
     88a:	89 81       	ldd	r24, Y+1	; 0x01
     88c:	89 23       	and	r24, r25
     88e:	89 83       	std	Y+1, r24	; 0x01
  }

  // write the new GPIO
  WIRE.beginTransmission(MCP23017_ADDRESS | i2caddr);
     890:	8b 81       	ldd	r24, Y+3	; 0x03
     892:	9c 81       	ldd	r25, Y+4	; 0x04
     894:	fc 01       	movw	r30, r24
     896:	80 81       	ld	r24, Z
     898:	80 62       	ori	r24, 0x20	; 32
     89a:	88 2f       	mov	r24, r24
     89c:	90 e0       	ldi	r25, 0x00	; 0
     89e:	bc 01       	movw	r22, r24
     8a0:	88 e6       	ldi	r24, 0x68	; 104
     8a2:	94 e0       	ldi	r25, 0x04	; 4
     8a4:	0e 94 85 27 	call	0x4f0a	; 0x4f0a <_ZN7TwoWire17beginTransmissionEi>
  wiresend(gppuaddr);
     8a8:	8a 81       	ldd	r24, Y+2	; 0x02
     8aa:	b4 dd       	rcall	.-1176   	; 0x414 <_ZL8wiresendh>
  wiresend(gppu);	
     8ac:	89 81       	ldd	r24, Y+1	; 0x01
     8ae:	b2 dd       	rcall	.-1180   	; 0x414 <_ZL8wiresendh>
  WIRE.endTransmission();
     8b0:	88 e6       	ldi	r24, 0x68	; 104
     8b2:	94 e0       	ldi	r25, 0x04	; 4
     8b4:	0e 94 bf 27 	call	0x4f7e	; 0x4f7e <_ZN7TwoWire15endTransmissionEv>
}
     8b8:	26 96       	adiw	r28, 0x06	; 6
     8ba:	0f b6       	in	r0, 0x3f	; 63
     8bc:	f8 94       	cli
     8be:	de bf       	out	0x3e, r29	; 62
     8c0:	0f be       	out	0x3f, r0	; 63
     8c2:	cd bf       	out	0x3d, r28	; 61
     8c4:	df 91       	pop	r29
     8c6:	cf 91       	pop	r28
     8c8:	08 95       	ret

000008ca <_ZN17Adafruit_MCP2301711digitalReadEh>:

uint8_t Adafruit_MCP23017::digitalRead(uint8_t p) {
     8ca:	cf 93       	push	r28
     8cc:	df 93       	push	r29
     8ce:	00 d0       	rcall	.+0      	; 0x8d0 <_ZN17Adafruit_MCP2301711digitalReadEh+0x6>
     8d0:	00 d0       	rcall	.+0      	; 0x8d2 <_ZN17Adafruit_MCP2301711digitalReadEh+0x8>
     8d2:	cd b7       	in	r28, 0x3d	; 61
     8d4:	de b7       	in	r29, 0x3e	; 62
     8d6:	9b 83       	std	Y+3, r25	; 0x03
     8d8:	8a 83       	std	Y+2, r24	; 0x02
     8da:	6c 83       	std	Y+4, r22	; 0x04
  uint8_t gpioaddr;

  // only 16 bits!
  if (p > 15)
     8dc:	8c 81       	ldd	r24, Y+4	; 0x04
     8de:	80 31       	cpi	r24, 0x10	; 16
     8e0:	10 f0       	brcs	.+4      	; 0x8e6 <_ZN17Adafruit_MCP2301711digitalReadEh+0x1c>
    return 0;
     8e2:	80 e0       	ldi	r24, 0x00	; 0
     8e4:	38 c0       	rjmp	.+112    	; 0x956 <__stack+0x57>

  if (p < 8)
     8e6:	8c 81       	ldd	r24, Y+4	; 0x04
     8e8:	88 30       	cpi	r24, 0x08	; 8
     8ea:	18 f4       	brcc	.+6      	; 0x8f2 <_ZN17Adafruit_MCP2301711digitalReadEh+0x28>
    gpioaddr = MCP23017_GPIOA;
     8ec:	82 e1       	ldi	r24, 0x12	; 18
     8ee:	89 83       	std	Y+1, r24	; 0x01
     8f0:	05 c0       	rjmp	.+10     	; 0x8fc <_ZN17Adafruit_MCP2301711digitalReadEh+0x32>
  else {
    gpioaddr = MCP23017_GPIOB;
     8f2:	83 e1       	ldi	r24, 0x13	; 19
     8f4:	89 83       	std	Y+1, r24	; 0x01
    p -= 8;
     8f6:	8c 81       	ldd	r24, Y+4	; 0x04
     8f8:	88 50       	subi	r24, 0x08	; 8
     8fa:	8c 83       	std	Y+4, r24	; 0x04
  }

  // read the current GPIO
  WIRE.beginTransmission(MCP23017_ADDRESS | i2caddr);
     8fc:	8a 81       	ldd	r24, Y+2	; 0x02
     8fe:	9b 81       	ldd	r25, Y+3	; 0x03
     900:	fc 01       	movw	r30, r24
     902:	80 81       	ld	r24, Z
     904:	80 62       	ori	r24, 0x20	; 32
     906:	88 2f       	mov	r24, r24
     908:	90 e0       	ldi	r25, 0x00	; 0
     90a:	bc 01       	movw	r22, r24
     90c:	88 e6       	ldi	r24, 0x68	; 104
     90e:	94 e0       	ldi	r25, 0x04	; 4
     910:	0e 94 85 27 	call	0x4f0a	; 0x4f0a <_ZN7TwoWire17beginTransmissionEi>
  wiresend(gpioaddr);	
     914:	89 81       	ldd	r24, Y+1	; 0x01
     916:	7e dd       	rcall	.-1284   	; 0x414 <_ZL8wiresendh>
  WIRE.endTransmission();
     918:	88 e6       	ldi	r24, 0x68	; 104
     91a:	94 e0       	ldi	r25, 0x04	; 4
     91c:	0e 94 bf 27 	call	0x4f7e	; 0x4f7e <_ZN7TwoWire15endTransmissionEv>
  
  WIRE.requestFrom(MCP23017_ADDRESS | i2caddr, 1);
     920:	8a 81       	ldd	r24, Y+2	; 0x02
     922:	9b 81       	ldd	r25, Y+3	; 0x03
     924:	fc 01       	movw	r30, r24
     926:	80 81       	ld	r24, Z
     928:	80 62       	ori	r24, 0x20	; 32
     92a:	88 2f       	mov	r24, r24
     92c:	90 e0       	ldi	r25, 0x00	; 0
     92e:	41 e0       	ldi	r20, 0x01	; 1
     930:	50 e0       	ldi	r21, 0x00	; 0
     932:	bc 01       	movw	r22, r24
     934:	88 e6       	ldi	r24, 0x68	; 104
     936:	94 e0       	ldi	r25, 0x04	; 4
     938:	0e 94 4f 27 	call	0x4e9e	; 0x4e9e <_ZN7TwoWire11requestFromEii>
  return (wirerecv() >> p) & 0x1;
     93c:	7a dd       	rcall	.-1292   	; 0x432 <_ZL8wirerecvv>
     93e:	88 2f       	mov	r24, r24
     940:	90 e0       	ldi	r25, 0x00	; 0
     942:	2c 81       	ldd	r18, Y+4	; 0x04
     944:	22 2f       	mov	r18, r18
     946:	30 e0       	ldi	r19, 0x00	; 0
     948:	02 2e       	mov	r0, r18
     94a:	02 c0       	rjmp	.+4      	; 0x950 <__stack+0x51>
     94c:	95 95       	asr	r25
     94e:	87 95       	ror	r24
     950:	0a 94       	dec	r0
     952:	e2 f7       	brpl	.-8      	; 0x94c <__stack+0x4d>
     954:	81 70       	andi	r24, 0x01	; 1
}
     956:	0f 90       	pop	r0
     958:	0f 90       	pop	r0
     95a:	0f 90       	pop	r0
     95c:	0f 90       	pop	r0
     95e:	df 91       	pop	r29
     960:	cf 91       	pop	r28
     962:	08 95       	ret

00000964 <_ZN5PrintC1Ev>:

// sets function called on slave read
void TwoWire::onRequest( void (*function)(void) )
{
  user_onRequest = function;
}
     964:	cf 93       	push	r28
     966:	df 93       	push	r29
     968:	00 d0       	rcall	.+0      	; 0x96a <_ZN5PrintC1Ev+0x6>
     96a:	cd b7       	in	r28, 0x3d	; 61
     96c:	de b7       	in	r29, 0x3e	; 62
     96e:	9a 83       	std	Y+2, r25	; 0x02
     970:	89 83       	std	Y+1, r24	; 0x01
     972:	89 81       	ldd	r24, Y+1	; 0x01
     974:	9a 81       	ldd	r25, Y+2	; 0x02
     976:	20 e3       	ldi	r18, 0x30	; 48
     978:	32 e0       	ldi	r19, 0x02	; 2
     97a:	fc 01       	movw	r30, r24
     97c:	31 83       	std	Z+1, r19	; 0x01
     97e:	20 83       	st	Z, r18
     980:	89 81       	ldd	r24, Y+1	; 0x01
     982:	9a 81       	ldd	r25, Y+2	; 0x02
     984:	fc 01       	movw	r30, r24
     986:	13 82       	std	Z+3, r1	; 0x03
     988:	12 82       	std	Z+2, r1	; 0x02
     98a:	0f 90       	pop	r0
     98c:	0f 90       	pop	r0
     98e:	df 91       	pop	r29
     990:	cf 91       	pop	r28
     992:	08 95       	ret

00000994 <_ZN21Adafruit_RGBLCDShieldC1Ev>:
  command(LCD_SETCGRAMADDR | (location << 3));
  for (int i=0; i<8; i++) {
    write(charmap[i]);
  }
  command(LCD_SETDDRAMADDR);  // unfortunately resets the location to 0,0
}
     994:	cf 93       	push	r28
     996:	df 93       	push	r29
     998:	00 d0       	rcall	.+0      	; 0x99a <_ZN21Adafruit_RGBLCDShieldC1Ev+0x6>
     99a:	cd b7       	in	r28, 0x3d	; 61
     99c:	de b7       	in	r29, 0x3e	; 62
     99e:	9a 83       	std	Y+2, r25	; 0x02
     9a0:	89 83       	std	Y+1, r24	; 0x01
     9a2:	89 81       	ldd	r24, Y+1	; 0x01
     9a4:	9a 81       	ldd	r25, Y+2	; 0x02
     9a6:	de df       	rcall	.-68     	; 0x964 <_ZN5PrintC1Ev>
     9a8:	89 81       	ldd	r24, Y+1	; 0x01
     9aa:	9a 81       	ldd	r25, Y+2	; 0x02
     9ac:	26 e8       	ldi	r18, 0x86	; 134
     9ae:	31 e0       	ldi	r19, 0x01	; 1
     9b0:	fc 01       	movw	r30, r24
     9b2:	31 83       	std	Z+1, r19	; 0x01
     9b4:	20 83       	st	Z, r18
     9b6:	89 81       	ldd	r24, Y+1	; 0x01
     9b8:	9a 81       	ldd	r25, Y+2	; 0x02
     9ba:	fc 01       	movw	r30, r24
     9bc:	12 8e       	std	Z+26, r1	; 0x1a
     9be:	89 81       	ldd	r24, Y+1	; 0x01
     9c0:	9a 81       	ldd	r25, Y+2	; 0x02
     9c2:	fc 01       	movw	r30, r24
     9c4:	14 8a       	std	Z+20, r1	; 0x14
     9c6:	89 81       	ldd	r24, Y+1	; 0x01
     9c8:	9a 81       	ldd	r25, Y+2	; 0x02
     9ca:	2f e0       	ldi	r18, 0x0F	; 15
     9cc:	fc 01       	movw	r30, r24
     9ce:	24 83       	std	Z+4, r18	; 0x04
     9d0:	89 81       	ldd	r24, Y+1	; 0x01
     9d2:	9a 81       	ldd	r25, Y+2	; 0x02
     9d4:	2e e0       	ldi	r18, 0x0E	; 14
     9d6:	fc 01       	movw	r30, r24
     9d8:	25 83       	std	Z+5, r18	; 0x05
     9da:	89 81       	ldd	r24, Y+1	; 0x01
     9dc:	9a 81       	ldd	r25, Y+2	; 0x02
     9de:	2d e0       	ldi	r18, 0x0D	; 13
     9e0:	fc 01       	movw	r30, r24
     9e2:	26 83       	std	Z+6, r18	; 0x06
     9e4:	89 81       	ldd	r24, Y+1	; 0x01
     9e6:	9a 81       	ldd	r25, Y+2	; 0x02
     9e8:	2c e0       	ldi	r18, 0x0C	; 12
     9ea:	fc 01       	movw	r30, r24
     9ec:	27 83       	std	Z+7, r18	; 0x07
     9ee:	89 81       	ldd	r24, Y+1	; 0x01
     9f0:	9a 81       	ldd	r25, Y+2	; 0x02
     9f2:	2b e0       	ldi	r18, 0x0B	; 11
     9f4:	fc 01       	movw	r30, r24
     9f6:	20 87       	std	Z+8, r18	; 0x08
     9f8:	89 81       	ldd	r24, Y+1	; 0x01
     9fa:	9a 81       	ldd	r25, Y+2	; 0x02
     9fc:	2a e0       	ldi	r18, 0x0A	; 10
     9fe:	fc 01       	movw	r30, r24
     a00:	21 87       	std	Z+9, r18	; 0x09
     a02:	89 81       	ldd	r24, Y+1	; 0x01
     a04:	9a 81       	ldd	r25, Y+2	; 0x02
     a06:	29 e0       	ldi	r18, 0x09	; 9
     a08:	fc 01       	movw	r30, r24
     a0a:	22 87       	std	Z+10, r18	; 0x0a
     a0c:	89 81       	ldd	r24, Y+1	; 0x01
     a0e:	9a 81       	ldd	r25, Y+2	; 0x02
     a10:	fc 01       	movw	r30, r24
     a12:	17 86       	std	Z+15, r1	; 0x0f
     a14:	89 81       	ldd	r24, Y+1	; 0x01
     a16:	9a 81       	ldd	r25, Y+2	; 0x02
     a18:	21 e0       	ldi	r18, 0x01	; 1
     a1a:	fc 01       	movw	r30, r24
     a1c:	20 8b       	std	Z+16, r18	; 0x10
     a1e:	89 81       	ldd	r24, Y+1	; 0x01
     a20:	9a 81       	ldd	r25, Y+2	; 0x02
     a22:	22 e0       	ldi	r18, 0x02	; 2
     a24:	fc 01       	movw	r30, r24
     a26:	21 8b       	std	Z+17, r18	; 0x11
     a28:	89 81       	ldd	r24, Y+1	; 0x01
     a2a:	9a 81       	ldd	r25, Y+2	; 0x02
     a2c:	23 e0       	ldi	r18, 0x03	; 3
     a2e:	fc 01       	movw	r30, r24
     a30:	22 8b       	std	Z+18, r18	; 0x12
     a32:	89 81       	ldd	r24, Y+1	; 0x01
     a34:	9a 81       	ldd	r25, Y+2	; 0x02
     a36:	24 e0       	ldi	r18, 0x04	; 4
     a38:	fc 01       	movw	r30, r24
     a3a:	23 8b       	std	Z+19, r18	; 0x13
     a3c:	0f 90       	pop	r0
     a3e:	0f 90       	pop	r0
     a40:	df 91       	pop	r29
     a42:	cf 91       	pop	r28
     a44:	08 95       	ret

00000a46 <_ZN21Adafruit_RGBLCDShield5beginEhhh>:
     a46:	cf 93       	push	r28
     a48:	df 93       	push	r29
     a4a:	cd b7       	in	r28, 0x3d	; 61
     a4c:	de b7       	in	r29, 0x3e	; 62
     a4e:	27 97       	sbiw	r28, 0x07	; 7
     a50:	0f b6       	in	r0, 0x3f	; 63
     a52:	f8 94       	cli
     a54:	de bf       	out	0x3e, r29	; 62
     a56:	0f be       	out	0x3f, r0	; 63
     a58:	cd bf       	out	0x3d, r28	; 61
     a5a:	9c 83       	std	Y+4, r25	; 0x04
     a5c:	8b 83       	std	Y+3, r24	; 0x03
     a5e:	6d 83       	std	Y+5, r22	; 0x05
     a60:	4e 83       	std	Y+6, r20	; 0x06
     a62:	2f 83       	std	Y+7, r18	; 0x07
     a64:	8b 81       	ldd	r24, Y+3	; 0x03
     a66:	9c 81       	ldd	r25, Y+4	; 0x04
     a68:	fc 01       	movw	r30, r24
     a6a:	82 8d       	ldd	r24, Z+26	; 0x1a
     a6c:	8f 3f       	cpi	r24, 0xFF	; 255
     a6e:	09 f4       	brne	.+2      	; 0xa72 <_ZN21Adafruit_RGBLCDShield5beginEhhh+0x2c>
     a70:	82 c0       	rjmp	.+260    	; 0xb76 <_ZN21Adafruit_RGBLCDShield5beginEhhh+0x130>
     a72:	88 e6       	ldi	r24, 0x68	; 104
     a74:	94 e0       	ldi	r25, 0x04	; 4
     a76:	0e 94 13 27 	call	0x4e26	; 0x4e26 <_ZN7TwoWire5beginEv>
     a7a:	8b 81       	ldd	r24, Y+3	; 0x03
     a7c:	9c 81       	ldd	r25, Y+4	; 0x04
     a7e:	4b 96       	adiw	r24, 0x1b	; 27
     a80:	28 dd       	rcall	.-1456   	; 0x4d2 <_ZN17Adafruit_MCP230175beginEv>
     a82:	8b 81       	ldd	r24, Y+3	; 0x03
     a84:	9c 81       	ldd	r25, Y+4	; 0x04
     a86:	4b 96       	adiw	r24, 0x1b	; 27
     a88:	41 e0       	ldi	r20, 0x01	; 1
     a8a:	68 e0       	ldi	r22, 0x08	; 8
     a8c:	32 dd       	rcall	.-1436   	; 0x4f2 <_ZN17Adafruit_MCP230177pinModeEhh>
     a8e:	8b 81       	ldd	r24, Y+3	; 0x03
     a90:	9c 81       	ldd	r25, Y+4	; 0x04
     a92:	4b 96       	adiw	r24, 0x1b	; 27
     a94:	41 e0       	ldi	r20, 0x01	; 1
     a96:	66 e0       	ldi	r22, 0x06	; 6
     a98:	2c dd       	rcall	.-1448   	; 0x4f2 <_ZN17Adafruit_MCP230177pinModeEhh>
     a9a:	8b 81       	ldd	r24, Y+3	; 0x03
     a9c:	9c 81       	ldd	r25, Y+4	; 0x04
     a9e:	4b 96       	adiw	r24, 0x1b	; 27
     aa0:	41 e0       	ldi	r20, 0x01	; 1
     aa2:	67 e0       	ldi	r22, 0x07	; 7
     aa4:	26 dd       	rcall	.-1460   	; 0x4f2 <_ZN17Adafruit_MCP230177pinModeEhh>
     aa6:	8b 81       	ldd	r24, Y+3	; 0x03
     aa8:	9c 81       	ldd	r25, Y+4	; 0x04
     aaa:	67 e0       	ldi	r22, 0x07	; 7
     aac:	2d d2       	rcall	.+1114   	; 0xf08 <_ZN21Adafruit_RGBLCDShield12setBacklightEh>
     aae:	8b 81       	ldd	r24, Y+3	; 0x03
     ab0:	9c 81       	ldd	r25, Y+4	; 0x04
     ab2:	fc 01       	movw	r30, r24
     ab4:	85 81       	ldd	r24, Z+5	; 0x05
     ab6:	88 23       	and	r24, r24
     ab8:	51 f0       	breq	.+20     	; 0xace <_ZN21Adafruit_RGBLCDShield5beginEhhh+0x88>
     aba:	8b 81       	ldd	r24, Y+3	; 0x03
     abc:	9c 81       	ldd	r25, Y+4	; 0x04
     abe:	fc 01       	movw	r30, r24
     ac0:	25 81       	ldd	r18, Z+5	; 0x05
     ac2:	8b 81       	ldd	r24, Y+3	; 0x03
     ac4:	9c 81       	ldd	r25, Y+4	; 0x04
     ac6:	4b 96       	adiw	r24, 0x1b	; 27
     ac8:	41 e0       	ldi	r20, 0x01	; 1
     aca:	62 2f       	mov	r22, r18
     acc:	12 dd       	rcall	.-1500   	; 0x4f2 <_ZN17Adafruit_MCP230177pinModeEhh>
     ace:	8b 81       	ldd	r24, Y+3	; 0x03
     ad0:	9c 81       	ldd	r25, Y+4	; 0x04
     ad2:	fc 01       	movw	r30, r24
     ad4:	24 81       	ldd	r18, Z+4	; 0x04
     ad6:	8b 81       	ldd	r24, Y+3	; 0x03
     ad8:	9c 81       	ldd	r25, Y+4	; 0x04
     ada:	4b 96       	adiw	r24, 0x1b	; 27
     adc:	41 e0       	ldi	r20, 0x01	; 1
     ade:	62 2f       	mov	r22, r18
     ae0:	08 dd       	rcall	.-1520   	; 0x4f2 <_ZN17Adafruit_MCP230177pinModeEhh>
     ae2:	8b 81       	ldd	r24, Y+3	; 0x03
     ae4:	9c 81       	ldd	r25, Y+4	; 0x04
     ae6:	fc 01       	movw	r30, r24
     ae8:	26 81       	ldd	r18, Z+6	; 0x06
     aea:	8b 81       	ldd	r24, Y+3	; 0x03
     aec:	9c 81       	ldd	r25, Y+4	; 0x04
     aee:	4b 96       	adiw	r24, 0x1b	; 27
     af0:	41 e0       	ldi	r20, 0x01	; 1
     af2:	62 2f       	mov	r22, r18
     af4:	fe dc       	rcall	.-1540   	; 0x4f2 <_ZN17Adafruit_MCP230177pinModeEhh>
     af6:	19 82       	std	Y+1, r1	; 0x01
     af8:	13 c0       	rjmp	.+38     	; 0xb20 <_ZN21Adafruit_RGBLCDShield5beginEhhh+0xda>
     afa:	89 81       	ldd	r24, Y+1	; 0x01
     afc:	88 2f       	mov	r24, r24
     afe:	90 e0       	ldi	r25, 0x00	; 0
     b00:	2b 81       	ldd	r18, Y+3	; 0x03
     b02:	3c 81       	ldd	r19, Y+4	; 0x04
     b04:	82 0f       	add	r24, r18
     b06:	93 1f       	adc	r25, r19
     b08:	07 96       	adiw	r24, 0x07	; 7
     b0a:	fc 01       	movw	r30, r24
     b0c:	20 81       	ld	r18, Z
     b0e:	8b 81       	ldd	r24, Y+3	; 0x03
     b10:	9c 81       	ldd	r25, Y+4	; 0x04
     b12:	4b 96       	adiw	r24, 0x1b	; 27
     b14:	41 e0       	ldi	r20, 0x01	; 1
     b16:	62 2f       	mov	r22, r18
     b18:	ec dc       	rcall	.-1576   	; 0x4f2 <_ZN17Adafruit_MCP230177pinModeEhh>
     b1a:	89 81       	ldd	r24, Y+1	; 0x01
     b1c:	8f 5f       	subi	r24, 0xFF	; 255
     b1e:	89 83       	std	Y+1, r24	; 0x01
     b20:	89 81       	ldd	r24, Y+1	; 0x01
     b22:	84 30       	cpi	r24, 0x04	; 4
     b24:	50 f3       	brcs	.-44     	; 0xafa <_ZN21Adafruit_RGBLCDShield5beginEhhh+0xb4>
     b26:	1a 82       	std	Y+2, r1	; 0x02
     b28:	23 c0       	rjmp	.+70     	; 0xb70 <_ZN21Adafruit_RGBLCDShield5beginEhhh+0x12a>
     b2a:	8a 81       	ldd	r24, Y+2	; 0x02
     b2c:	88 2f       	mov	r24, r24
     b2e:	90 e0       	ldi	r25, 0x00	; 0
     b30:	2b 81       	ldd	r18, Y+3	; 0x03
     b32:	3c 81       	ldd	r19, Y+4	; 0x04
     b34:	82 0f       	add	r24, r18
     b36:	93 1f       	adc	r25, r19
     b38:	0f 96       	adiw	r24, 0x0f	; 15
     b3a:	fc 01       	movw	r30, r24
     b3c:	20 81       	ld	r18, Z
     b3e:	8b 81       	ldd	r24, Y+3	; 0x03
     b40:	9c 81       	ldd	r25, Y+4	; 0x04
     b42:	4b 96       	adiw	r24, 0x1b	; 27
     b44:	40 e0       	ldi	r20, 0x00	; 0
     b46:	62 2f       	mov	r22, r18
     b48:	d4 dc       	rcall	.-1624   	; 0x4f2 <_ZN17Adafruit_MCP230177pinModeEhh>
     b4a:	8a 81       	ldd	r24, Y+2	; 0x02
     b4c:	88 2f       	mov	r24, r24
     b4e:	90 e0       	ldi	r25, 0x00	; 0
     b50:	2b 81       	ldd	r18, Y+3	; 0x03
     b52:	3c 81       	ldd	r19, Y+4	; 0x04
     b54:	82 0f       	add	r24, r18
     b56:	93 1f       	adc	r25, r19
     b58:	0f 96       	adiw	r24, 0x0f	; 15
     b5a:	fc 01       	movw	r30, r24
     b5c:	20 81       	ld	r18, Z
     b5e:	8b 81       	ldd	r24, Y+3	; 0x03
     b60:	9c 81       	ldd	r25, Y+4	; 0x04
     b62:	4b 96       	adiw	r24, 0x1b	; 27
     b64:	41 e0       	ldi	r20, 0x01	; 1
     b66:	62 2f       	mov	r22, r18
     b68:	35 de       	rcall	.-918    	; 0x7d4 <_ZN17Adafruit_MCP230176pullUpEhh>
     b6a:	8a 81       	ldd	r24, Y+2	; 0x02
     b6c:	8f 5f       	subi	r24, 0xFF	; 255
     b6e:	8a 83       	std	Y+2, r24	; 0x02
     b70:	8a 81       	ldd	r24, Y+2	; 0x02
     b72:	85 30       	cpi	r24, 0x05	; 5
     b74:	d0 f2       	brcs	.-76     	; 0xb2a <_ZN21Adafruit_RGBLCDShield5beginEhhh+0xe4>
     b76:	8e 81       	ldd	r24, Y+6	; 0x06
     b78:	82 30       	cpi	r24, 0x02	; 2
     b7a:	50 f0       	brcs	.+20     	; 0xb90 <_ZN21Adafruit_RGBLCDShield5beginEhhh+0x14a>
     b7c:	8b 81       	ldd	r24, Y+3	; 0x03
     b7e:	9c 81       	ldd	r25, Y+4	; 0x04
     b80:	fc 01       	movw	r30, r24
     b82:	84 89       	ldd	r24, Z+20	; 0x14
     b84:	28 2f       	mov	r18, r24
     b86:	28 60       	ori	r18, 0x08	; 8
     b88:	8b 81       	ldd	r24, Y+3	; 0x03
     b8a:	9c 81       	ldd	r25, Y+4	; 0x04
     b8c:	fc 01       	movw	r30, r24
     b8e:	24 8b       	std	Z+20, r18	; 0x14
     b90:	8b 81       	ldd	r24, Y+3	; 0x03
     b92:	9c 81       	ldd	r25, Y+4	; 0x04
     b94:	2e 81       	ldd	r18, Y+6	; 0x06
     b96:	fc 01       	movw	r30, r24
     b98:	20 8f       	std	Z+24, r18	; 0x18
     b9a:	8b 81       	ldd	r24, Y+3	; 0x03
     b9c:	9c 81       	ldd	r25, Y+4	; 0x04
     b9e:	fc 01       	movw	r30, r24
     ba0:	11 8e       	std	Z+25, r1	; 0x19
     ba2:	8f 81       	ldd	r24, Y+7	; 0x07
     ba4:	88 23       	and	r24, r24
     ba6:	69 f0       	breq	.+26     	; 0xbc2 <_ZN21Adafruit_RGBLCDShield5beginEhhh+0x17c>
     ba8:	8e 81       	ldd	r24, Y+6	; 0x06
     baa:	81 30       	cpi	r24, 0x01	; 1
     bac:	51 f4       	brne	.+20     	; 0xbc2 <_ZN21Adafruit_RGBLCDShield5beginEhhh+0x17c>
     bae:	8b 81       	ldd	r24, Y+3	; 0x03
     bb0:	9c 81       	ldd	r25, Y+4	; 0x04
     bb2:	fc 01       	movw	r30, r24
     bb4:	84 89       	ldd	r24, Z+20	; 0x14
     bb6:	28 2f       	mov	r18, r24
     bb8:	24 60       	ori	r18, 0x04	; 4
     bba:	8b 81       	ldd	r24, Y+3	; 0x03
     bbc:	9c 81       	ldd	r25, Y+4	; 0x04
     bbe:	fc 01       	movw	r30, r24
     bc0:	24 8b       	std	Z+20, r18	; 0x14
     bc2:	80 e5       	ldi	r24, 0x50	; 80
     bc4:	93 ec       	ldi	r25, 0xC3	; 195
     bc6:	0e 94 f6 2c 	call	0x59ec	; 0x59ec <delayMicroseconds>
     bca:	8b 81       	ldd	r24, Y+3	; 0x03
     bcc:	9c 81       	ldd	r25, Y+4	; 0x04
     bce:	fc 01       	movw	r30, r24
     bd0:	24 81       	ldd	r18, Z+4	; 0x04
     bd2:	8b 81       	ldd	r24, Y+3	; 0x03
     bd4:	9c 81       	ldd	r25, Y+4	; 0x04
     bd6:	40 e0       	ldi	r20, 0x00	; 0
     bd8:	62 2f       	mov	r22, r18
     bda:	74 d1       	rcall	.+744    	; 0xec4 <_ZN21Adafruit_RGBLCDShield13_digitalWriteEhh>
     bdc:	8b 81       	ldd	r24, Y+3	; 0x03
     bde:	9c 81       	ldd	r25, Y+4	; 0x04
     be0:	fc 01       	movw	r30, r24
     be2:	26 81       	ldd	r18, Z+6	; 0x06
     be4:	8b 81       	ldd	r24, Y+3	; 0x03
     be6:	9c 81       	ldd	r25, Y+4	; 0x04
     be8:	40 e0       	ldi	r20, 0x00	; 0
     bea:	62 2f       	mov	r22, r18
     bec:	6b d1       	rcall	.+726    	; 0xec4 <_ZN21Adafruit_RGBLCDShield13_digitalWriteEhh>
     bee:	8b 81       	ldd	r24, Y+3	; 0x03
     bf0:	9c 81       	ldd	r25, Y+4	; 0x04
     bf2:	fc 01       	movw	r30, r24
     bf4:	85 81       	ldd	r24, Z+5	; 0x05
     bf6:	8f 3f       	cpi	r24, 0xFF	; 255
     bf8:	49 f0       	breq	.+18     	; 0xc0c <_ZN21Adafruit_RGBLCDShield5beginEhhh+0x1c6>
     bfa:	8b 81       	ldd	r24, Y+3	; 0x03
     bfc:	9c 81       	ldd	r25, Y+4	; 0x04
     bfe:	fc 01       	movw	r30, r24
     c00:	25 81       	ldd	r18, Z+5	; 0x05
     c02:	8b 81       	ldd	r24, Y+3	; 0x03
     c04:	9c 81       	ldd	r25, Y+4	; 0x04
     c06:	40 e0       	ldi	r20, 0x00	; 0
     c08:	62 2f       	mov	r22, r18
     c0a:	5c d1       	rcall	.+696    	; 0xec4 <_ZN21Adafruit_RGBLCDShield13_digitalWriteEhh>
     c0c:	8b 81       	ldd	r24, Y+3	; 0x03
     c0e:	9c 81       	ldd	r25, Y+4	; 0x04
     c10:	fc 01       	movw	r30, r24
     c12:	84 89       	ldd	r24, Z+20	; 0x14
     c14:	88 2f       	mov	r24, r24
     c16:	90 e0       	ldi	r25, 0x00	; 0
     c18:	80 71       	andi	r24, 0x10	; 16
     c1a:	99 27       	eor	r25, r25
     c1c:	00 97       	sbiw	r24, 0x00	; 0
     c1e:	e9 f4       	brne	.+58     	; 0xc5a <_ZN21Adafruit_RGBLCDShield5beginEhhh+0x214>
     c20:	8b 81       	ldd	r24, Y+3	; 0x03
     c22:	9c 81       	ldd	r25, Y+4	; 0x04
     c24:	63 e0       	ldi	r22, 0x03	; 3
     c26:	4d d2       	rcall	.+1178   	; 0x10c2 <_ZN21Adafruit_RGBLCDShield10write4bitsEh>
     c28:	84 e9       	ldi	r24, 0x94	; 148
     c2a:	91 e1       	ldi	r25, 0x11	; 17
     c2c:	0e 94 f6 2c 	call	0x59ec	; 0x59ec <delayMicroseconds>
     c30:	8b 81       	ldd	r24, Y+3	; 0x03
     c32:	9c 81       	ldd	r25, Y+4	; 0x04
     c34:	63 e0       	ldi	r22, 0x03	; 3
     c36:	45 d2       	rcall	.+1162   	; 0x10c2 <_ZN21Adafruit_RGBLCDShield10write4bitsEh>
     c38:	84 e9       	ldi	r24, 0x94	; 148
     c3a:	91 e1       	ldi	r25, 0x11	; 17
     c3c:	0e 94 f6 2c 	call	0x59ec	; 0x59ec <delayMicroseconds>
     c40:	8b 81       	ldd	r24, Y+3	; 0x03
     c42:	9c 81       	ldd	r25, Y+4	; 0x04
     c44:	63 e0       	ldi	r22, 0x03	; 3
     c46:	3d d2       	rcall	.+1146   	; 0x10c2 <_ZN21Adafruit_RGBLCDShield10write4bitsEh>
     c48:	86 e9       	ldi	r24, 0x96	; 150
     c4a:	90 e0       	ldi	r25, 0x00	; 0
     c4c:	0e 94 f6 2c 	call	0x59ec	; 0x59ec <delayMicroseconds>
     c50:	8b 81       	ldd	r24, Y+3	; 0x03
     c52:	9c 81       	ldd	r25, Y+4	; 0x04
     c54:	62 e0       	ldi	r22, 0x02	; 2
     c56:	35 d2       	rcall	.+1130   	; 0x10c2 <_ZN21Adafruit_RGBLCDShield10write4bitsEh>
     c58:	26 c0       	rjmp	.+76     	; 0xca6 <_ZN21Adafruit_RGBLCDShield5beginEhhh+0x260>
     c5a:	8b 81       	ldd	r24, Y+3	; 0x03
     c5c:	9c 81       	ldd	r25, Y+4	; 0x04
     c5e:	fc 01       	movw	r30, r24
     c60:	84 89       	ldd	r24, Z+20	; 0x14
     c62:	28 2f       	mov	r18, r24
     c64:	20 62       	ori	r18, 0x20	; 32
     c66:	8b 81       	ldd	r24, Y+3	; 0x03
     c68:	9c 81       	ldd	r25, Y+4	; 0x04
     c6a:	62 2f       	mov	r22, r18
     c6c:	01 d1       	rcall	.+514    	; 0xe70 <_ZN21Adafruit_RGBLCDShield7commandEh>
     c6e:	84 e9       	ldi	r24, 0x94	; 148
     c70:	91 e1       	ldi	r25, 0x11	; 17
     c72:	0e 94 f6 2c 	call	0x59ec	; 0x59ec <delayMicroseconds>
     c76:	8b 81       	ldd	r24, Y+3	; 0x03
     c78:	9c 81       	ldd	r25, Y+4	; 0x04
     c7a:	fc 01       	movw	r30, r24
     c7c:	84 89       	ldd	r24, Z+20	; 0x14
     c7e:	28 2f       	mov	r18, r24
     c80:	20 62       	ori	r18, 0x20	; 32
     c82:	8b 81       	ldd	r24, Y+3	; 0x03
     c84:	9c 81       	ldd	r25, Y+4	; 0x04
     c86:	62 2f       	mov	r22, r18
     c88:	f3 d0       	rcall	.+486    	; 0xe70 <_ZN21Adafruit_RGBLCDShield7commandEh>
     c8a:	86 e9       	ldi	r24, 0x96	; 150
     c8c:	90 e0       	ldi	r25, 0x00	; 0
     c8e:	0e 94 f6 2c 	call	0x59ec	; 0x59ec <delayMicroseconds>
     c92:	8b 81       	ldd	r24, Y+3	; 0x03
     c94:	9c 81       	ldd	r25, Y+4	; 0x04
     c96:	fc 01       	movw	r30, r24
     c98:	84 89       	ldd	r24, Z+20	; 0x14
     c9a:	28 2f       	mov	r18, r24
     c9c:	20 62       	ori	r18, 0x20	; 32
     c9e:	8b 81       	ldd	r24, Y+3	; 0x03
     ca0:	9c 81       	ldd	r25, Y+4	; 0x04
     ca2:	62 2f       	mov	r22, r18
     ca4:	e5 d0       	rcall	.+458    	; 0xe70 <_ZN21Adafruit_RGBLCDShield7commandEh>
     ca6:	8b 81       	ldd	r24, Y+3	; 0x03
     ca8:	9c 81       	ldd	r25, Y+4	; 0x04
     caa:	fc 01       	movw	r30, r24
     cac:	84 89       	ldd	r24, Z+20	; 0x14
     cae:	28 2f       	mov	r18, r24
     cb0:	20 62       	ori	r18, 0x20	; 32
     cb2:	8b 81       	ldd	r24, Y+3	; 0x03
     cb4:	9c 81       	ldd	r25, Y+4	; 0x04
     cb6:	62 2f       	mov	r22, r18
     cb8:	db d0       	rcall	.+438    	; 0xe70 <_ZN21Adafruit_RGBLCDShield7commandEh>
     cba:	8b 81       	ldd	r24, Y+3	; 0x03
     cbc:	9c 81       	ldd	r25, Y+4	; 0x04
     cbe:	24 e0       	ldi	r18, 0x04	; 4
     cc0:	fc 01       	movw	r30, r24
     cc2:	25 8b       	std	Z+21, r18	; 0x15
     cc4:	8b 81       	ldd	r24, Y+3	; 0x03
     cc6:	9c 81       	ldd	r25, Y+4	; 0x04
     cc8:	73 d0       	rcall	.+230    	; 0xdb0 <_ZN21Adafruit_RGBLCDShield7displayEv>
     cca:	8b 81       	ldd	r24, Y+3	; 0x03
     ccc:	9c 81       	ldd	r25, Y+4	; 0x04
     cce:	18 d0       	rcall	.+48     	; 0xd00 <_ZN21Adafruit_RGBLCDShield5clearEv>
     cd0:	8b 81       	ldd	r24, Y+3	; 0x03
     cd2:	9c 81       	ldd	r25, Y+4	; 0x04
     cd4:	22 e0       	ldi	r18, 0x02	; 2
     cd6:	fc 01       	movw	r30, r24
     cd8:	26 8b       	std	Z+22, r18	; 0x16
     cda:	8b 81       	ldd	r24, Y+3	; 0x03
     cdc:	9c 81       	ldd	r25, Y+4	; 0x04
     cde:	fc 01       	movw	r30, r24
     ce0:	86 89       	ldd	r24, Z+22	; 0x16
     ce2:	28 2f       	mov	r18, r24
     ce4:	24 60       	ori	r18, 0x04	; 4
     ce6:	8b 81       	ldd	r24, Y+3	; 0x03
     ce8:	9c 81       	ldd	r25, Y+4	; 0x04
     cea:	62 2f       	mov	r22, r18
     cec:	c1 d0       	rcall	.+386    	; 0xe70 <_ZN21Adafruit_RGBLCDShield7commandEh>
     cee:	27 96       	adiw	r28, 0x07	; 7
     cf0:	0f b6       	in	r0, 0x3f	; 63
     cf2:	f8 94       	cli
     cf4:	de bf       	out	0x3e, r29	; 62
     cf6:	0f be       	out	0x3f, r0	; 63
     cf8:	cd bf       	out	0x3d, r28	; 61
     cfa:	df 91       	pop	r29
     cfc:	cf 91       	pop	r28
     cfe:	08 95       	ret

00000d00 <_ZN21Adafruit_RGBLCDShield5clearEv>:
     d00:	cf 93       	push	r28
     d02:	df 93       	push	r29
     d04:	00 d0       	rcall	.+0      	; 0xd06 <_ZN21Adafruit_RGBLCDShield5clearEv+0x6>
     d06:	cd b7       	in	r28, 0x3d	; 61
     d08:	de b7       	in	r29, 0x3e	; 62
     d0a:	9a 83       	std	Y+2, r25	; 0x02
     d0c:	89 83       	std	Y+1, r24	; 0x01
     d0e:	89 81       	ldd	r24, Y+1	; 0x01
     d10:	9a 81       	ldd	r25, Y+2	; 0x02
     d12:	61 e0       	ldi	r22, 0x01	; 1
     d14:	ad d0       	rcall	.+346    	; 0xe70 <_ZN21Adafruit_RGBLCDShield7commandEh>
     d16:	80 ed       	ldi	r24, 0xD0	; 208
     d18:	97 e0       	ldi	r25, 0x07	; 7
     d1a:	0e 94 f6 2c 	call	0x59ec	; 0x59ec <delayMicroseconds>
     d1e:	0f 90       	pop	r0
     d20:	0f 90       	pop	r0
     d22:	df 91       	pop	r29
     d24:	cf 91       	pop	r28
     d26:	08 95       	ret

00000d28 <_ZN21Adafruit_RGBLCDShield9setCursorEhh>:
     d28:	cf 93       	push	r28
     d2a:	df 93       	push	r29
     d2c:	cd b7       	in	r28, 0x3d	; 61
     d2e:	de b7       	in	r29, 0x3e	; 62
     d30:	2c 97       	sbiw	r28, 0x0c	; 12
     d32:	0f b6       	in	r0, 0x3f	; 63
     d34:	f8 94       	cli
     d36:	de bf       	out	0x3e, r29	; 62
     d38:	0f be       	out	0x3f, r0	; 63
     d3a:	cd bf       	out	0x3d, r28	; 61
     d3c:	9a 87       	std	Y+10, r25	; 0x0a
     d3e:	89 87       	std	Y+9, r24	; 0x09
     d40:	6b 87       	std	Y+11, r22	; 0x0b
     d42:	4c 87       	std	Y+12, r20	; 0x0c
     d44:	28 e0       	ldi	r18, 0x08	; 8
     d46:	ea e1       	ldi	r30, 0x1A	; 26
     d48:	f1 e0       	ldi	r31, 0x01	; 1
     d4a:	ce 01       	movw	r24, r28
     d4c:	01 96       	adiw	r24, 0x01	; 1
     d4e:	dc 01       	movw	r26, r24
     d50:	01 90       	ld	r0, Z+
     d52:	0d 92       	st	X+, r0
     d54:	2a 95       	dec	r18
     d56:	e1 f7       	brne	.-8      	; 0xd50 <_ZN21Adafruit_RGBLCDShield9setCursorEhh+0x28>
     d58:	89 85       	ldd	r24, Y+9	; 0x09
     d5a:	9a 85       	ldd	r25, Y+10	; 0x0a
     d5c:	fc 01       	movw	r30, r24
     d5e:	90 8d       	ldd	r25, Z+24	; 0x18
     d60:	8c 85       	ldd	r24, Y+12	; 0x0c
     d62:	98 17       	cp	r25, r24
     d64:	30 f4       	brcc	.+12     	; 0xd72 <_ZN21Adafruit_RGBLCDShield9setCursorEhh+0x4a>
     d66:	89 85       	ldd	r24, Y+9	; 0x09
     d68:	9a 85       	ldd	r25, Y+10	; 0x0a
     d6a:	fc 01       	movw	r30, r24
     d6c:	80 8d       	ldd	r24, Z+24	; 0x18
     d6e:	81 50       	subi	r24, 0x01	; 1
     d70:	8c 87       	std	Y+12, r24	; 0x0c
     d72:	8c 85       	ldd	r24, Y+12	; 0x0c
     d74:	88 2f       	mov	r24, r24
     d76:	90 e0       	ldi	r25, 0x00	; 0
     d78:	88 0f       	add	r24, r24
     d7a:	99 1f       	adc	r25, r25
     d7c:	9e 01       	movw	r18, r28
     d7e:	2f 5f       	subi	r18, 0xFF	; 255
     d80:	3f 4f       	sbci	r19, 0xFF	; 255
     d82:	82 0f       	add	r24, r18
     d84:	93 1f       	adc	r25, r19
     d86:	fc 01       	movw	r30, r24
     d88:	80 81       	ld	r24, Z
     d8a:	91 81       	ldd	r25, Z+1	; 0x01
     d8c:	98 2f       	mov	r25, r24
     d8e:	8b 85       	ldd	r24, Y+11	; 0x0b
     d90:	89 0f       	add	r24, r25
     d92:	80 68       	ori	r24, 0x80	; 128
     d94:	28 2f       	mov	r18, r24
     d96:	89 85       	ldd	r24, Y+9	; 0x09
     d98:	9a 85       	ldd	r25, Y+10	; 0x0a
     d9a:	62 2f       	mov	r22, r18
     d9c:	69 d0       	rcall	.+210    	; 0xe70 <_ZN21Adafruit_RGBLCDShield7commandEh>
     d9e:	2c 96       	adiw	r28, 0x0c	; 12
     da0:	0f b6       	in	r0, 0x3f	; 63
     da2:	f8 94       	cli
     da4:	de bf       	out	0x3e, r29	; 62
     da6:	0f be       	out	0x3f, r0	; 63
     da8:	cd bf       	out	0x3d, r28	; 61
     daa:	df 91       	pop	r29
     dac:	cf 91       	pop	r28
     dae:	08 95       	ret

00000db0 <_ZN21Adafruit_RGBLCDShield7displayEv>:
     db0:	cf 93       	push	r28
     db2:	df 93       	push	r29
     db4:	00 d0       	rcall	.+0      	; 0xdb6 <_ZN21Adafruit_RGBLCDShield7displayEv+0x6>
     db6:	cd b7       	in	r28, 0x3d	; 61
     db8:	de b7       	in	r29, 0x3e	; 62
     dba:	9a 83       	std	Y+2, r25	; 0x02
     dbc:	89 83       	std	Y+1, r24	; 0x01
     dbe:	89 81       	ldd	r24, Y+1	; 0x01
     dc0:	9a 81       	ldd	r25, Y+2	; 0x02
     dc2:	fc 01       	movw	r30, r24
     dc4:	85 89       	ldd	r24, Z+21	; 0x15
     dc6:	28 2f       	mov	r18, r24
     dc8:	24 60       	ori	r18, 0x04	; 4
     dca:	89 81       	ldd	r24, Y+1	; 0x01
     dcc:	9a 81       	ldd	r25, Y+2	; 0x02
     dce:	fc 01       	movw	r30, r24
     dd0:	25 8b       	std	Z+21, r18	; 0x15
     dd2:	89 81       	ldd	r24, Y+1	; 0x01
     dd4:	9a 81       	ldd	r25, Y+2	; 0x02
     dd6:	fc 01       	movw	r30, r24
     dd8:	85 89       	ldd	r24, Z+21	; 0x15
     dda:	28 2f       	mov	r18, r24
     ddc:	28 60       	ori	r18, 0x08	; 8
     dde:	89 81       	ldd	r24, Y+1	; 0x01
     de0:	9a 81       	ldd	r25, Y+2	; 0x02
     de2:	62 2f       	mov	r22, r18
     de4:	45 d0       	rcall	.+138    	; 0xe70 <_ZN21Adafruit_RGBLCDShield7commandEh>
     de6:	0f 90       	pop	r0
     de8:	0f 90       	pop	r0
     dea:	df 91       	pop	r29
     dec:	cf 91       	pop	r28
     dee:	08 95       	ret

00000df0 <_ZN21Adafruit_RGBLCDShield8noCursorEv>:
     df0:	cf 93       	push	r28
     df2:	df 93       	push	r29
     df4:	00 d0       	rcall	.+0      	; 0xdf6 <_ZN21Adafruit_RGBLCDShield8noCursorEv+0x6>
     df6:	cd b7       	in	r28, 0x3d	; 61
     df8:	de b7       	in	r29, 0x3e	; 62
     dfa:	9a 83       	std	Y+2, r25	; 0x02
     dfc:	89 83       	std	Y+1, r24	; 0x01
     dfe:	89 81       	ldd	r24, Y+1	; 0x01
     e00:	9a 81       	ldd	r25, Y+2	; 0x02
     e02:	fc 01       	movw	r30, r24
     e04:	85 89       	ldd	r24, Z+21	; 0x15
     e06:	28 2f       	mov	r18, r24
     e08:	2d 7f       	andi	r18, 0xFD	; 253
     e0a:	89 81       	ldd	r24, Y+1	; 0x01
     e0c:	9a 81       	ldd	r25, Y+2	; 0x02
     e0e:	fc 01       	movw	r30, r24
     e10:	25 8b       	std	Z+21, r18	; 0x15
     e12:	89 81       	ldd	r24, Y+1	; 0x01
     e14:	9a 81       	ldd	r25, Y+2	; 0x02
     e16:	fc 01       	movw	r30, r24
     e18:	85 89       	ldd	r24, Z+21	; 0x15
     e1a:	28 2f       	mov	r18, r24
     e1c:	28 60       	ori	r18, 0x08	; 8
     e1e:	89 81       	ldd	r24, Y+1	; 0x01
     e20:	9a 81       	ldd	r25, Y+2	; 0x02
     e22:	62 2f       	mov	r22, r18
     e24:	25 d0       	rcall	.+74     	; 0xe70 <_ZN21Adafruit_RGBLCDShield7commandEh>
     e26:	0f 90       	pop	r0
     e28:	0f 90       	pop	r0
     e2a:	df 91       	pop	r29
     e2c:	cf 91       	pop	r28
     e2e:	08 95       	ret

00000e30 <_ZN21Adafruit_RGBLCDShield6cursorEv>:
     e30:	cf 93       	push	r28
     e32:	df 93       	push	r29
     e34:	00 d0       	rcall	.+0      	; 0xe36 <_ZN21Adafruit_RGBLCDShield6cursorEv+0x6>
     e36:	cd b7       	in	r28, 0x3d	; 61
     e38:	de b7       	in	r29, 0x3e	; 62
     e3a:	9a 83       	std	Y+2, r25	; 0x02
     e3c:	89 83       	std	Y+1, r24	; 0x01
     e3e:	89 81       	ldd	r24, Y+1	; 0x01
     e40:	9a 81       	ldd	r25, Y+2	; 0x02
     e42:	fc 01       	movw	r30, r24
     e44:	85 89       	ldd	r24, Z+21	; 0x15
     e46:	28 2f       	mov	r18, r24
     e48:	22 60       	ori	r18, 0x02	; 2
     e4a:	89 81       	ldd	r24, Y+1	; 0x01
     e4c:	9a 81       	ldd	r25, Y+2	; 0x02
     e4e:	fc 01       	movw	r30, r24
     e50:	25 8b       	std	Z+21, r18	; 0x15
     e52:	89 81       	ldd	r24, Y+1	; 0x01
     e54:	9a 81       	ldd	r25, Y+2	; 0x02
     e56:	fc 01       	movw	r30, r24
     e58:	85 89       	ldd	r24, Z+21	; 0x15
     e5a:	28 2f       	mov	r18, r24
     e5c:	28 60       	ori	r18, 0x08	; 8
     e5e:	89 81       	ldd	r24, Y+1	; 0x01
     e60:	9a 81       	ldd	r25, Y+2	; 0x02
     e62:	62 2f       	mov	r22, r18
     e64:	05 d0       	rcall	.+10     	; 0xe70 <_ZN21Adafruit_RGBLCDShield7commandEh>
     e66:	0f 90       	pop	r0
     e68:	0f 90       	pop	r0
     e6a:	df 91       	pop	r29
     e6c:	cf 91       	pop	r28
     e6e:	08 95       	ret

00000e70 <_ZN21Adafruit_RGBLCDShield7commandEh>:

/*********** mid level commands, for sending data/cmds */

inline void Adafruit_RGBLCDShield::command(uint8_t value) {
     e70:	cf 93       	push	r28
     e72:	df 93       	push	r29
     e74:	00 d0       	rcall	.+0      	; 0xe76 <_ZN21Adafruit_RGBLCDShield7commandEh+0x6>
     e76:	1f 92       	push	r1
     e78:	cd b7       	in	r28, 0x3d	; 61
     e7a:	de b7       	in	r29, 0x3e	; 62
     e7c:	9a 83       	std	Y+2, r25	; 0x02
     e7e:	89 83       	std	Y+1, r24	; 0x01
     e80:	6b 83       	std	Y+3, r22	; 0x03
  send(value, LOW);
     e82:	89 81       	ldd	r24, Y+1	; 0x01
     e84:	9a 81       	ldd	r25, Y+2	; 0x02
     e86:	40 e0       	ldi	r20, 0x00	; 0
     e88:	6b 81       	ldd	r22, Y+3	; 0x03
     e8a:	9c d0       	rcall	.+312    	; 0xfc4 <_ZN21Adafruit_RGBLCDShield4sendEhh>
}
     e8c:	0f 90       	pop	r0
     e8e:	0f 90       	pop	r0
     e90:	0f 90       	pop	r0
     e92:	df 91       	pop	r29
     e94:	cf 91       	pop	r28
     e96:	08 95       	ret

00000e98 <_ZN21Adafruit_RGBLCDShield5writeEh>:

#if ARDUINO >= 100
inline size_t Adafruit_RGBLCDShield::write(uint8_t value) {
     e98:	cf 93       	push	r28
     e9a:	df 93       	push	r29
     e9c:	00 d0       	rcall	.+0      	; 0xe9e <_ZN21Adafruit_RGBLCDShield5writeEh+0x6>
     e9e:	1f 92       	push	r1
     ea0:	cd b7       	in	r28, 0x3d	; 61
     ea2:	de b7       	in	r29, 0x3e	; 62
     ea4:	9a 83       	std	Y+2, r25	; 0x02
     ea6:	89 83       	std	Y+1, r24	; 0x01
     ea8:	6b 83       	std	Y+3, r22	; 0x03
  send(value, HIGH);
     eaa:	89 81       	ldd	r24, Y+1	; 0x01
     eac:	9a 81       	ldd	r25, Y+2	; 0x02
     eae:	41 e0       	ldi	r20, 0x01	; 1
     eb0:	6b 81       	ldd	r22, Y+3	; 0x03
     eb2:	88 d0       	rcall	.+272    	; 0xfc4 <_ZN21Adafruit_RGBLCDShield4sendEhh>
  return 1;
     eb4:	81 e0       	ldi	r24, 0x01	; 1
     eb6:	90 e0       	ldi	r25, 0x00	; 0
}
     eb8:	0f 90       	pop	r0
     eba:	0f 90       	pop	r0
     ebc:	0f 90       	pop	r0
     ebe:	df 91       	pop	r29
     ec0:	cf 91       	pop	r28
     ec2:	08 95       	ret

00000ec4 <_ZN21Adafruit_RGBLCDShield13_digitalWriteEhh>:
#endif

/************ low level data pushing commands **********/

// little wrapper for i/o writes
void  Adafruit_RGBLCDShield::_digitalWrite(uint8_t p, uint8_t d) {
     ec4:	cf 93       	push	r28
     ec6:	df 93       	push	r29
     ec8:	00 d0       	rcall	.+0      	; 0xeca <_ZN21Adafruit_RGBLCDShield13_digitalWriteEhh+0x6>
     eca:	00 d0       	rcall	.+0      	; 0xecc <_ZN21Adafruit_RGBLCDShield13_digitalWriteEhh+0x8>
     ecc:	cd b7       	in	r28, 0x3d	; 61
     ece:	de b7       	in	r29, 0x3e	; 62
     ed0:	9a 83       	std	Y+2, r25	; 0x02
     ed2:	89 83       	std	Y+1, r24	; 0x01
     ed4:	6b 83       	std	Y+3, r22	; 0x03
     ed6:	4c 83       	std	Y+4, r20	; 0x04
  if (_i2cAddr != 255) {
     ed8:	89 81       	ldd	r24, Y+1	; 0x01
     eda:	9a 81       	ldd	r25, Y+2	; 0x02
     edc:	fc 01       	movw	r30, r24
     ede:	82 8d       	ldd	r24, Z+26	; 0x1a
     ee0:	8f 3f       	cpi	r24, 0xFF	; 255
     ee2:	39 f0       	breq	.+14     	; 0xef2 <_ZN21Adafruit_RGBLCDShield13_digitalWriteEhh+0x2e>
    // an i2c command
    _i2c.digitalWrite(p, d);
     ee4:	89 81       	ldd	r24, Y+1	; 0x01
     ee6:	9a 81       	ldd	r25, Y+2	; 0x02
     ee8:	4b 96       	adiw	r24, 0x1b	; 27
     eea:	4c 81       	ldd	r20, Y+4	; 0x04
     eec:	6b 81       	ldd	r22, Y+3	; 0x03
     eee:	f0 db       	rcall	.-2080   	; 0x6d0 <_ZN17Adafruit_MCP2301712digitalWriteEhh>
     ef0:	04 c0       	rjmp	.+8      	; 0xefa <_ZN21Adafruit_RGBLCDShield13_digitalWriteEhh+0x36>
  } else {
    // straightup IO
    digitalWrite(p, d);
     ef2:	6c 81       	ldd	r22, Y+4	; 0x04
     ef4:	8b 81       	ldd	r24, Y+3	; 0x03
     ef6:	0e 94 9d 2d 	call	0x5b3a	; 0x5b3a <digitalWrite>
  }
}
     efa:	0f 90       	pop	r0
     efc:	0f 90       	pop	r0
     efe:	0f 90       	pop	r0
     f00:	0f 90       	pop	r0
     f02:	df 91       	pop	r29
     f04:	cf 91       	pop	r28
     f06:	08 95       	ret

00000f08 <_ZN21Adafruit_RGBLCDShield12setBacklightEh>:

// Allows to set the backlight, if the LCD backpack is used
void Adafruit_RGBLCDShield::setBacklight(uint8_t status) {
     f08:	cf 93       	push	r28
     f0a:	df 93       	push	r29
     f0c:	00 d0       	rcall	.+0      	; 0xf0e <_ZN21Adafruit_RGBLCDShield12setBacklightEh+0x6>
     f0e:	1f 92       	push	r1
     f10:	cd b7       	in	r28, 0x3d	; 61
     f12:	de b7       	in	r29, 0x3e	; 62
     f14:	9a 83       	std	Y+2, r25	; 0x02
     f16:	89 83       	std	Y+1, r24	; 0x01
     f18:	6b 83       	std	Y+3, r22	; 0x03
  // check if i2c or SPI
  _i2c.digitalWrite(8, ~(status >> 2) & 0x1);
     f1a:	8b 81       	ldd	r24, Y+3	; 0x03
     f1c:	88 2f       	mov	r24, r24
     f1e:	90 e0       	ldi	r25, 0x00	; 0
     f20:	84 70       	andi	r24, 0x04	; 4
     f22:	99 27       	eor	r25, r25
     f24:	21 e0       	ldi	r18, 0x01	; 1
     f26:	00 97       	sbiw	r24, 0x00	; 0
     f28:	09 f0       	breq	.+2      	; 0xf2c <_ZN21Adafruit_RGBLCDShield12setBacklightEh+0x24>
     f2a:	20 e0       	ldi	r18, 0x00	; 0
     f2c:	89 81       	ldd	r24, Y+1	; 0x01
     f2e:	9a 81       	ldd	r25, Y+2	; 0x02
     f30:	4b 96       	adiw	r24, 0x1b	; 27
     f32:	42 2f       	mov	r20, r18
     f34:	68 e0       	ldi	r22, 0x08	; 8
     f36:	cc db       	rcall	.-2152   	; 0x6d0 <_ZN17Adafruit_MCP2301712digitalWriteEhh>
  _i2c.digitalWrite(7, ~(status >> 1) & 0x1);
     f38:	8b 81       	ldd	r24, Y+3	; 0x03
     f3a:	88 2f       	mov	r24, r24
     f3c:	90 e0       	ldi	r25, 0x00	; 0
     f3e:	82 70       	andi	r24, 0x02	; 2
     f40:	99 27       	eor	r25, r25
     f42:	21 e0       	ldi	r18, 0x01	; 1
     f44:	00 97       	sbiw	r24, 0x00	; 0
     f46:	09 f0       	breq	.+2      	; 0xf4a <_ZN21Adafruit_RGBLCDShield12setBacklightEh+0x42>
     f48:	20 e0       	ldi	r18, 0x00	; 0
     f4a:	89 81       	ldd	r24, Y+1	; 0x01
     f4c:	9a 81       	ldd	r25, Y+2	; 0x02
     f4e:	4b 96       	adiw	r24, 0x1b	; 27
     f50:	42 2f       	mov	r20, r18
     f52:	67 e0       	ldi	r22, 0x07	; 7
     f54:	bd db       	rcall	.-2182   	; 0x6d0 <_ZN17Adafruit_MCP2301712digitalWriteEhh>
  _i2c.digitalWrite(6, ~status & 0x1);
     f56:	8b 81       	ldd	r24, Y+3	; 0x03
     f58:	88 2f       	mov	r24, r24
     f5a:	90 e0       	ldi	r25, 0x00	; 0
     f5c:	81 70       	andi	r24, 0x01	; 1
     f5e:	99 27       	eor	r25, r25
     f60:	21 e0       	ldi	r18, 0x01	; 1
     f62:	00 97       	sbiw	r24, 0x00	; 0
     f64:	09 f0       	breq	.+2      	; 0xf68 <_ZN21Adafruit_RGBLCDShield12setBacklightEh+0x60>
     f66:	20 e0       	ldi	r18, 0x00	; 0
     f68:	89 81       	ldd	r24, Y+1	; 0x01
     f6a:	9a 81       	ldd	r25, Y+2	; 0x02
     f6c:	4b 96       	adiw	r24, 0x1b	; 27
     f6e:	42 2f       	mov	r20, r18
     f70:	66 e0       	ldi	r22, 0x06	; 6
     f72:	ae db       	rcall	.-2212   	; 0x6d0 <_ZN17Adafruit_MCP2301712digitalWriteEhh>
}
     f74:	0f 90       	pop	r0
     f76:	0f 90       	pop	r0
     f78:	0f 90       	pop	r0
     f7a:	df 91       	pop	r29
     f7c:	cf 91       	pop	r28
     f7e:	08 95       	ret

00000f80 <_ZN21Adafruit_RGBLCDShield8_pinModeEhh>:

// little wrapper for i/o directions
void  Adafruit_RGBLCDShield::_pinMode(uint8_t p, uint8_t d) {
     f80:	cf 93       	push	r28
     f82:	df 93       	push	r29
     f84:	00 d0       	rcall	.+0      	; 0xf86 <_ZN21Adafruit_RGBLCDShield8_pinModeEhh+0x6>
     f86:	00 d0       	rcall	.+0      	; 0xf88 <_ZN21Adafruit_RGBLCDShield8_pinModeEhh+0x8>
     f88:	cd b7       	in	r28, 0x3d	; 61
     f8a:	de b7       	in	r29, 0x3e	; 62
     f8c:	9a 83       	std	Y+2, r25	; 0x02
     f8e:	89 83       	std	Y+1, r24	; 0x01
     f90:	6b 83       	std	Y+3, r22	; 0x03
     f92:	4c 83       	std	Y+4, r20	; 0x04
  if (_i2cAddr != 255) {
     f94:	89 81       	ldd	r24, Y+1	; 0x01
     f96:	9a 81       	ldd	r25, Y+2	; 0x02
     f98:	fc 01       	movw	r30, r24
     f9a:	82 8d       	ldd	r24, Z+26	; 0x1a
     f9c:	8f 3f       	cpi	r24, 0xFF	; 255
     f9e:	39 f0       	breq	.+14     	; 0xfae <_ZN21Adafruit_RGBLCDShield8_pinModeEhh+0x2e>
    // an i2c command
    _i2c.pinMode(p, d);
     fa0:	89 81       	ldd	r24, Y+1	; 0x01
     fa2:	9a 81       	ldd	r25, Y+2	; 0x02
     fa4:	4b 96       	adiw	r24, 0x1b	; 27
     fa6:	4c 81       	ldd	r20, Y+4	; 0x04
     fa8:	6b 81       	ldd	r22, Y+3	; 0x03
     faa:	a3 da       	rcall	.-2746   	; 0x4f2 <_ZN17Adafruit_MCP230177pinModeEhh>
     fac:	04 c0       	rjmp	.+8      	; 0xfb6 <_ZN21Adafruit_RGBLCDShield8_pinModeEhh+0x36>
  } else {
    // straightup IO
    pinMode(p, d);
     fae:	6c 81       	ldd	r22, Y+4	; 0x04
     fb0:	8b 81       	ldd	r24, Y+3	; 0x03
     fb2:	0e 94 65 2d 	call	0x5aca	; 0x5aca <pinMode>
  }
}
     fb6:	0f 90       	pop	r0
     fb8:	0f 90       	pop	r0
     fba:	0f 90       	pop	r0
     fbc:	0f 90       	pop	r0
     fbe:	df 91       	pop	r29
     fc0:	cf 91       	pop	r28
     fc2:	08 95       	ret

00000fc4 <_ZN21Adafruit_RGBLCDShield4sendEhh>:

// write either command or data, with automatic 4/8-bit selection
void Adafruit_RGBLCDShield::send(uint8_t value, uint8_t mode) {
     fc4:	cf 93       	push	r28
     fc6:	df 93       	push	r29
     fc8:	00 d0       	rcall	.+0      	; 0xfca <_ZN21Adafruit_RGBLCDShield4sendEhh+0x6>
     fca:	00 d0       	rcall	.+0      	; 0xfcc <_ZN21Adafruit_RGBLCDShield4sendEhh+0x8>
     fcc:	cd b7       	in	r28, 0x3d	; 61
     fce:	de b7       	in	r29, 0x3e	; 62
     fd0:	9a 83       	std	Y+2, r25	; 0x02
     fd2:	89 83       	std	Y+1, r24	; 0x01
     fd4:	6b 83       	std	Y+3, r22	; 0x03
     fd6:	4c 83       	std	Y+4, r20	; 0x04
  _digitalWrite(_rs_pin, mode);
     fd8:	89 81       	ldd	r24, Y+1	; 0x01
     fda:	9a 81       	ldd	r25, Y+2	; 0x02
     fdc:	fc 01       	movw	r30, r24
     fde:	24 81       	ldd	r18, Z+4	; 0x04
     fe0:	89 81       	ldd	r24, Y+1	; 0x01
     fe2:	9a 81       	ldd	r25, Y+2	; 0x02
     fe4:	4c 81       	ldd	r20, Y+4	; 0x04
     fe6:	62 2f       	mov	r22, r18
     fe8:	6d df       	rcall	.-294    	; 0xec4 <_ZN21Adafruit_RGBLCDShield13_digitalWriteEhh>

  // if there is a RW pin indicated, set it low to Write
  if (_rw_pin != 255) { 
     fea:	89 81       	ldd	r24, Y+1	; 0x01
     fec:	9a 81       	ldd	r25, Y+2	; 0x02
     fee:	fc 01       	movw	r30, r24
     ff0:	85 81       	ldd	r24, Z+5	; 0x05
     ff2:	8f 3f       	cpi	r24, 0xFF	; 255
     ff4:	49 f0       	breq	.+18     	; 0x1008 <_ZN21Adafruit_RGBLCDShield4sendEhh+0x44>
    _digitalWrite(_rw_pin, LOW);
     ff6:	89 81       	ldd	r24, Y+1	; 0x01
     ff8:	9a 81       	ldd	r25, Y+2	; 0x02
     ffa:	fc 01       	movw	r30, r24
     ffc:	25 81       	ldd	r18, Z+5	; 0x05
     ffe:	89 81       	ldd	r24, Y+1	; 0x01
    1000:	9a 81       	ldd	r25, Y+2	; 0x02
    1002:	40 e0       	ldi	r20, 0x00	; 0
    1004:	62 2f       	mov	r22, r18
    1006:	5e df       	rcall	.-324    	; 0xec4 <_ZN21Adafruit_RGBLCDShield13_digitalWriteEhh>
  }
  
  if (_displayfunction & LCD_8BITMODE) {
    1008:	89 81       	ldd	r24, Y+1	; 0x01
    100a:	9a 81       	ldd	r25, Y+2	; 0x02
    100c:	fc 01       	movw	r30, r24
    100e:	84 89       	ldd	r24, Z+20	; 0x14
    1010:	88 2f       	mov	r24, r24
    1012:	90 e0       	ldi	r25, 0x00	; 0
    1014:	80 71       	andi	r24, 0x10	; 16
    1016:	99 27       	eor	r25, r25
    1018:	00 97       	sbiw	r24, 0x00	; 0
    101a:	29 f0       	breq	.+10     	; 0x1026 <_ZN21Adafruit_RGBLCDShield4sendEhh+0x62>
    write8bits(value); 
    101c:	89 81       	ldd	r24, Y+1	; 0x01
    101e:	9a 81       	ldd	r25, Y+2	; 0x02
    1020:	6b 81       	ldd	r22, Y+3	; 0x03
    1022:	53 d1       	rcall	.+678    	; 0x12ca <_ZN21Adafruit_RGBLCDShield10write8bitsEh>
    1024:	14 c0       	rjmp	.+40     	; 0x104e <_ZN21Adafruit_RGBLCDShield4sendEhh+0x8a>
  } else {
    write4bits(value>>4);
    1026:	8b 81       	ldd	r24, Y+3	; 0x03
    1028:	88 2f       	mov	r24, r24
    102a:	90 e0       	ldi	r25, 0x00	; 0
    102c:	95 95       	asr	r25
    102e:	87 95       	ror	r24
    1030:	95 95       	asr	r25
    1032:	87 95       	ror	r24
    1034:	95 95       	asr	r25
    1036:	87 95       	ror	r24
    1038:	95 95       	asr	r25
    103a:	87 95       	ror	r24
    103c:	28 2f       	mov	r18, r24
    103e:	89 81       	ldd	r24, Y+1	; 0x01
    1040:	9a 81       	ldd	r25, Y+2	; 0x02
    1042:	62 2f       	mov	r22, r18
    1044:	3e d0       	rcall	.+124    	; 0x10c2 <_ZN21Adafruit_RGBLCDShield10write4bitsEh>
    write4bits(value);
    1046:	89 81       	ldd	r24, Y+1	; 0x01
    1048:	9a 81       	ldd	r25, Y+2	; 0x02
    104a:	6b 81       	ldd	r22, Y+3	; 0x03
    104c:	3a d0       	rcall	.+116    	; 0x10c2 <_ZN21Adafruit_RGBLCDShield10write4bitsEh>
  }
}
    104e:	0f 90       	pop	r0
    1050:	0f 90       	pop	r0
    1052:	0f 90       	pop	r0
    1054:	0f 90       	pop	r0
    1056:	df 91       	pop	r29
    1058:	cf 91       	pop	r28
    105a:	08 95       	ret

0000105c <_ZN21Adafruit_RGBLCDShield11pulseEnableEv>:

void Adafruit_RGBLCDShield::pulseEnable(void) {
    105c:	cf 93       	push	r28
    105e:	df 93       	push	r29
    1060:	00 d0       	rcall	.+0      	; 0x1062 <_ZN21Adafruit_RGBLCDShield11pulseEnableEv+0x6>
    1062:	cd b7       	in	r28, 0x3d	; 61
    1064:	de b7       	in	r29, 0x3e	; 62
    1066:	9a 83       	std	Y+2, r25	; 0x02
    1068:	89 83       	std	Y+1, r24	; 0x01
  _digitalWrite(_enable_pin, LOW);
    106a:	89 81       	ldd	r24, Y+1	; 0x01
    106c:	9a 81       	ldd	r25, Y+2	; 0x02
    106e:	fc 01       	movw	r30, r24
    1070:	26 81       	ldd	r18, Z+6	; 0x06
    1072:	89 81       	ldd	r24, Y+1	; 0x01
    1074:	9a 81       	ldd	r25, Y+2	; 0x02
    1076:	40 e0       	ldi	r20, 0x00	; 0
    1078:	62 2f       	mov	r22, r18
    107a:	24 df       	rcall	.-440    	; 0xec4 <_ZN21Adafruit_RGBLCDShield13_digitalWriteEhh>
  delayMicroseconds(1);    
    107c:	81 e0       	ldi	r24, 0x01	; 1
    107e:	90 e0       	ldi	r25, 0x00	; 0
    1080:	0e 94 f6 2c 	call	0x59ec	; 0x59ec <delayMicroseconds>
  _digitalWrite(_enable_pin, HIGH);
    1084:	89 81       	ldd	r24, Y+1	; 0x01
    1086:	9a 81       	ldd	r25, Y+2	; 0x02
    1088:	fc 01       	movw	r30, r24
    108a:	26 81       	ldd	r18, Z+6	; 0x06
    108c:	89 81       	ldd	r24, Y+1	; 0x01
    108e:	9a 81       	ldd	r25, Y+2	; 0x02
    1090:	41 e0       	ldi	r20, 0x01	; 1
    1092:	62 2f       	mov	r22, r18
    1094:	17 df       	rcall	.-466    	; 0xec4 <_ZN21Adafruit_RGBLCDShield13_digitalWriteEhh>
  delayMicroseconds(1);    // enable pulse must be >450ns
    1096:	81 e0       	ldi	r24, 0x01	; 1
    1098:	90 e0       	ldi	r25, 0x00	; 0
    109a:	0e 94 f6 2c 	call	0x59ec	; 0x59ec <delayMicroseconds>
  _digitalWrite(_enable_pin, LOW);
    109e:	89 81       	ldd	r24, Y+1	; 0x01
    10a0:	9a 81       	ldd	r25, Y+2	; 0x02
    10a2:	fc 01       	movw	r30, r24
    10a4:	26 81       	ldd	r18, Z+6	; 0x06
    10a6:	89 81       	ldd	r24, Y+1	; 0x01
    10a8:	9a 81       	ldd	r25, Y+2	; 0x02
    10aa:	40 e0       	ldi	r20, 0x00	; 0
    10ac:	62 2f       	mov	r22, r18
    10ae:	0a df       	rcall	.-492    	; 0xec4 <_ZN21Adafruit_RGBLCDShield13_digitalWriteEhh>
  delayMicroseconds(100);   // commands need > 37us to settle
    10b0:	84 e6       	ldi	r24, 0x64	; 100
    10b2:	90 e0       	ldi	r25, 0x00	; 0
    10b4:	0e 94 f6 2c 	call	0x59ec	; 0x59ec <delayMicroseconds>
}
    10b8:	0f 90       	pop	r0
    10ba:	0f 90       	pop	r0
    10bc:	df 91       	pop	r29
    10be:	cf 91       	pop	r28
    10c0:	08 95       	ret

000010c2 <_ZN21Adafruit_RGBLCDShield10write4bitsEh>:

void Adafruit_RGBLCDShield::write4bits(uint8_t value) {
    10c2:	cf 93       	push	r28
    10c4:	df 93       	push	r29
    10c6:	cd b7       	in	r28, 0x3d	; 61
    10c8:	de b7       	in	r29, 0x3e	; 62
    10ca:	29 97       	sbiw	r28, 0x09	; 9
    10cc:	0f b6       	in	r0, 0x3f	; 63
    10ce:	f8 94       	cli
    10d0:	de bf       	out	0x3e, r29	; 62
    10d2:	0f be       	out	0x3f, r0	; 63
    10d4:	cd bf       	out	0x3d, r28	; 61
    10d6:	98 87       	std	Y+8, r25	; 0x08
    10d8:	8f 83       	std	Y+7, r24	; 0x07
    10da:	69 87       	std	Y+9, r22	; 0x09
  if (_i2cAddr != 255) {
    10dc:	8f 81       	ldd	r24, Y+7	; 0x07
    10de:	98 85       	ldd	r25, Y+8	; 0x08
    10e0:	fc 01       	movw	r30, r24
    10e2:	82 8d       	ldd	r24, Z+26	; 0x1a
    10e4:	8f 3f       	cpi	r24, 0xFF	; 255
    10e6:	09 f4       	brne	.+2      	; 0x10ea <_ZN21Adafruit_RGBLCDShield10write4bitsEh+0x28>
    10e8:	b1 c0       	rjmp	.+354    	; 0x124c <_ZN21Adafruit_RGBLCDShield10write4bitsEh+0x18a>
    uint16_t out = 0;
    10ea:	1a 82       	std	Y+2, r1	; 0x02
    10ec:	19 82       	std	Y+1, r1	; 0x01

    out = _i2c.readGPIOAB();
    10ee:	8f 81       	ldd	r24, Y+7	; 0x07
    10f0:	98 85       	ldd	r25, Y+8	; 0x08
    10f2:	4b 96       	adiw	r24, 0x1b	; 27
    10f4:	78 da       	rcall	.-2832   	; 0x5e6 <_ZN17Adafruit_MCP2301710readGPIOABEv>
    10f6:	9a 83       	std	Y+2, r25	; 0x02
    10f8:	89 83       	std	Y+1, r24	; 0x01

    // speed up for i2c since its sluggish
    for (int i = 0; i < 4; i++) {
    10fa:	1c 82       	std	Y+4, r1	; 0x04
    10fc:	1b 82       	std	Y+3, r1	; 0x03
    10fe:	41 c0       	rjmp	.+130    	; 0x1182 <_ZN21Adafruit_RGBLCDShield10write4bitsEh+0xc0>
      out &= ~(1 << _data_pins[i]);
    1100:	2f 81       	ldd	r18, Y+7	; 0x07
    1102:	38 85       	ldd	r19, Y+8	; 0x08
    1104:	8b 81       	ldd	r24, Y+3	; 0x03
    1106:	9c 81       	ldd	r25, Y+4	; 0x04
    1108:	82 0f       	add	r24, r18
    110a:	93 1f       	adc	r25, r19
    110c:	07 96       	adiw	r24, 0x07	; 7
    110e:	fc 01       	movw	r30, r24
    1110:	80 81       	ld	r24, Z
    1112:	28 2f       	mov	r18, r24
    1114:	30 e0       	ldi	r19, 0x00	; 0
    1116:	81 e0       	ldi	r24, 0x01	; 1
    1118:	90 e0       	ldi	r25, 0x00	; 0
    111a:	02 c0       	rjmp	.+4      	; 0x1120 <_ZN21Adafruit_RGBLCDShield10write4bitsEh+0x5e>
    111c:	88 0f       	add	r24, r24
    111e:	99 1f       	adc	r25, r25
    1120:	2a 95       	dec	r18
    1122:	e2 f7       	brpl	.-8      	; 0x111c <_ZN21Adafruit_RGBLCDShield10write4bitsEh+0x5a>
    1124:	80 95       	com	r24
    1126:	90 95       	com	r25
    1128:	29 81       	ldd	r18, Y+1	; 0x01
    112a:	3a 81       	ldd	r19, Y+2	; 0x02
    112c:	82 23       	and	r24, r18
    112e:	93 23       	and	r25, r19
    1130:	9a 83       	std	Y+2, r25	; 0x02
    1132:	89 83       	std	Y+1, r24	; 0x01
      out |= ((value >> i) & 0x1) << _data_pins[i];
    1134:	89 85       	ldd	r24, Y+9	; 0x09
    1136:	88 2f       	mov	r24, r24
    1138:	90 e0       	ldi	r25, 0x00	; 0
    113a:	0b 80       	ldd	r0, Y+3	; 0x03
    113c:	02 c0       	rjmp	.+4      	; 0x1142 <_ZN21Adafruit_RGBLCDShield10write4bitsEh+0x80>
    113e:	95 95       	asr	r25
    1140:	87 95       	ror	r24
    1142:	0a 94       	dec	r0
    1144:	e2 f7       	brpl	.-8      	; 0x113e <_ZN21Adafruit_RGBLCDShield10write4bitsEh+0x7c>
    1146:	81 70       	andi	r24, 0x01	; 1
    1148:	99 27       	eor	r25, r25
    114a:	4f 81       	ldd	r20, Y+7	; 0x07
    114c:	58 85       	ldd	r21, Y+8	; 0x08
    114e:	2b 81       	ldd	r18, Y+3	; 0x03
    1150:	3c 81       	ldd	r19, Y+4	; 0x04
    1152:	24 0f       	add	r18, r20
    1154:	35 1f       	adc	r19, r21
    1156:	29 5f       	subi	r18, 0xF9	; 249
    1158:	3f 4f       	sbci	r19, 0xFF	; 255
    115a:	f9 01       	movw	r30, r18
    115c:	20 81       	ld	r18, Z
    115e:	22 2f       	mov	r18, r18
    1160:	30 e0       	ldi	r19, 0x00	; 0
    1162:	02 c0       	rjmp	.+4      	; 0x1168 <_ZN21Adafruit_RGBLCDShield10write4bitsEh+0xa6>
    1164:	88 0f       	add	r24, r24
    1166:	99 1f       	adc	r25, r25
    1168:	2a 95       	dec	r18
    116a:	e2 f7       	brpl	.-8      	; 0x1164 <_ZN21Adafruit_RGBLCDShield10write4bitsEh+0xa2>
    116c:	29 81       	ldd	r18, Y+1	; 0x01
    116e:	3a 81       	ldd	r19, Y+2	; 0x02
    1170:	82 2b       	or	r24, r18
    1172:	93 2b       	or	r25, r19
    1174:	9a 83       	std	Y+2, r25	; 0x02
    1176:	89 83       	std	Y+1, r24	; 0x01
    uint16_t out = 0;

    out = _i2c.readGPIOAB();

    // speed up for i2c since its sluggish
    for (int i = 0; i < 4; i++) {
    1178:	8b 81       	ldd	r24, Y+3	; 0x03
    117a:	9c 81       	ldd	r25, Y+4	; 0x04
    117c:	01 96       	adiw	r24, 0x01	; 1
    117e:	9c 83       	std	Y+4, r25	; 0x04
    1180:	8b 83       	std	Y+3, r24	; 0x03
    1182:	8b 81       	ldd	r24, Y+3	; 0x03
    1184:	9c 81       	ldd	r25, Y+4	; 0x04
    1186:	84 30       	cpi	r24, 0x04	; 4
    1188:	91 05       	cpc	r25, r1
    118a:	0c f4       	brge	.+2      	; 0x118e <_ZN21Adafruit_RGBLCDShield10write4bitsEh+0xcc>
    118c:	b9 cf       	rjmp	.-142    	; 0x1100 <_ZN21Adafruit_RGBLCDShield10write4bitsEh+0x3e>
      out &= ~(1 << _data_pins[i]);
      out |= ((value >> i) & 0x1) << _data_pins[i];
    }

    // make sure enable is low
    out &= ~(1 << _enable_pin);
    118e:	8f 81       	ldd	r24, Y+7	; 0x07
    1190:	98 85       	ldd	r25, Y+8	; 0x08
    1192:	fc 01       	movw	r30, r24
    1194:	86 81       	ldd	r24, Z+6	; 0x06
    1196:	28 2f       	mov	r18, r24
    1198:	30 e0       	ldi	r19, 0x00	; 0
    119a:	81 e0       	ldi	r24, 0x01	; 1
    119c:	90 e0       	ldi	r25, 0x00	; 0
    119e:	02 c0       	rjmp	.+4      	; 0x11a4 <_ZN21Adafruit_RGBLCDShield10write4bitsEh+0xe2>
    11a0:	88 0f       	add	r24, r24
    11a2:	99 1f       	adc	r25, r25
    11a4:	2a 95       	dec	r18
    11a6:	e2 f7       	brpl	.-8      	; 0x11a0 <_ZN21Adafruit_RGBLCDShield10write4bitsEh+0xde>
    11a8:	80 95       	com	r24
    11aa:	90 95       	com	r25
    11ac:	29 81       	ldd	r18, Y+1	; 0x01
    11ae:	3a 81       	ldd	r19, Y+2	; 0x02
    11b0:	82 23       	and	r24, r18
    11b2:	93 23       	and	r25, r19
    11b4:	9a 83       	std	Y+2, r25	; 0x02
    11b6:	89 83       	std	Y+1, r24	; 0x01

    _i2c.writeGPIOAB(out);
    11b8:	8f 81       	ldd	r24, Y+7	; 0x07
    11ba:	98 85       	ldd	r25, Y+8	; 0x08
    11bc:	4b 96       	adiw	r24, 0x1b	; 27
    11be:	29 81       	ldd	r18, Y+1	; 0x01
    11c0:	3a 81       	ldd	r19, Y+2	; 0x02
    11c2:	b9 01       	movw	r22, r18
    11c4:	5b da       	rcall	.-2890   	; 0x67c <_ZN17Adafruit_MCP2301711writeGPIOABEj>

    // pulse enable
    delayMicroseconds(1);
    11c6:	81 e0       	ldi	r24, 0x01	; 1
    11c8:	90 e0       	ldi	r25, 0x00	; 0
    11ca:	0e 94 f6 2c 	call	0x59ec	; 0x59ec <delayMicroseconds>
    out |= (1 << _enable_pin);
    11ce:	8f 81       	ldd	r24, Y+7	; 0x07
    11d0:	98 85       	ldd	r25, Y+8	; 0x08
    11d2:	fc 01       	movw	r30, r24
    11d4:	86 81       	ldd	r24, Z+6	; 0x06
    11d6:	28 2f       	mov	r18, r24
    11d8:	30 e0       	ldi	r19, 0x00	; 0
    11da:	81 e0       	ldi	r24, 0x01	; 1
    11dc:	90 e0       	ldi	r25, 0x00	; 0
    11de:	02 c0       	rjmp	.+4      	; 0x11e4 <_ZN21Adafruit_RGBLCDShield10write4bitsEh+0x122>
    11e0:	88 0f       	add	r24, r24
    11e2:	99 1f       	adc	r25, r25
    11e4:	2a 95       	dec	r18
    11e6:	e2 f7       	brpl	.-8      	; 0x11e0 <_ZN21Adafruit_RGBLCDShield10write4bitsEh+0x11e>
    11e8:	29 81       	ldd	r18, Y+1	; 0x01
    11ea:	3a 81       	ldd	r19, Y+2	; 0x02
    11ec:	82 2b       	or	r24, r18
    11ee:	93 2b       	or	r25, r19
    11f0:	9a 83       	std	Y+2, r25	; 0x02
    11f2:	89 83       	std	Y+1, r24	; 0x01
    _i2c.writeGPIOAB(out);
    11f4:	8f 81       	ldd	r24, Y+7	; 0x07
    11f6:	98 85       	ldd	r25, Y+8	; 0x08
    11f8:	4b 96       	adiw	r24, 0x1b	; 27
    11fa:	29 81       	ldd	r18, Y+1	; 0x01
    11fc:	3a 81       	ldd	r19, Y+2	; 0x02
    11fe:	b9 01       	movw	r22, r18
    1200:	3d da       	rcall	.-2950   	; 0x67c <_ZN17Adafruit_MCP2301711writeGPIOABEj>
    delayMicroseconds(1);
    1202:	81 e0       	ldi	r24, 0x01	; 1
    1204:	90 e0       	ldi	r25, 0x00	; 0
    1206:	0e 94 f6 2c 	call	0x59ec	; 0x59ec <delayMicroseconds>
    out &= ~(1 << _enable_pin);
    120a:	8f 81       	ldd	r24, Y+7	; 0x07
    120c:	98 85       	ldd	r25, Y+8	; 0x08
    120e:	fc 01       	movw	r30, r24
    1210:	86 81       	ldd	r24, Z+6	; 0x06
    1212:	28 2f       	mov	r18, r24
    1214:	30 e0       	ldi	r19, 0x00	; 0
    1216:	81 e0       	ldi	r24, 0x01	; 1
    1218:	90 e0       	ldi	r25, 0x00	; 0
    121a:	02 c0       	rjmp	.+4      	; 0x1220 <_ZN21Adafruit_RGBLCDShield10write4bitsEh+0x15e>
    121c:	88 0f       	add	r24, r24
    121e:	99 1f       	adc	r25, r25
    1220:	2a 95       	dec	r18
    1222:	e2 f7       	brpl	.-8      	; 0x121c <_ZN21Adafruit_RGBLCDShield10write4bitsEh+0x15a>
    1224:	80 95       	com	r24
    1226:	90 95       	com	r25
    1228:	29 81       	ldd	r18, Y+1	; 0x01
    122a:	3a 81       	ldd	r19, Y+2	; 0x02
    122c:	82 23       	and	r24, r18
    122e:	93 23       	and	r25, r19
    1230:	9a 83       	std	Y+2, r25	; 0x02
    1232:	89 83       	std	Y+1, r24	; 0x01
    _i2c.writeGPIOAB(out);   
    1234:	8f 81       	ldd	r24, Y+7	; 0x07
    1236:	98 85       	ldd	r25, Y+8	; 0x08
    1238:	4b 96       	adiw	r24, 0x1b	; 27
    123a:	29 81       	ldd	r18, Y+1	; 0x01
    123c:	3a 81       	ldd	r19, Y+2	; 0x02
    123e:	b9 01       	movw	r22, r18
    1240:	1d da       	rcall	.-3014   	; 0x67c <_ZN17Adafruit_MCP2301711writeGPIOABEj>
    delayMicroseconds(100);
    1242:	84 e6       	ldi	r24, 0x64	; 100
    1244:	90 e0       	ldi	r25, 0x00	; 0
    1246:	0e 94 f6 2c 	call	0x59ec	; 0x59ec <delayMicroseconds>
    124a:	36 c0       	rjmp	.+108    	; 0x12b8 <_ZN21Adafruit_RGBLCDShield10write4bitsEh+0x1f6>

  } else {
    for (int i = 0; i < 4; i++) {
    124c:	1e 82       	std	Y+6, r1	; 0x06
    124e:	1d 82       	std	Y+5, r1	; 0x05
    1250:	2b c0       	rjmp	.+86     	; 0x12a8 <_ZN21Adafruit_RGBLCDShield10write4bitsEh+0x1e6>
     _pinMode(_data_pins[i], OUTPUT);
    1252:	2f 81       	ldd	r18, Y+7	; 0x07
    1254:	38 85       	ldd	r19, Y+8	; 0x08
    1256:	8d 81       	ldd	r24, Y+5	; 0x05
    1258:	9e 81       	ldd	r25, Y+6	; 0x06
    125a:	82 0f       	add	r24, r18
    125c:	93 1f       	adc	r25, r19
    125e:	07 96       	adiw	r24, 0x07	; 7
    1260:	fc 01       	movw	r30, r24
    1262:	20 81       	ld	r18, Z
    1264:	8f 81       	ldd	r24, Y+7	; 0x07
    1266:	98 85       	ldd	r25, Y+8	; 0x08
    1268:	41 e0       	ldi	r20, 0x01	; 1
    126a:	62 2f       	mov	r22, r18
    126c:	89 de       	rcall	.-750    	; 0xf80 <_ZN21Adafruit_RGBLCDShield8_pinModeEhh>
     _digitalWrite(_data_pins[i], (value >> i) & 0x01);
    126e:	89 85       	ldd	r24, Y+9	; 0x09
    1270:	88 2f       	mov	r24, r24
    1272:	90 e0       	ldi	r25, 0x00	; 0
    1274:	0d 80       	ldd	r0, Y+5	; 0x05
    1276:	02 c0       	rjmp	.+4      	; 0x127c <_ZN21Adafruit_RGBLCDShield10write4bitsEh+0x1ba>
    1278:	95 95       	asr	r25
    127a:	87 95       	ror	r24
    127c:	0a 94       	dec	r0
    127e:	e2 f7       	brpl	.-8      	; 0x1278 <_ZN21Adafruit_RGBLCDShield10write4bitsEh+0x1b6>
    1280:	48 2f       	mov	r20, r24
    1282:	41 70       	andi	r20, 0x01	; 1
    1284:	2f 81       	ldd	r18, Y+7	; 0x07
    1286:	38 85       	ldd	r19, Y+8	; 0x08
    1288:	8d 81       	ldd	r24, Y+5	; 0x05
    128a:	9e 81       	ldd	r25, Y+6	; 0x06
    128c:	82 0f       	add	r24, r18
    128e:	93 1f       	adc	r25, r19
    1290:	07 96       	adiw	r24, 0x07	; 7
    1292:	fc 01       	movw	r30, r24
    1294:	20 81       	ld	r18, Z
    1296:	8f 81       	ldd	r24, Y+7	; 0x07
    1298:	98 85       	ldd	r25, Y+8	; 0x08
    129a:	62 2f       	mov	r22, r18
    129c:	13 de       	rcall	.-986    	; 0xec4 <_ZN21Adafruit_RGBLCDShield13_digitalWriteEhh>
    out &= ~(1 << _enable_pin);
    _i2c.writeGPIOAB(out);   
    delayMicroseconds(100);

  } else {
    for (int i = 0; i < 4; i++) {
    129e:	8d 81       	ldd	r24, Y+5	; 0x05
    12a0:	9e 81       	ldd	r25, Y+6	; 0x06
    12a2:	01 96       	adiw	r24, 0x01	; 1
    12a4:	9e 83       	std	Y+6, r25	; 0x06
    12a6:	8d 83       	std	Y+5, r24	; 0x05
    12a8:	8d 81       	ldd	r24, Y+5	; 0x05
    12aa:	9e 81       	ldd	r25, Y+6	; 0x06
    12ac:	84 30       	cpi	r24, 0x04	; 4
    12ae:	91 05       	cpc	r25, r1
    12b0:	84 f2       	brlt	.-96     	; 0x1252 <_ZN21Adafruit_RGBLCDShield10write4bitsEh+0x190>
     _pinMode(_data_pins[i], OUTPUT);
     _digitalWrite(_data_pins[i], (value >> i) & 0x01);
    }
    pulseEnable();
    12b2:	8f 81       	ldd	r24, Y+7	; 0x07
    12b4:	98 85       	ldd	r25, Y+8	; 0x08
    12b6:	d2 de       	rcall	.-604    	; 0x105c <_ZN21Adafruit_RGBLCDShield11pulseEnableEv>
  }
}
    12b8:	29 96       	adiw	r28, 0x09	; 9
    12ba:	0f b6       	in	r0, 0x3f	; 63
    12bc:	f8 94       	cli
    12be:	de bf       	out	0x3e, r29	; 62
    12c0:	0f be       	out	0x3f, r0	; 63
    12c2:	cd bf       	out	0x3d, r28	; 61
    12c4:	df 91       	pop	r29
    12c6:	cf 91       	pop	r28
    12c8:	08 95       	ret

000012ca <_ZN21Adafruit_RGBLCDShield10write8bitsEh>:

void Adafruit_RGBLCDShield::write8bits(uint8_t value) {
    12ca:	cf 93       	push	r28
    12cc:	df 93       	push	r29
    12ce:	00 d0       	rcall	.+0      	; 0x12d0 <_ZN21Adafruit_RGBLCDShield10write8bitsEh+0x6>
    12d0:	00 d0       	rcall	.+0      	; 0x12d2 <_ZN21Adafruit_RGBLCDShield10write8bitsEh+0x8>
    12d2:	1f 92       	push	r1
    12d4:	cd b7       	in	r28, 0x3d	; 61
    12d6:	de b7       	in	r29, 0x3e	; 62
    12d8:	9c 83       	std	Y+4, r25	; 0x04
    12da:	8b 83       	std	Y+3, r24	; 0x03
    12dc:	6d 83       	std	Y+5, r22	; 0x05
  for (int i = 0; i < 8; i++) {
    12de:	1a 82       	std	Y+2, r1	; 0x02
    12e0:	19 82       	std	Y+1, r1	; 0x01
    12e2:	2b c0       	rjmp	.+86     	; 0x133a <_ZN21Adafruit_RGBLCDShield10write8bitsEh+0x70>
    _pinMode(_data_pins[i], OUTPUT);
    12e4:	2b 81       	ldd	r18, Y+3	; 0x03
    12e6:	3c 81       	ldd	r19, Y+4	; 0x04
    12e8:	89 81       	ldd	r24, Y+1	; 0x01
    12ea:	9a 81       	ldd	r25, Y+2	; 0x02
    12ec:	82 0f       	add	r24, r18
    12ee:	93 1f       	adc	r25, r19
    12f0:	07 96       	adiw	r24, 0x07	; 7
    12f2:	fc 01       	movw	r30, r24
    12f4:	20 81       	ld	r18, Z
    12f6:	8b 81       	ldd	r24, Y+3	; 0x03
    12f8:	9c 81       	ldd	r25, Y+4	; 0x04
    12fa:	41 e0       	ldi	r20, 0x01	; 1
    12fc:	62 2f       	mov	r22, r18
    12fe:	40 de       	rcall	.-896    	; 0xf80 <_ZN21Adafruit_RGBLCDShield8_pinModeEhh>
    _digitalWrite(_data_pins[i], (value >> i) & 0x01);
    1300:	8d 81       	ldd	r24, Y+5	; 0x05
    1302:	88 2f       	mov	r24, r24
    1304:	90 e0       	ldi	r25, 0x00	; 0
    1306:	09 80       	ldd	r0, Y+1	; 0x01
    1308:	02 c0       	rjmp	.+4      	; 0x130e <_ZN21Adafruit_RGBLCDShield10write8bitsEh+0x44>
    130a:	95 95       	asr	r25
    130c:	87 95       	ror	r24
    130e:	0a 94       	dec	r0
    1310:	e2 f7       	brpl	.-8      	; 0x130a <_ZN21Adafruit_RGBLCDShield10write8bitsEh+0x40>
    1312:	48 2f       	mov	r20, r24
    1314:	41 70       	andi	r20, 0x01	; 1
    1316:	2b 81       	ldd	r18, Y+3	; 0x03
    1318:	3c 81       	ldd	r19, Y+4	; 0x04
    131a:	89 81       	ldd	r24, Y+1	; 0x01
    131c:	9a 81       	ldd	r25, Y+2	; 0x02
    131e:	82 0f       	add	r24, r18
    1320:	93 1f       	adc	r25, r19
    1322:	07 96       	adiw	r24, 0x07	; 7
    1324:	fc 01       	movw	r30, r24
    1326:	20 81       	ld	r18, Z
    1328:	8b 81       	ldd	r24, Y+3	; 0x03
    132a:	9c 81       	ldd	r25, Y+4	; 0x04
    132c:	62 2f       	mov	r22, r18
    132e:	ca dd       	rcall	.-1132   	; 0xec4 <_ZN21Adafruit_RGBLCDShield13_digitalWriteEhh>
    pulseEnable();
  }
}

void Adafruit_RGBLCDShield::write8bits(uint8_t value) {
  for (int i = 0; i < 8; i++) {
    1330:	89 81       	ldd	r24, Y+1	; 0x01
    1332:	9a 81       	ldd	r25, Y+2	; 0x02
    1334:	01 96       	adiw	r24, 0x01	; 1
    1336:	9a 83       	std	Y+2, r25	; 0x02
    1338:	89 83       	std	Y+1, r24	; 0x01
    133a:	89 81       	ldd	r24, Y+1	; 0x01
    133c:	9a 81       	ldd	r25, Y+2	; 0x02
    133e:	88 30       	cpi	r24, 0x08	; 8
    1340:	91 05       	cpc	r25, r1
    1342:	84 f2       	brlt	.-96     	; 0x12e4 <_ZN21Adafruit_RGBLCDShield10write8bitsEh+0x1a>
    _pinMode(_data_pins[i], OUTPUT);
    _digitalWrite(_data_pins[i], (value >> i) & 0x01);
  }
  
  pulseEnable();
    1344:	8b 81       	ldd	r24, Y+3	; 0x03
    1346:	9c 81       	ldd	r25, Y+4	; 0x04
    1348:	89 de       	rcall	.-750    	; 0x105c <_ZN21Adafruit_RGBLCDShield11pulseEnableEv>
}
    134a:	0f 90       	pop	r0
    134c:	0f 90       	pop	r0
    134e:	0f 90       	pop	r0
    1350:	0f 90       	pop	r0
    1352:	0f 90       	pop	r0
    1354:	df 91       	pop	r29
    1356:	cf 91       	pop	r28
    1358:	08 95       	ret

0000135a <_ZN21Adafruit_RGBLCDShield11readButtonsEv>:

uint8_t Adafruit_RGBLCDShield::readButtons(void) {
    135a:	cf 93       	push	r28
    135c:	df 93       	push	r29
    135e:	00 d0       	rcall	.+0      	; 0x1360 <_ZN21Adafruit_RGBLCDShield11readButtonsEv+0x6>
    1360:	00 d0       	rcall	.+0      	; 0x1362 <_ZN21Adafruit_RGBLCDShield11readButtonsEv+0x8>
    1362:	cd b7       	in	r28, 0x3d	; 61
    1364:	de b7       	in	r29, 0x3e	; 62
    1366:	9c 83       	std	Y+4, r25	; 0x04
    1368:	8b 83       	std	Y+3, r24	; 0x03
  uint8_t reply = 0x1F;
    136a:	8f e1       	ldi	r24, 0x1F	; 31
    136c:	89 83       	std	Y+1, r24	; 0x01

  for (uint8_t i=0; i<5; i++) {
    136e:	1a 82       	std	Y+2, r1	; 0x02
    1370:	24 c0       	rjmp	.+72     	; 0x13ba <_ZN21Adafruit_RGBLCDShield11readButtonsEv+0x60>
    reply &= ~((_i2c.digitalRead(_button_pins[i])) << i);
    1372:	8a 81       	ldd	r24, Y+2	; 0x02
    1374:	88 2f       	mov	r24, r24
    1376:	90 e0       	ldi	r25, 0x00	; 0
    1378:	2b 81       	ldd	r18, Y+3	; 0x03
    137a:	3c 81       	ldd	r19, Y+4	; 0x04
    137c:	82 0f       	add	r24, r18
    137e:	93 1f       	adc	r25, r19
    1380:	0f 96       	adiw	r24, 0x0f	; 15
    1382:	fc 01       	movw	r30, r24
    1384:	20 81       	ld	r18, Z
    1386:	8b 81       	ldd	r24, Y+3	; 0x03
    1388:	9c 81       	ldd	r25, Y+4	; 0x04
    138a:	4b 96       	adiw	r24, 0x1b	; 27
    138c:	62 2f       	mov	r22, r18
    138e:	9d da       	rcall	.-2758   	; 0x8ca <_ZN17Adafruit_MCP2301711digitalReadEh>
    1390:	88 2f       	mov	r24, r24
    1392:	90 e0       	ldi	r25, 0x00	; 0
    1394:	2a 81       	ldd	r18, Y+2	; 0x02
    1396:	22 2f       	mov	r18, r18
    1398:	30 e0       	ldi	r19, 0x00	; 0
    139a:	02 c0       	rjmp	.+4      	; 0x13a0 <_ZN21Adafruit_RGBLCDShield11readButtonsEv+0x46>
    139c:	88 0f       	add	r24, r24
    139e:	99 1f       	adc	r25, r25
    13a0:	2a 95       	dec	r18
    13a2:	e2 f7       	brpl	.-8      	; 0x139c <_ZN21Adafruit_RGBLCDShield11readButtonsEv+0x42>
    13a4:	80 95       	com	r24
    13a6:	90 95       	com	r25
    13a8:	29 81       	ldd	r18, Y+1	; 0x01
    13aa:	22 2f       	mov	r18, r18
    13ac:	30 e0       	ldi	r19, 0x00	; 0
    13ae:	82 23       	and	r24, r18
    13b0:	93 23       	and	r25, r19
    13b2:	89 83       	std	Y+1, r24	; 0x01
}

uint8_t Adafruit_RGBLCDShield::readButtons(void) {
  uint8_t reply = 0x1F;

  for (uint8_t i=0; i<5; i++) {
    13b4:	8a 81       	ldd	r24, Y+2	; 0x02
    13b6:	8f 5f       	subi	r24, 0xFF	; 255
    13b8:	8a 83       	std	Y+2, r24	; 0x02
    13ba:	8a 81       	ldd	r24, Y+2	; 0x02
    13bc:	85 30       	cpi	r24, 0x05	; 5
    13be:	c8 f2       	brcs	.-78     	; 0x1372 <_ZN21Adafruit_RGBLCDShield11readButtonsEv+0x18>
    reply &= ~((_i2c.digitalRead(_button_pins[i])) << i);
  }
  return reply;
    13c0:	89 81       	ldd	r24, Y+1	; 0x01
}
    13c2:	0f 90       	pop	r0
    13c4:	0f 90       	pop	r0
    13c6:	0f 90       	pop	r0
    13c8:	0f 90       	pop	r0
    13ca:	df 91       	pop	r29
    13cc:	cf 91       	pop	r28
    13ce:	08 95       	ret

000013d0 <_ZN3MsgC1E7MsgType7MsgCode>:

// Returns true if the button is pressed.
bool Button::isPressed() const
{
    return m_logicState == m_activeState;
}
    13d0:	cf 93       	push	r28
    13d2:	df 93       	push	r29
    13d4:	00 d0       	rcall	.+0      	; 0x13d6 <_ZN3MsgC1E7MsgType7MsgCode+0x6>
    13d6:	00 d0       	rcall	.+0      	; 0x13d8 <_ZN3MsgC1E7MsgType7MsgCode+0x8>
    13d8:	1f 92       	push	r1
    13da:	cd b7       	in	r28, 0x3d	; 61
    13dc:	de b7       	in	r29, 0x3e	; 62
    13de:	9a 83       	std	Y+2, r25	; 0x02
    13e0:	89 83       	std	Y+1, r24	; 0x01
    13e2:	7c 83       	std	Y+4, r23	; 0x04
    13e4:	6b 83       	std	Y+3, r22	; 0x03
    13e6:	4d 83       	std	Y+5, r20	; 0x05
    13e8:	89 81       	ldd	r24, Y+1	; 0x01
    13ea:	9a 81       	ldd	r25, Y+2	; 0x02
    13ec:	2b 81       	ldd	r18, Y+3	; 0x03
    13ee:	3c 81       	ldd	r19, Y+4	; 0x04
    13f0:	fc 01       	movw	r30, r24
    13f2:	31 83       	std	Z+1, r19	; 0x01
    13f4:	20 83       	st	Z, r18
    13f6:	89 81       	ldd	r24, Y+1	; 0x01
    13f8:	9a 81       	ldd	r25, Y+2	; 0x02
    13fa:	2d 81       	ldd	r18, Y+5	; 0x05
    13fc:	fc 01       	movw	r30, r24
    13fe:	22 83       	std	Z+2, r18	; 0x02
    1400:	89 81       	ldd	r24, Y+1	; 0x01
    1402:	9a 81       	ldd	r25, Y+2	; 0x02
    1404:	fc 01       	movw	r30, r24
    1406:	14 82       	std	Z+4, r1	; 0x04
    1408:	13 82       	std	Z+3, r1	; 0x03
    140a:	0f 90       	pop	r0
    140c:	0f 90       	pop	r0
    140e:	0f 90       	pop	r0
    1410:	0f 90       	pop	r0
    1412:	0f 90       	pop	r0
    1414:	df 91       	pop	r29
    1416:	cf 91       	pop	r28
    1418:	08 95       	ret

0000141a <_ZN6ButtonC1EP15ReadButtonStatei7MsgCodeb>:
    141a:	0f 93       	push	r16
    141c:	cf 93       	push	r28
    141e:	df 93       	push	r29
    1420:	cd b7       	in	r28, 0x3d	; 61
    1422:	de b7       	in	r29, 0x3e	; 62
    1424:	28 97       	sbiw	r28, 0x08	; 8
    1426:	0f b6       	in	r0, 0x3f	; 63
    1428:	f8 94       	cli
    142a:	de bf       	out	0x3e, r29	; 62
    142c:	0f be       	out	0x3f, r0	; 63
    142e:	cd bf       	out	0x3d, r28	; 61
    1430:	9a 83       	std	Y+2, r25	; 0x02
    1432:	89 83       	std	Y+1, r24	; 0x01
    1434:	7c 83       	std	Y+4, r23	; 0x04
    1436:	6b 83       	std	Y+3, r22	; 0x03
    1438:	5e 83       	std	Y+6, r21	; 0x06
    143a:	4d 83       	std	Y+5, r20	; 0x05
    143c:	2f 83       	std	Y+7, r18	; 0x07
    143e:	08 87       	std	Y+8, r16	; 0x08
    1440:	89 81       	ldd	r24, Y+1	; 0x01
    1442:	9a 81       	ldd	r25, Y+2	; 0x02
    1444:	2b 81       	ldd	r18, Y+3	; 0x03
    1446:	3c 81       	ldd	r19, Y+4	; 0x04
    1448:	fc 01       	movw	r30, r24
    144a:	31 83       	std	Z+1, r19	; 0x01
    144c:	20 83       	st	Z, r18
    144e:	89 81       	ldd	r24, Y+1	; 0x01
    1450:	9a 81       	ldd	r25, Y+2	; 0x02
    1452:	28 85       	ldd	r18, Y+8	; 0x08
    1454:	fc 01       	movw	r30, r24
    1456:	22 83       	std	Z+2, r18	; 0x02
    1458:	89 81       	ldd	r24, Y+1	; 0x01
    145a:	9a 81       	ldd	r25, Y+2	; 0x02
    145c:	2d 81       	ldd	r18, Y+5	; 0x05
    145e:	3e 81       	ldd	r19, Y+6	; 0x06
    1460:	fc 01       	movw	r30, r24
    1462:	34 83       	std	Z+4, r19	; 0x04
    1464:	23 83       	std	Z+3, r18	; 0x03
    1466:	89 81       	ldd	r24, Y+1	; 0x01
    1468:	9a 81       	ldd	r25, Y+2	; 0x02
    146a:	2f 81       	ldd	r18, Y+7	; 0x07
    146c:	fc 01       	movw	r30, r24
    146e:	25 83       	std	Z+5, r18	; 0x05
    1470:	98 85       	ldd	r25, Y+8	; 0x08
    1472:	81 e0       	ldi	r24, 0x01	; 1
    1474:	89 27       	eor	r24, r25
    1476:	28 2f       	mov	r18, r24
    1478:	89 81       	ldd	r24, Y+1	; 0x01
    147a:	9a 81       	ldd	r25, Y+2	; 0x02
    147c:	fc 01       	movw	r30, r24
    147e:	26 83       	std	Z+6, r18	; 0x06
    1480:	89 81       	ldd	r24, Y+1	; 0x01
    1482:	9a 81       	ldd	r25, Y+2	; 0x02
    1484:	07 96       	adiw	r24, 0x07	; 7
    1486:	4f 81       	ldd	r20, Y+7	; 0x07
    1488:	6f ef       	ldi	r22, 0xFF	; 255
    148a:	7f ef       	ldi	r23, 0xFF	; 255
    148c:	a1 df       	rcall	.-190    	; 0x13d0 <_ZN3MsgC1E7MsgType7MsgCode>
    148e:	89 81       	ldd	r24, Y+1	; 0x01
    1490:	9a 81       	ldd	r25, Y+2	; 0x02
    1492:	fc 01       	movw	r30, r24
    1494:	80 81       	ld	r24, Z
    1496:	91 81       	ldd	r25, Z+1	; 0x01
    1498:	fc 01       	movw	r30, r24
    149a:	80 81       	ld	r24, Z
    149c:	91 81       	ldd	r25, Z+1	; 0x01
    149e:	06 96       	adiw	r24, 0x06	; 6
    14a0:	fc 01       	movw	r30, r24
    14a2:	20 81       	ld	r18, Z
    14a4:	31 81       	ldd	r19, Z+1	; 0x01
    14a6:	89 81       	ldd	r24, Y+1	; 0x01
    14a8:	9a 81       	ldd	r25, Y+2	; 0x02
    14aa:	fc 01       	movw	r30, r24
    14ac:	83 81       	ldd	r24, Z+3	; 0x03
    14ae:	94 81       	ldd	r25, Z+4	; 0x04
    14b0:	58 2f       	mov	r21, r24
    14b2:	89 81       	ldd	r24, Y+1	; 0x01
    14b4:	9a 81       	ldd	r25, Y+2	; 0x02
    14b6:	fc 01       	movw	r30, r24
    14b8:	80 81       	ld	r24, Z
    14ba:	91 81       	ldd	r25, Z+1	; 0x01
    14bc:	40 e0       	ldi	r20, 0x00	; 0
    14be:	65 2f       	mov	r22, r21
    14c0:	f9 01       	movw	r30, r18
    14c2:	09 95       	icall
    14c4:	28 96       	adiw	r28, 0x08	; 8
    14c6:	0f b6       	in	r0, 0x3f	; 63
    14c8:	f8 94       	cli
    14ca:	de bf       	out	0x3e, r29	; 62
    14cc:	0f be       	out	0x3f, r0	; 63
    14ce:	cd bf       	out	0x3d, r28	; 61
    14d0:	df 91       	pop	r29
    14d2:	cf 91       	pop	r28
    14d4:	0f 91       	pop	r16
    14d6:	08 95       	ret

000014d8 <_ZN6Button6getMsgEv>:


// Returns information about the current
// state of the button.
Msg& Button::getMsg()
{
    14d8:	cf 93       	push	r28
    14da:	df 93       	push	r29
    14dc:	00 d0       	rcall	.+0      	; 0x14de <_ZN6Button6getMsgEv+0x6>
    14de:	00 d0       	rcall	.+0      	; 0x14e0 <_ZN6Button6getMsgEv+0x8>
    14e0:	00 d0       	rcall	.+0      	; 0x14e2 <_ZN6Button6getMsgEv+0xa>
    14e2:	cd b7       	in	r28, 0x3d	; 61
    14e4:	de b7       	in	r29, 0x3e	; 62
    14e6:	9e 83       	std	Y+6, r25	; 0x06
    14e8:	8d 83       	std	Y+5, r24	; 0x05
	m_msg.m_type = eButtonActionNone;
    14ea:	8d 81       	ldd	r24, Y+5	; 0x05
    14ec:	9e 81       	ldd	r25, Y+6	; 0x06
    14ee:	2f ef       	ldi	r18, 0xFF	; 255
    14f0:	3f ef       	ldi	r19, 0xFF	; 255
    14f2:	fc 01       	movw	r30, r24
    14f4:	30 87       	std	Z+8, r19	; 0x08
    14f6:	27 83       	std	Z+7, r18	; 0x07
    unsigned long curState = m_buttonStateReader->isPressed(m_mcuPin);
    14f8:	8d 81       	ldd	r24, Y+5	; 0x05
    14fa:	9e 81       	ldd	r25, Y+6	; 0x06
    14fc:	fc 01       	movw	r30, r24
    14fe:	80 81       	ld	r24, Z
    1500:	91 81       	ldd	r25, Z+1	; 0x01
    1502:	fc 01       	movw	r30, r24
    1504:	80 81       	ld	r24, Z
    1506:	91 81       	ldd	r25, Z+1	; 0x01
    1508:	04 96       	adiw	r24, 0x04	; 4
    150a:	fc 01       	movw	r30, r24
    150c:	20 81       	ld	r18, Z
    150e:	31 81       	ldd	r19, Z+1	; 0x01
    1510:	8d 81       	ldd	r24, Y+5	; 0x05
    1512:	9e 81       	ldd	r25, Y+6	; 0x06
    1514:	fc 01       	movw	r30, r24
    1516:	83 81       	ldd	r24, Z+3	; 0x03
    1518:	94 81       	ldd	r25, Z+4	; 0x04
    151a:	48 2f       	mov	r20, r24
    151c:	8d 81       	ldd	r24, Y+5	; 0x05
    151e:	9e 81       	ldd	r25, Y+6	; 0x06
    1520:	fc 01       	movw	r30, r24
    1522:	80 81       	ld	r24, Z
    1524:	91 81       	ldd	r25, Z+1	; 0x01
    1526:	64 2f       	mov	r22, r20
    1528:	f9 01       	movw	r30, r18
    152a:	09 95       	icall
    152c:	88 2f       	mov	r24, r24
    152e:	90 e0       	ldi	r25, 0x00	; 0
    1530:	a0 e0       	ldi	r26, 0x00	; 0
    1532:	b0 e0       	ldi	r27, 0x00	; 0
    1534:	89 83       	std	Y+1, r24	; 0x01
    1536:	9a 83       	std	Y+2, r25	; 0x02
    1538:	ab 83       	std	Y+3, r26	; 0x03
    153a:	bc 83       	std	Y+4, r27	; 0x04
    if(curState != m_logicState)
    153c:	8d 81       	ldd	r24, Y+5	; 0x05
    153e:	9e 81       	ldd	r25, Y+6	; 0x06
    1540:	fc 01       	movw	r30, r24
    1542:	86 81       	ldd	r24, Z+6	; 0x06
    1544:	28 2f       	mov	r18, r24
    1546:	30 e0       	ldi	r19, 0x00	; 0
    1548:	40 e0       	ldi	r20, 0x00	; 0
    154a:	50 e0       	ldi	r21, 0x00	; 0
    154c:	89 81       	ldd	r24, Y+1	; 0x01
    154e:	9a 81       	ldd	r25, Y+2	; 0x02
    1550:	ab 81       	ldd	r26, Y+3	; 0x03
    1552:	bc 81       	ldd	r27, Y+4	; 0x04
    1554:	28 17       	cp	r18, r24
    1556:	39 07       	cpc	r19, r25
    1558:	4a 07       	cpc	r20, r26
    155a:	5b 07       	cpc	r21, r27
    155c:	f1 f0       	breq	.+60     	; 0x159a <_ZN6Button6getMsgEv+0xc2>
    {
        if(curState == m_activeState)
    155e:	8d 81       	ldd	r24, Y+5	; 0x05
    1560:	9e 81       	ldd	r25, Y+6	; 0x06
    1562:	fc 01       	movw	r30, r24
    1564:	82 81       	ldd	r24, Z+2	; 0x02
    1566:	28 2f       	mov	r18, r24
    1568:	30 e0       	ldi	r19, 0x00	; 0
    156a:	40 e0       	ldi	r20, 0x00	; 0
    156c:	50 e0       	ldi	r21, 0x00	; 0
    156e:	89 81       	ldd	r24, Y+1	; 0x01
    1570:	9a 81       	ldd	r25, Y+2	; 0x02
    1572:	ab 81       	ldd	r26, Y+3	; 0x03
    1574:	bc 81       	ldd	r27, Y+4	; 0x04
    1576:	28 17       	cp	r18, r24
    1578:	39 07       	cpc	r19, r25
    157a:	4a 07       	cpc	r20, r26
    157c:	5b 07       	cpc	r21, r27
    157e:	31 f4       	brne	.+12     	; 0x158c <_ZN6Button6getMsgEv+0xb4>
        {
            m_msg.m_type = eButtonActionPress;
    1580:	8d 81       	ldd	r24, Y+5	; 0x05
    1582:	9e 81       	ldd	r25, Y+6	; 0x06
    1584:	fc 01       	movw	r30, r24
    1586:	10 86       	std	Z+8, r1	; 0x08
    1588:	17 82       	std	Z+7, r1	; 0x07
    158a:	07 c0       	rjmp	.+14     	; 0x159a <_ZN6Button6getMsgEv+0xc2>
        }
        else
        {
            m_msg.m_type = eButtonActionRelease;
    158c:	8d 81       	ldd	r24, Y+5	; 0x05
    158e:	9e 81       	ldd	r25, Y+6	; 0x06
    1590:	21 e0       	ldi	r18, 0x01	; 1
    1592:	30 e0       	ldi	r19, 0x00	; 0
    1594:	fc 01       	movw	r30, r24
    1596:	30 87       	std	Z+8, r19	; 0x08
    1598:	27 83       	std	Z+7, r18	; 0x07
        }
    }
    m_logicState = curState;
    159a:	29 81       	ldd	r18, Y+1	; 0x01
    159c:	8d 81       	ldd	r24, Y+5	; 0x05
    159e:	9e 81       	ldd	r25, Y+6	; 0x06
    15a0:	fc 01       	movw	r30, r24
    15a2:	26 83       	std	Z+6, r18	; 0x06
    return m_msg;
    15a4:	8d 81       	ldd	r24, Y+5	; 0x05
    15a6:	9e 81       	ldd	r25, Y+6	; 0x06
    15a8:	07 96       	adiw	r24, 0x07	; 7
}
    15aa:	26 96       	adiw	r28, 0x06	; 6
    15ac:	0f b6       	in	r0, 0x3f	; 63
    15ae:	f8 94       	cli
    15b0:	de bf       	out	0x3e, r29	; 62
    15b2:	0f be       	out	0x3f, r0	; 63
    15b4:	cd bf       	out	0x3d, r28	; 61
    15b6:	df 91       	pop	r29
    15b8:	cf 91       	pop	r28
    15ba:	08 95       	ret

000015bc <_ZN5Portb3SetEh>:
#ifdef USE_PORTA

MAKE_PORT(PORTA, DDRA, PINA, Porta, 'A')
#endif
#ifdef USE_PORTB
MAKE_PORT(PORTB, DDRB, PINB, Portb, 'B')
    15bc:	cf 93       	push	r28
    15be:	df 93       	push	r29
    15c0:	1f 92       	push	r1
    15c2:	cd b7       	in	r28, 0x3d	; 61
    15c4:	de b7       	in	r29, 0x3e	; 62
    15c6:	89 83       	std	Y+1, r24	; 0x01
    15c8:	85 e2       	ldi	r24, 0x25	; 37
    15ca:	90 e0       	ldi	r25, 0x00	; 0
    15cc:	25 e2       	ldi	r18, 0x25	; 37
    15ce:	30 e0       	ldi	r19, 0x00	; 0
    15d0:	f9 01       	movw	r30, r18
    15d2:	30 81       	ld	r19, Z
    15d4:	29 81       	ldd	r18, Y+1	; 0x01
    15d6:	23 2b       	or	r18, r19
    15d8:	fc 01       	movw	r30, r24
    15da:	20 83       	st	Z, r18
    15dc:	0f 90       	pop	r0
    15de:	df 91       	pop	r29
    15e0:	cf 91       	pop	r28
    15e2:	08 95       	ret

000015e4 <_ZN5Portb5ClearEh>:
    15e4:	cf 93       	push	r28
    15e6:	df 93       	push	r29
    15e8:	1f 92       	push	r1
    15ea:	cd b7       	in	r28, 0x3d	; 61
    15ec:	de b7       	in	r29, 0x3e	; 62
    15ee:	89 83       	std	Y+1, r24	; 0x01
    15f0:	85 e2       	ldi	r24, 0x25	; 37
    15f2:	90 e0       	ldi	r25, 0x00	; 0
    15f4:	25 e2       	ldi	r18, 0x25	; 37
    15f6:	30 e0       	ldi	r19, 0x00	; 0
    15f8:	f9 01       	movw	r30, r18
    15fa:	20 81       	ld	r18, Z
    15fc:	32 2f       	mov	r19, r18
    15fe:	29 81       	ldd	r18, Y+1	; 0x01
    1600:	20 95       	com	r18
    1602:	23 23       	and	r18, r19
    1604:	fc 01       	movw	r30, r24
    1606:	20 83       	st	Z, r18
    1608:	0f 90       	pop	r0
    160a:	df 91       	pop	r29
    160c:	cf 91       	pop	r28
    160e:	08 95       	ret

00001610 <_ZN5Portb6DirSetEh>:
    1610:	cf 93       	push	r28
    1612:	df 93       	push	r29
    1614:	1f 92       	push	r1
    1616:	cd b7       	in	r28, 0x3d	; 61
    1618:	de b7       	in	r29, 0x3e	; 62
    161a:	89 83       	std	Y+1, r24	; 0x01
    161c:	84 e2       	ldi	r24, 0x24	; 36
    161e:	90 e0       	ldi	r25, 0x00	; 0
    1620:	24 e2       	ldi	r18, 0x24	; 36
    1622:	30 e0       	ldi	r19, 0x00	; 0
    1624:	f9 01       	movw	r30, r18
    1626:	30 81       	ld	r19, Z
    1628:	29 81       	ldd	r18, Y+1	; 0x01
    162a:	23 2b       	or	r18, r19
    162c:	fc 01       	movw	r30, r24
    162e:	20 83       	st	Z, r18
    1630:	0f 90       	pop	r0
    1632:	df 91       	pop	r29
    1634:	cf 91       	pop	r28
    1636:	08 95       	ret

00001638 <_ZN5Portb8DirClearEh>:
    1638:	cf 93       	push	r28
    163a:	df 93       	push	r29
    163c:	1f 92       	push	r1
    163e:	cd b7       	in	r28, 0x3d	; 61
    1640:	de b7       	in	r29, 0x3e	; 62
    1642:	89 83       	std	Y+1, r24	; 0x01
    1644:	84 e2       	ldi	r24, 0x24	; 36
    1646:	90 e0       	ldi	r25, 0x00	; 0
    1648:	24 e2       	ldi	r18, 0x24	; 36
    164a:	30 e0       	ldi	r19, 0x00	; 0
    164c:	f9 01       	movw	r30, r18
    164e:	20 81       	ld	r18, Z
    1650:	32 2f       	mov	r19, r18
    1652:	29 81       	ldd	r18, Y+1	; 0x01
    1654:	20 95       	com	r18
    1656:	23 23       	and	r18, r19
    1658:	fc 01       	movw	r30, r24
    165a:	20 83       	st	Z, r18
    165c:	0f 90       	pop	r0
    165e:	df 91       	pop	r29
    1660:	cf 91       	pop	r28
    1662:	08 95       	ret

00001664 <_ZN12SetupHandler14setDriveAmountEm>:
	void updateRestoreFocusUI(int change = 0);
	void advanceCaret(uint8_t dir); // -1 = left, 1 right. All other values ignored
 public:
    SetupHandler(MessagePump *_pump, uint32_t driveAmount, uint32_t frames);
    uint32_t getDriveAmount() const { return m_driveAmount;}
    void setDriveAmount(uint32_t driveAmount) { m_driveAmount = driveAmount;}
    1664:	cf 93       	push	r28
    1666:	df 93       	push	r29
    1668:	00 d0       	rcall	.+0      	; 0x166a <_ZN12SetupHandler14setDriveAmountEm+0x6>
    166a:	00 d0       	rcall	.+0      	; 0x166c <_ZN12SetupHandler14setDriveAmountEm+0x8>
    166c:	00 d0       	rcall	.+0      	; 0x166e <_ZN12SetupHandler14setDriveAmountEm+0xa>
    166e:	cd b7       	in	r28, 0x3d	; 61
    1670:	de b7       	in	r29, 0x3e	; 62
    1672:	9a 83       	std	Y+2, r25	; 0x02
    1674:	89 83       	std	Y+1, r24	; 0x01
    1676:	4b 83       	std	Y+3, r20	; 0x03
    1678:	5c 83       	std	Y+4, r21	; 0x04
    167a:	6d 83       	std	Y+5, r22	; 0x05
    167c:	7e 83       	std	Y+6, r23	; 0x06
    167e:	8b 81       	ldd	r24, Y+3	; 0x03
    1680:	9c 81       	ldd	r25, Y+4	; 0x04
    1682:	ad 81       	ldd	r26, Y+5	; 0x05
    1684:	be 81       	ldd	r27, Y+6	; 0x06
    1686:	29 81       	ldd	r18, Y+1	; 0x01
    1688:	3a 81       	ldd	r19, Y+2	; 0x02
    168a:	f9 01       	movw	r30, r18
    168c:	86 87       	std	Z+14, r24	; 0x0e
    168e:	97 87       	std	Z+15, r25	; 0x0f
    1690:	a0 8b       	std	Z+16, r26	; 0x10
    1692:	b1 8b       	std	Z+17, r27	; 0x11
    1694:	26 96       	adiw	r28, 0x06	; 6
    1696:	0f b6       	in	r0, 0x3f	; 63
    1698:	f8 94       	cli
    169a:	de bf       	out	0x3e, r29	; 62
    169c:	0f be       	out	0x3f, r0	; 63
    169e:	cd bf       	out	0x3d, r28	; 61
    16a0:	df 91       	pop	r29
    16a2:	cf 91       	pop	r28
    16a4:	08 95       	ret

000016a6 <_ZN12SetupHandler12setNumFramesEm>:
    uint32_t getNumFrames() const { return m_numFrames; }
    void setNumFrames(uint32_t numFrames) { m_numFrames = numFrames;}
    16a6:	cf 93       	push	r28
    16a8:	df 93       	push	r29
    16aa:	00 d0       	rcall	.+0      	; 0x16ac <_ZN12SetupHandler12setNumFramesEm+0x6>
    16ac:	00 d0       	rcall	.+0      	; 0x16ae <_ZN12SetupHandler12setNumFramesEm+0x8>
    16ae:	00 d0       	rcall	.+0      	; 0x16b0 <_ZN12SetupHandler12setNumFramesEm+0xa>
    16b0:	cd b7       	in	r28, 0x3d	; 61
    16b2:	de b7       	in	r29, 0x3e	; 62
    16b4:	9a 83       	std	Y+2, r25	; 0x02
    16b6:	89 83       	std	Y+1, r24	; 0x01
    16b8:	4b 83       	std	Y+3, r20	; 0x03
    16ba:	5c 83       	std	Y+4, r21	; 0x04
    16bc:	6d 83       	std	Y+5, r22	; 0x05
    16be:	7e 83       	std	Y+6, r23	; 0x06
    16c0:	8b 81       	ldd	r24, Y+3	; 0x03
    16c2:	9c 81       	ldd	r25, Y+4	; 0x04
    16c4:	ad 81       	ldd	r26, Y+5	; 0x05
    16c6:	be 81       	ldd	r27, Y+6	; 0x06
    16c8:	29 81       	ldd	r18, Y+1	; 0x01
    16ca:	3a 81       	ldd	r19, Y+2	; 0x02
    16cc:	f9 01       	movw	r30, r18
    16ce:	82 8b       	std	Z+18, r24	; 0x12
    16d0:	93 8b       	std	Z+19, r25	; 0x13
    16d2:	a4 8b       	std	Z+20, r26	; 0x14
    16d4:	b5 8b       	std	Z+21, r27	; 0x15
    16d6:	26 96       	adiw	r28, 0x06	; 6
    16d8:	0f b6       	in	r0, 0x3f	; 63
    16da:	f8 94       	cli
    16dc:	de bf       	out	0x3e, r29	; 62
    16de:	0f be       	out	0x3f, r0	; 63
    16e0:	cd bf       	out	0x3d, r28	; 61
    16e2:	df 91       	pop	r29
    16e4:	cf 91       	pop	r28
    16e6:	08 95       	ret

000016e8 <_ZNK12SetupHandler25getFrameDelayMillisecondsEv>:
	uint32_t getFrameDelayMilliseconds() const { return m_frameDelaySeconds * 1000; }
    16e8:	cf 93       	push	r28
    16ea:	df 93       	push	r29
    16ec:	00 d0       	rcall	.+0      	; 0x16ee <_ZNK12SetupHandler25getFrameDelayMillisecondsEv+0x6>
    16ee:	cd b7       	in	r28, 0x3d	; 61
    16f0:	de b7       	in	r29, 0x3e	; 62
    16f2:	9a 83       	std	Y+2, r25	; 0x02
    16f4:	89 83       	std	Y+1, r24	; 0x01
    16f6:	89 81       	ldd	r24, Y+1	; 0x01
    16f8:	9a 81       	ldd	r25, Y+2	; 0x02
    16fa:	fc 01       	movw	r30, r24
    16fc:	26 89       	ldd	r18, Z+22	; 0x16
    16fe:	37 89       	ldd	r19, Z+23	; 0x17
    1700:	40 8d       	ldd	r20, Z+24	; 0x18
    1702:	51 8d       	ldd	r21, Z+25	; 0x19
    1704:	88 ee       	ldi	r24, 0xE8	; 232
    1706:	93 e0       	ldi	r25, 0x03	; 3
    1708:	dc 01       	movw	r26, r24
    170a:	0e 94 bf 3e 	call	0x7d7e	; 0x7d7e <__muluhisi3>
    170e:	dc 01       	movw	r26, r24
    1710:	cb 01       	movw	r24, r22
    1712:	bc 01       	movw	r22, r24
    1714:	cd 01       	movw	r24, r26
    1716:	0f 90       	pop	r0
    1718:	0f 90       	pop	r0
    171a:	df 91       	pop	r29
    171c:	cf 91       	pop	r28
    171e:	08 95       	ret

00001720 <_ZN12SetupHandler20setFrameDelaySecondsEm>:
	void setFrameDelaySeconds(uint32_t delay) { m_frameDelaySeconds = delay; }
    1720:	cf 93       	push	r28
    1722:	df 93       	push	r29
    1724:	00 d0       	rcall	.+0      	; 0x1726 <_ZN12SetupHandler20setFrameDelaySecondsEm+0x6>
    1726:	00 d0       	rcall	.+0      	; 0x1728 <_ZN12SetupHandler20setFrameDelaySecondsEm+0x8>
    1728:	00 d0       	rcall	.+0      	; 0x172a <_ZN12SetupHandler20setFrameDelaySecondsEm+0xa>
    172a:	cd b7       	in	r28, 0x3d	; 61
    172c:	de b7       	in	r29, 0x3e	; 62
    172e:	9a 83       	std	Y+2, r25	; 0x02
    1730:	89 83       	std	Y+1, r24	; 0x01
    1732:	4b 83       	std	Y+3, r20	; 0x03
    1734:	5c 83       	std	Y+4, r21	; 0x04
    1736:	6d 83       	std	Y+5, r22	; 0x05
    1738:	7e 83       	std	Y+6, r23	; 0x06
    173a:	8b 81       	ldd	r24, Y+3	; 0x03
    173c:	9c 81       	ldd	r25, Y+4	; 0x04
    173e:	ad 81       	ldd	r26, Y+5	; 0x05
    1740:	be 81       	ldd	r27, Y+6	; 0x06
    1742:	29 81       	ldd	r18, Y+1	; 0x01
    1744:	3a 81       	ldd	r19, Y+2	; 0x02
    1746:	f9 01       	movw	r30, r18
    1748:	86 8b       	std	Z+22, r24	; 0x16
    174a:	97 8b       	std	Z+23, r25	; 0x17
    174c:	a0 8f       	std	Z+24, r26	; 0x18
    174e:	b1 8f       	std	Z+25, r27	; 0x19
    1750:	26 96       	adiw	r28, 0x06	; 6
    1752:	0f b6       	in	r0, 0x3f	; 63
    1754:	f8 94       	cli
    1756:	de bf       	out	0x3e, r29	; 62
    1758:	0f be       	out	0x3f, r0	; 63
    175a:	cd bf       	out	0x3d, r28	; 61
    175c:	df 91       	pop	r29
    175e:	cf 91       	pop	r28
    1760:	08 95       	ret

00001762 <_ZN12SetupHandler15setRestoreFocusEb>:
	
	bool getRestoreFocus() const { return m_restoreFocus; }
	void setRestoreFocus(bool restore) { m_restoreFocus = restore; }
    1762:	cf 93       	push	r28
    1764:	df 93       	push	r29
    1766:	00 d0       	rcall	.+0      	; 0x1768 <_ZN12SetupHandler15setRestoreFocusEb+0x6>
    1768:	1f 92       	push	r1
    176a:	cd b7       	in	r28, 0x3d	; 61
    176c:	de b7       	in	r29, 0x3e	; 62
    176e:	9a 83       	std	Y+2, r25	; 0x02
    1770:	89 83       	std	Y+1, r24	; 0x01
    1772:	6b 83       	std	Y+3, r22	; 0x03
    1774:	89 81       	ldd	r24, Y+1	; 0x01
    1776:	9a 81       	ldd	r25, Y+2	; 0x02
    1778:	2b 81       	ldd	r18, Y+3	; 0x03
    177a:	fc 01       	movw	r30, r24
    177c:	22 8f       	std	Z+26, r18	; 0x1a
    177e:	0f 90       	pop	r0
    1780:	0f 90       	pop	r0
    1782:	0f 90       	pop	r0
    1784:	df 91       	pop	r29
    1786:	cf 91       	pop	r28
    1788:	08 95       	ret

0000178a <setup>:
Button buttonDown(&buttonStateReader, BUTTON_DOWN, eDown, HIGH);
Button buttonSelect(&buttonStateReader, BUTTON_SELECT, eSelect, HIGH);
Button* buttons[5] = {&buttonLeft, &buttonRight, &buttonUp, &buttonDown, &buttonSelect};


void setup() {
    178a:	cf 93       	push	r28
    178c:	df 93       	push	r29
    178e:	cd b7       	in	r28, 0x3d	; 61
    1790:	de b7       	in	r29, 0x3e	; 62
	// Debugging output
	Serial.begin(SERIAL_SPEED);
    1792:	40 e8       	ldi	r20, 0x80	; 128
    1794:	55 e2       	ldi	r21, 0x25	; 37
    1796:	60 e0       	ldi	r22, 0x00	; 0
    1798:	70 e0       	ldi	r23, 0x00	; 0
    179a:	84 e7       	ldi	r24, 0x74	; 116
    179c:	94 e0       	ldi	r25, 0x04	; 4
    179e:	0e 94 0a 2a 	call	0x5414	; 0x5414 <_ZN14HardwareSerial5beginEm>
	// set up the LCD's number of columns and rows:
	lcd.begin(16, 2);
    17a2:	20 e0       	ldi	r18, 0x00	; 0
    17a4:	42 e0       	ldi	r20, 0x02	; 2
    17a6:	60 e1       	ldi	r22, 0x10	; 16
    17a8:	87 e5       	ldi	r24, 0x57	; 87
    17aa:	93 e0       	ldi	r25, 0x03	; 3
    17ac:	4c d9       	rcall	.-3432   	; 0xa46 <_ZN21Adafruit_RGBLCDShield5beginEhhh>
	// Setup usb.
	if (Usb.Init() == -1)
    17ae:	87 ea       	ldi	r24, 0xA7	; 167
    17b0:	92 e0       	ldi	r25, 0x02	; 2
    17b2:	b1 d1       	rcall	.+866    	; 0x1b16 <_ZN8MAX3421eI4TPinI5PortbLh2EES0_IS1_Lh1EEE4InitEv>
    17b4:	98 2f       	mov	r25, r24
    17b6:	81 e0       	ldi	r24, 0x01	; 1
    17b8:	9f 3f       	cpi	r25, 0xFF	; 255
    17ba:	09 f0       	breq	.+2      	; 0x17be <setup+0x34>
    17bc:	80 e0       	ldi	r24, 0x00	; 0
    17be:	88 23       	and	r24, r24
    17c0:	89 f0       	breq	.+34     	; 0x17e4 <setup+0x5a>
	{
		Serial.println("OSC did not start.");
    17c2:	62 e2       	ldi	r22, 0x22	; 34
    17c4:	71 e0       	ldi	r23, 0x01	; 1
    17c6:	84 e7       	ldi	r24, 0x74	; 116
    17c8:	94 e0       	ldi	r25, 0x04	; 4
    17ca:	0e 94 69 2b 	call	0x56d2	; 0x56d2 <_ZN5Print7printlnEPKc>
		g_print->print(F("USB did not start."));
    17ce:	2a e5       	ldi	r18, 0x5A	; 90
    17d0:	32 e0       	ldi	r19, 0x02	; 2
    17d2:	80 91 0a 01 	lds	r24, 0x010A
    17d6:	90 91 0b 01 	lds	r25, 0x010B
    17da:	b9 01       	movw	r22, r18
    17dc:	0e 94 2c 2b 	call	0x5658	; 0x5658 <_ZN5Print5printEPK19__FlashStringHelper>
		g_usbOK = false;
    17e0:	10 92 09 01 	sts	0x0109, r1
	}
	// Restore previous settings
	if((g_savedFocusAmount = eeprom_read_word(&ePromFocusAmount)) != 0xffff)
    17e4:	80 e0       	ldi	r24, 0x00	; 0
    17e6:	90 e0       	ldi	r25, 0x00	; 0
    17e8:	0e 94 04 3f 	call	0x7e08	; 0x7e08 <__eerd_word_m328p>
    17ec:	90 93 07 01 	sts	0x0107, r25
    17f0:	80 93 06 01 	sts	0x0106, r24
    17f4:	80 91 06 01 	lds	r24, 0x0106
    17f8:	90 91 07 01 	lds	r25, 0x0107
    17fc:	21 e0       	ldi	r18, 0x01	; 1
    17fe:	8f 3f       	cpi	r24, 0xFF	; 255
    1800:	3f ef       	ldi	r19, 0xFF	; 255
    1802:	93 07       	cpc	r25, r19
    1804:	09 f4       	brne	.+2      	; 0x1808 <setup+0x7e>
    1806:	20 e0       	ldi	r18, 0x00	; 0
    1808:	22 23       	and	r18, r18
    180a:	61 f0       	breq	.+24     	; 0x1824 <setup+0x9a>
	{
		g_setup.setDriveAmount(g_savedFocusAmount);	
    180c:	80 91 06 01 	lds	r24, 0x0106
    1810:	90 91 07 01 	lds	r25, 0x0107
    1814:	cc 01       	movw	r24, r24
    1816:	a0 e0       	ldi	r26, 0x00	; 0
    1818:	b0 e0       	ldi	r27, 0x00	; 0
    181a:	ac 01       	movw	r20, r24
    181c:	bd 01       	movw	r22, r26
    181e:	8a e7       	ldi	r24, 0x7A	; 122
    1820:	92 e0       	ldi	r25, 0x02	; 2
    1822:	20 df       	rcall	.-448    	; 0x1664 <_ZN12SetupHandler14setDriveAmountEm>
	}
	
	if((g_savedFrameDelay = eeprom_read_word(&ePromFrameDelay)) != 0xffff)
    1824:	82 e0       	ldi	r24, 0x02	; 2
    1826:	90 e0       	ldi	r25, 0x00	; 0
    1828:	0e 94 04 3f 	call	0x7e08	; 0x7e08 <__eerd_word_m328p>
    182c:	90 93 55 03 	sts	0x0355, r25
    1830:	80 93 54 03 	sts	0x0354, r24
    1834:	80 91 54 03 	lds	r24, 0x0354
    1838:	90 91 55 03 	lds	r25, 0x0355
    183c:	21 e0       	ldi	r18, 0x01	; 1
    183e:	8f 3f       	cpi	r24, 0xFF	; 255
    1840:	3f ef       	ldi	r19, 0xFF	; 255
    1842:	93 07       	cpc	r25, r19
    1844:	09 f4       	brne	.+2      	; 0x1848 <setup+0xbe>
    1846:	20 e0       	ldi	r18, 0x00	; 0
    1848:	22 23       	and	r18, r18
    184a:	61 f0       	breq	.+24     	; 0x1864 <setup+0xda>
	{
		g_setup.setFrameDelaySeconds(g_savedFrameDelay);	
    184c:	80 91 54 03 	lds	r24, 0x0354
    1850:	90 91 55 03 	lds	r25, 0x0355
    1854:	cc 01       	movw	r24, r24
    1856:	a0 e0       	ldi	r26, 0x00	; 0
    1858:	b0 e0       	ldi	r27, 0x00	; 0
    185a:	ac 01       	movw	r20, r24
    185c:	bd 01       	movw	r22, r26
    185e:	8a e7       	ldi	r24, 0x7A	; 122
    1860:	92 e0       	ldi	r25, 0x02	; 2
    1862:	5e df       	rcall	.-324    	; 0x1720 <_ZN12SetupHandler20setFrameDelaySecondsEm>
	}
	
	if((g_savedNumFrames = eeprom_read_byte(&ePromNumFrames)) != 0xff)
    1864:	84 e0       	ldi	r24, 0x04	; 4
    1866:	90 e0       	ldi	r25, 0x00	; 0
    1868:	0e 94 fc 3e 	call	0x7df8	; 0x7df8 <__eerd_byte_m328p>
    186c:	80 93 08 01 	sts	0x0108, r24
    1870:	90 91 08 01 	lds	r25, 0x0108
    1874:	81 e0       	ldi	r24, 0x01	; 1
    1876:	9f 3f       	cpi	r25, 0xFF	; 255
    1878:	09 f4       	brne	.+2      	; 0x187c <setup+0xf2>
    187a:	80 e0       	ldi	r24, 0x00	; 0
    187c:	88 23       	and	r24, r24
    187e:	59 f0       	breq	.+22     	; 0x1896 <setup+0x10c>
	{
		g_setup.setNumFrames(g_savedNumFrames);
    1880:	80 91 08 01 	lds	r24, 0x0108
    1884:	88 2f       	mov	r24, r24
    1886:	90 e0       	ldi	r25, 0x00	; 0
    1888:	a0 e0       	ldi	r26, 0x00	; 0
    188a:	b0 e0       	ldi	r27, 0x00	; 0
    188c:	ac 01       	movw	r20, r24
    188e:	bd 01       	movw	r22, r26
    1890:	8a e7       	ldi	r24, 0x7A	; 122
    1892:	92 e0       	ldi	r25, 0x02	; 2
    1894:	08 df       	rcall	.-496    	; 0x16a6 <_ZN12SetupHandler12setNumFramesEm>
	}
	if((g_savedRestoreFocus = eeprom_read_byte(&ePromRestoreFocus)) != 0xff)
    1896:	85 e0       	ldi	r24, 0x05	; 5
    1898:	90 e0       	ldi	r25, 0x00	; 0
    189a:	0e 94 fc 3e 	call	0x7df8	; 0x7df8 <__eerd_byte_m328p>
    189e:	80 93 56 03 	sts	0x0356, r24
    18a2:	90 91 56 03 	lds	r25, 0x0356
    18a6:	81 e0       	ldi	r24, 0x01	; 1
    18a8:	9f 3f       	cpi	r25, 0xFF	; 255
    18aa:	09 f4       	brne	.+2      	; 0x18ae <setup+0x124>
    18ac:	80 e0       	ldi	r24, 0x00	; 0
    18ae:	88 23       	and	r24, r24
    18b0:	51 f0       	breq	.+20     	; 0x18c6 <setup+0x13c>
	{
		g_setup.setRestoreFocus(g_savedRestoreFocus);	
    18b2:	90 91 56 03 	lds	r25, 0x0356
    18b6:	81 e0       	ldi	r24, 0x01	; 1
    18b8:	99 23       	and	r25, r25
    18ba:	09 f4       	brne	.+2      	; 0x18be <setup+0x134>
    18bc:	80 e0       	ldi	r24, 0x00	; 0
    18be:	68 2f       	mov	r22, r24
    18c0:	8a e7       	ldi	r24, 0x7A	; 122
    18c2:	92 e0       	ldi	r25, 0x02	; 2
    18c4:	4e df       	rcall	.-356    	; 0x1762 <_ZN12SetupHandler15setRestoreFocusEb>
	}
}
    18c6:	df 91       	pop	r29
    18c8:	cf 91       	pop	r28
    18ca:	08 95       	ret

000018cc <loop>:

void loop()
{
    18cc:	cf 92       	push	r12
    18ce:	df 92       	push	r13
    18d0:	ef 92       	push	r14
    18d2:	ff 92       	push	r15
    18d4:	0f 93       	push	r16
    18d6:	1f 93       	push	r17
    18d8:	cf 93       	push	r28
    18da:	df 93       	push	r29
    18dc:	cd b7       	in	r28, 0x3d	; 61
    18de:	de b7       	in	r29, 0x3e	; 62
    18e0:	2c 97       	sbiw	r28, 0x0c	; 12
    18e2:	0f b6       	in	r0, 0x3f	; 63
    18e4:	f8 94       	cli
    18e6:	de bf       	out	0x3e, r29	; 62
    18e8:	0f be       	out	0x3f, r0	; 63
    18ea:	cd bf       	out	0x3d, r28	; 61
	
	Usb.Task();
    18ec:	87 ea       	ldi	r24, 0xA7	; 167
    18ee:	92 e0       	ldi	r25, 0x02	; 2
    18f0:	0e 94 62 3d 	call	0x7ac4	; 0x7ac4 <_ZN3USB4TaskEv>
	for(size_t b = 0; b < sizeof(buttons) / sizeof(buttons[0]); b++)
    18f4:	1a 82       	std	Y+2, r1	; 0x02
    18f6:	19 82       	std	Y+1, r1	; 0x01
    18f8:	20 c0       	rjmp	.+64     	; 0x193a <loop+0x6e>
	{
		Msg& msg = buttons[b]->getMsg();
    18fa:	89 81       	ldd	r24, Y+1	; 0x01
    18fc:	9a 81       	ldd	r25, Y+2	; 0x02
    18fe:	88 0f       	add	r24, r24
    1900:	99 1f       	adc	r25, r25
    1902:	84 5f       	subi	r24, 0xF4	; 244
    1904:	9e 4f       	sbci	r25, 0xFE	; 254
    1906:	fc 01       	movw	r30, r24
    1908:	80 81       	ld	r24, Z
    190a:	91 81       	ldd	r25, Z+1	; 0x01
    190c:	e5 dd       	rcall	.-1078   	; 0x14d8 <_ZN6Button6getMsgEv>
    190e:	9c 83       	std	Y+4, r25	; 0x04
    1910:	8b 83       	std	Y+3, r24	; 0x03
		if(msg.m_type != eButtonActionNone) g_pump.dispatch(msg);
    1912:	8b 81       	ldd	r24, Y+3	; 0x03
    1914:	9c 81       	ldd	r25, Y+4	; 0x04
    1916:	fc 01       	movw	r30, r24
    1918:	80 81       	ld	r24, Z
    191a:	91 81       	ldd	r25, Z+1	; 0x01
    191c:	8f 3f       	cpi	r24, 0xFF	; 255
    191e:	ff ef       	ldi	r31, 0xFF	; 255
    1920:	9f 07       	cpc	r25, r31
    1922:	31 f0       	breq	.+12     	; 0x1930 <loop+0x64>
    1924:	8b 81       	ldd	r24, Y+3	; 0x03
    1926:	9c 81       	ldd	r25, Y+4	; 0x04
    1928:	bc 01       	movw	r22, r24
    192a:	8a e6       	ldi	r24, 0x6A	; 106
    192c:	92 e0       	ldi	r25, 0x02	; 2
    192e:	d6 d5       	rcall	.+2988   	; 0x24dc <_ZN11MessagePump8dispatchER3Msg>

void loop()
{
	
	Usb.Task();
	for(size_t b = 0; b < sizeof(buttons) / sizeof(buttons[0]); b++)
    1930:	89 81       	ldd	r24, Y+1	; 0x01
    1932:	9a 81       	ldd	r25, Y+2	; 0x02
    1934:	01 96       	adiw	r24, 0x01	; 1
    1936:	9a 83       	std	Y+2, r25	; 0x02
    1938:	89 83       	std	Y+1, r24	; 0x01
    193a:	25 e0       	ldi	r18, 0x05	; 5
    193c:	30 e0       	ldi	r19, 0x00	; 0
    193e:	89 81       	ldd	r24, Y+1	; 0x01
    1940:	9a 81       	ldd	r25, Y+2	; 0x02
    1942:	82 17       	cp	r24, r18
    1944:	93 07       	cpc	r25, r19
    1946:	c8 f2       	brcs	.-78     	; 0x18fa <loop+0x2e>
	{
		Msg& msg = buttons[b]->getMsg();
		if(msg.m_type != eButtonActionNone) g_pump.dispatch(msg);
	}
	// Time the shutter release in case the user wants to let the flash recharge.
	const unsigned long now = millis();
    1948:	0e 94 96 2c 	call	0x592c	; 0x592c <millis>
    194c:	dc 01       	movw	r26, r24
    194e:	cb 01       	movw	r24, r22
    1950:	8d 83       	std	Y+5, r24	; 0x05
    1952:	9e 83       	std	Y+6, r25	; 0x06
    1954:	af 83       	std	Y+7, r26	; 0x07
    1956:	b8 87       	std	Y+8, r27	; 0x08
	if(nk3.isConnected() && nk3.isFocusStackActive())
    1958:	81 e2       	ldi	r24, 0x21	; 33
    195a:	93 e0       	ldi	r25, 0x03	; 3
    195c:	0e 94 52 1a 	call	0x34a4	; 0x34a4 <_ZNK10NikType00311isConnectedEv>
    1960:	88 23       	and	r24, r24
    1962:	41 f0       	breq	.+16     	; 0x1974 <loop+0xa8>
    1964:	81 e2       	ldi	r24, 0x21	; 33
    1966:	93 e0       	ldi	r25, 0x03	; 3
    1968:	0e 94 7e 1a 	call	0x34fc	; 0x34fc <_ZNK10NikType00318isFocusStackActiveEv>
    196c:	88 23       	and	r24, r24
    196e:	11 f0       	breq	.+4      	; 0x1974 <loop+0xa8>
    1970:	81 e0       	ldi	r24, 0x01	; 1
    1972:	01 c0       	rjmp	.+2      	; 0x1976 <loop+0xaa>
    1974:	80 e0       	ldi	r24, 0x00	; 0
    1976:	88 23       	and	r24, r24
    1978:	09 f4       	brne	.+2      	; 0x197c <loop+0xb0>
    197a:	be c0       	rjmp	.+380    	; 0x1af8 <loop+0x22c>
	{
		// we're connected and a focus stack op is in progress
		if(!nk3.isCaptureInProgress())
    197c:	81 e2       	ldi	r24, 0x21	; 33
    197e:	93 e0       	ldi	r25, 0x03	; 3
    1980:	0e 94 68 1a 	call	0x34d0	; 0x34d0 <_ZNK10NikType00319isCaptureInProgressEv>
    1984:	98 2f       	mov	r25, r24
    1986:	81 e0       	ldi	r24, 0x01	; 1
    1988:	89 27       	eor	r24, r25
    198a:	88 23       	and	r24, r24
    198c:	09 f4       	brne	.+2      	; 0x1990 <loop+0xc4>
    198e:	b4 c0       	rjmp	.+360    	; 0x1af8 <loop+0x22c>
		{
			// Capture is complete. If there is no frame delay, prepare
			// the next frame & shoot it
			if(0 == g_pSetup->getFrameDelayMilliseconds())
    1990:	80 91 02 01 	lds	r24, 0x0102
    1994:	90 91 03 01 	lds	r25, 0x0103
    1998:	a7 de       	rcall	.-690    	; 0x16e8 <_ZNK12SetupHandler25getFrameDelayMillisecondsEv>
    199a:	dc 01       	movw	r26, r24
    199c:	cb 01       	movw	r24, r22
    199e:	21 e0       	ldi	r18, 0x01	; 1
    19a0:	00 97       	sbiw	r24, 0x00	; 0
    19a2:	a1 05       	cpc	r26, r1
    19a4:	b1 05       	cpc	r27, r1
    19a6:	09 f0       	breq	.+2      	; 0x19aa <loop+0xde>
    19a8:	20 e0       	ldi	r18, 0x00	; 0
    19aa:	22 23       	and	r18, r18
    19ac:	d9 f0       	breq	.+54     	; 0x19e4 <loop+0x118>
			{
				if(!nk3.isNextFrameFocused())
    19ae:	81 e2       	ldi	r24, 0x21	; 33
    19b0:	93 e0       	ldi	r25, 0x03	; 3
    19b2:	0e 94 94 1a 	call	0x3528	; 0x3528 <_ZNK10NikType00318isNextFrameFocusedEv>
    19b6:	98 2f       	mov	r25, r24
    19b8:	81 e0       	ldi	r24, 0x01	; 1
    19ba:	89 27       	eor	r24, r25
    19bc:	88 23       	and	r24, r24
    19be:	09 f4       	brne	.+2      	; 0x19c2 <loop+0xf6>
    19c0:	43 c0       	rjmp	.+134    	; 0x1a48 <loop+0x17c>
				{
					if(PTP_RC_OK == nk3.prepareNextFrame())
    19c2:	81 e2       	ldi	r24, 0x21	; 33
    19c4:	93 e0       	ldi	r25, 0x03	; 3
    19c6:	0e 94 44 18 	call	0x3088	; 0x3088 <_ZN10NikType00316prepareNextFrameEv>
    19ca:	21 e0       	ldi	r18, 0x01	; 1
    19cc:	81 30       	cpi	r24, 0x01	; 1
    19ce:	00 e2       	ldi	r16, 0x20	; 32
    19d0:	90 07       	cpc	r25, r16
    19d2:	09 f0       	breq	.+2      	; 0x19d6 <loop+0x10a>
    19d4:	20 e0       	ldi	r18, 0x00	; 0
    19d6:	22 23       	and	r18, r18
    19d8:	b9 f1       	breq	.+110    	; 0x1a48 <loop+0x17c>
					{
						nk3.focusStackNextFrame();
    19da:	81 e2       	ldi	r24, 0x21	; 33
    19dc:	93 e0       	ldi	r25, 0x03	; 3
    19de:	0e 94 1d 19 	call	0x323a	; 0x323a <_ZN10NikType00319focusStackNextFrameEv>
    19e2:	32 c0       	rjmp	.+100    	; 0x1a48 <loop+0x17c>
					}	
				}
			}
			// else user requested a frame delay. Use that time to prepare the next frame
			else if(!nk3.isNextFrameFocused())
    19e4:	81 e2       	ldi	r24, 0x21	; 33
    19e6:	93 e0       	ldi	r25, 0x03	; 3
    19e8:	0e 94 94 1a 	call	0x3528	; 0x3528 <_ZNK10NikType00318isNextFrameFocusedEv>
    19ec:	98 2f       	mov	r25, r24
    19ee:	81 e0       	ldi	r24, 0x01	; 1
    19f0:	89 27       	eor	r24, r25
    19f2:	88 23       	and	r24, r24
    19f4:	29 f0       	breq	.+10     	; 0x1a00 <loop+0x134>
			{
				nk3.prepareNextFrame();
    19f6:	81 e2       	ldi	r24, 0x21	; 33
    19f8:	93 e0       	ldi	r25, 0x03	; 3
    19fa:	0e 94 44 18 	call	0x3088	; 0x3088 <_ZN10NikType00316prepareNextFrameEv>
    19fe:	24 c0       	rjmp	.+72     	; 0x1a48 <loop+0x17c>
			}
			// else we're focused & waiting on the frame delay
			else if(now - nk3.getTimeLastCaptureComplete() >= g_pSetup->getFrameDelayMilliseconds())
    1a00:	81 e2       	ldi	r24, 0x21	; 33
    1a02:	93 e0       	ldi	r25, 0x03	; 3
    1a04:	0e 94 aa 1a 	call	0x3554	; 0x3554 <_ZNK10NikType00326getTimeLastCaptureCompleteEv>
    1a08:	dc 01       	movw	r26, r24
    1a0a:	cb 01       	movw	r24, r22
    1a0c:	2d 81       	ldd	r18, Y+5	; 0x05
    1a0e:	3e 81       	ldd	r19, Y+6	; 0x06
    1a10:	4f 81       	ldd	r20, Y+7	; 0x07
    1a12:	58 85       	ldd	r21, Y+8	; 0x08
    1a14:	69 01       	movw	r12, r18
    1a16:	7a 01       	movw	r14, r20
    1a18:	c8 1a       	sub	r12, r24
    1a1a:	d9 0a       	sbc	r13, r25
    1a1c:	ea 0a       	sbc	r14, r26
    1a1e:	fb 0a       	sbc	r15, r27
    1a20:	80 91 02 01 	lds	r24, 0x0102
    1a24:	90 91 03 01 	lds	r25, 0x0103
    1a28:	5f de       	rcall	.-834    	; 0x16e8 <_ZNK12SetupHandler25getFrameDelayMillisecondsEv>
    1a2a:	dc 01       	movw	r26, r24
    1a2c:	cb 01       	movw	r24, r22
    1a2e:	21 e0       	ldi	r18, 0x01	; 1
    1a30:	c8 16       	cp	r12, r24
    1a32:	d9 06       	cpc	r13, r25
    1a34:	ea 06       	cpc	r14, r26
    1a36:	fb 06       	cpc	r15, r27
    1a38:	08 f4       	brcc	.+2      	; 0x1a3c <loop+0x170>
    1a3a:	20 e0       	ldi	r18, 0x00	; 0
    1a3c:	22 23       	and	r18, r18
    1a3e:	21 f0       	breq	.+8      	; 0x1a48 <loop+0x17c>
			{
				nk3.focusStackNextFrame();
    1a40:	81 e2       	ldi	r24, 0x21	; 33
    1a42:	93 e0       	ldi	r25, 0x03	; 3
    1a44:	0e 94 1d 19 	call	0x323a	; 0x323a <_ZN10NikType00319focusStackNextFrameEv>
			}
			// else update the frame delay countdown once a second.
			if((0 != g_pSetup->getFrameDelayMilliseconds()) && (now - g_pRunStack->getLastUpdateTime() > 1000 ))
    1a48:	80 91 02 01 	lds	r24, 0x0102
    1a4c:	90 91 03 01 	lds	r25, 0x0103
    1a50:	4b de       	rcall	.-874    	; 0x16e8 <_ZNK12SetupHandler25getFrameDelayMillisecondsEv>
    1a52:	dc 01       	movw	r26, r24
    1a54:	cb 01       	movw	r24, r22
    1a56:	00 97       	sbiw	r24, 0x00	; 0
    1a58:	a1 05       	cpc	r26, r1
    1a5a:	b1 05       	cpc	r27, r1
    1a5c:	e1 f0       	breq	.+56     	; 0x1a96 <loop+0x1ca>
    1a5e:	80 91 04 01 	lds	r24, 0x0104
    1a62:	90 91 05 01 	lds	r25, 0x0105
    1a66:	0e 94 81 1d 	call	0x3b02	; 0x3b02 <_ZNK20RunFocusStackHandler17getLastUpdateTimeEv>
    1a6a:	dc 01       	movw	r26, r24
    1a6c:	cb 01       	movw	r24, r22
    1a6e:	2d 81       	ldd	r18, Y+5	; 0x05
    1a70:	3e 81       	ldd	r19, Y+6	; 0x06
    1a72:	4f 81       	ldd	r20, Y+7	; 0x07
    1a74:	58 85       	ldd	r21, Y+8	; 0x08
    1a76:	79 01       	movw	r14, r18
    1a78:	8a 01       	movw	r16, r20
    1a7a:	e8 1a       	sub	r14, r24
    1a7c:	f9 0a       	sbc	r15, r25
    1a7e:	0a 0b       	sbc	r16, r26
    1a80:	1b 0b       	sbc	r17, r27
    1a82:	d8 01       	movw	r26, r16
    1a84:	c7 01       	movw	r24, r14
    1a86:	89 3e       	cpi	r24, 0xE9	; 233
    1a88:	03 e0       	ldi	r16, 0x03	; 3
    1a8a:	90 07       	cpc	r25, r16
    1a8c:	a1 05       	cpc	r26, r1
    1a8e:	b1 05       	cpc	r27, r1
    1a90:	10 f0       	brcs	.+4      	; 0x1a96 <loop+0x1ca>
    1a92:	81 e0       	ldi	r24, 0x01	; 1
    1a94:	01 c0       	rjmp	.+2      	; 0x1a98 <loop+0x1cc>
    1a96:	80 e0       	ldi	r24, 0x00	; 0
    1a98:	88 23       	and	r24, r24
    1a9a:	71 f1       	breq	.+92     	; 0x1af8 <loop+0x22c>
			{
				// Flash recharging: put up a countdown timer once a second.
				g_pRunStack->reportDelay((g_pSetup->getFrameDelayMilliseconds() - now + nk3.getTimeLastCaptureComplete())  / 1000 + 1);
    1a9c:	80 91 02 01 	lds	r24, 0x0102
    1aa0:	90 91 03 01 	lds	r25, 0x0103
    1aa4:	21 de       	rcall	.-958    	; 0x16e8 <_ZNK12SetupHandler25getFrameDelayMillisecondsEv>
    1aa6:	9b 01       	movw	r18, r22
    1aa8:	ac 01       	movw	r20, r24
    1aaa:	8d 81       	ldd	r24, Y+5	; 0x05
    1aac:	9e 81       	ldd	r25, Y+6	; 0x06
    1aae:	af 81       	ldd	r26, Y+7	; 0x07
    1ab0:	b8 85       	ldd	r27, Y+8	; 0x08
    1ab2:	69 01       	movw	r12, r18
    1ab4:	7a 01       	movw	r14, r20
    1ab6:	c8 1a       	sub	r12, r24
    1ab8:	d9 0a       	sbc	r13, r25
    1aba:	ea 0a       	sbc	r14, r26
    1abc:	fb 0a       	sbc	r15, r27
    1abe:	81 e2       	ldi	r24, 0x21	; 33
    1ac0:	93 e0       	ldi	r25, 0x03	; 3
    1ac2:	0e 94 aa 1a 	call	0x3554	; 0x3554 <_ZNK10NikType00326getTimeLastCaptureCompleteEv>
    1ac6:	dc 01       	movw	r26, r24
    1ac8:	cb 01       	movw	r24, r22
    1aca:	8c 0d       	add	r24, r12
    1acc:	9d 1d       	adc	r25, r13
    1ace:	ae 1d       	adc	r26, r14
    1ad0:	bf 1d       	adc	r27, r15
    1ad2:	28 ee       	ldi	r18, 0xE8	; 232
    1ad4:	33 e0       	ldi	r19, 0x03	; 3
    1ad6:	40 e0       	ldi	r20, 0x00	; 0
    1ad8:	50 e0       	ldi	r21, 0x00	; 0
    1ada:	bc 01       	movw	r22, r24
    1adc:	cd 01       	movw	r24, r26
    1ade:	0e 94 97 3e 	call	0x7d2e	; 0x7d2e <__udivmodsi4>
    1ae2:	da 01       	movw	r26, r20
    1ae4:	c9 01       	movw	r24, r18
    1ae6:	21 e0       	ldi	r18, 0x01	; 1
    1ae8:	28 0f       	add	r18, r24
    1aea:	80 91 04 01 	lds	r24, 0x0104
    1aee:	90 91 05 01 	lds	r25, 0x0105
    1af2:	62 2f       	mov	r22, r18
    1af4:	0e 94 2f 1d 	call	0x3a5e	; 0x3a5e <_ZN20RunFocusStackHandler11reportDelayEh>
			}
		}
	}
}
    1af8:	2c 96       	adiw	r28, 0x0c	; 12
    1afa:	0f b6       	in	r0, 0x3f	; 63
    1afc:	f8 94       	cli
    1afe:	de bf       	out	0x3e, r29	; 62
    1b00:	0f be       	out	0x3f, r0	; 63
    1b02:	cd bf       	out	0x3d, r28	; 61
    1b04:	df 91       	pop	r29
    1b06:	cf 91       	pop	r28
    1b08:	1f 91       	pop	r17
    1b0a:	0f 91       	pop	r16
    1b0c:	ff 90       	pop	r15
    1b0e:	ef 90       	pop	r14
    1b10:	df 90       	pop	r13
    1b12:	cf 90       	pop	r12
    1b14:	08 95       	ret

00001b16 <_ZN8MAX3421eI4TPinI5PortbLh2EES0_IS1_Lh1EEE4InitEv>:
        return ( i);
}

/* initialize MAX3421E. Set Host mode, pullups, and stuff. Returns 0 if success, -1 if not */
template< typename SPI_SS, typename INTR >
int8_t MAX3421e< SPI_SS, INTR >::Init() {
    1b16:	cf 93       	push	r28
    1b18:	df 93       	push	r29
    1b1a:	00 d0       	rcall	.+0      	; 0x1b1c <_ZN8MAX3421eI4TPinI5PortbLh2EES0_IS1_Lh1EEE4InitEv+0x6>
    1b1c:	cd b7       	in	r28, 0x3d	; 61
    1b1e:	de b7       	in	r29, 0x3e	; 62
    1b20:	9a 83       	std	Y+2, r25	; 0x02
    1b22:	89 83       	std	Y+1, r24	; 0x01
        XMEM_ACQUIRE_SPI();
        // Moved here.
        // you really should not init hardware in the constructor when it involves locks.
        // Also avoids the vbus flicker issue confusing some devices.
        /* pin and peripheral setup */
        SPI_SS::SetDirWrite();
    1b24:	44 d0       	rcall	.+136    	; 0x1bae <_ZN4TPinI5PortbLh2EE11SetDirWriteEv>
        SPI_SS::Set();
    1b26:	4c d0       	rcall	.+152    	; 0x1bc0 <_ZN4TPinI5PortbLh2EE3SetEv>
        spi::init();
    1b28:	54 d0       	rcall	.+168    	; 0x1bd2 <_ZN3SPiI4TPinI5PortbLh5EES0_IS1_Lh3EES0_IS1_Lh4EES0_IS1_Lh2EEE4initEv>
        INTR::SetDirRead();
    1b2a:	68 d0       	rcall	.+208    	; 0x1bfc <_ZN4TPinI5PortbLh1EE10SetDirReadEv>
        XMEM_RELEASE_SPI();
        /* MAX3421E - full-duplex SPI, level interrupt */
        // GPX pin on. Moved here, otherwise we flicker the vbus.
        regWr(rPINCTL, (bmFDUPSPI | bmINTLEVEL));
    1b2c:	89 81       	ldd	r24, Y+1	; 0x01
    1b2e:	9a 81       	ldd	r25, Y+2	; 0x02
    1b30:	48 e1       	ldi	r20, 0x18	; 24
    1b32:	68 e8       	ldi	r22, 0x88	; 136
    1b34:	6c d0       	rcall	.+216    	; 0x1c0e <_ZN8MAX3421eI4TPinI5PortbLh2EES0_IS1_Lh1EEE5regWrEhh>

        if(reset() == 0) { //OSCOKIRQ hasn't asserted in time
    1b36:	89 81       	ldd	r24, Y+1	; 0x01
    1b38:	9a 81       	ldd	r25, Y+2	; 0x02
    1b3a:	9c d0       	rcall	.+312    	; 0x1c74 <_ZN8MAX3421eI4TPinI5PortbLh2EES0_IS1_Lh1EEE5resetEv>
    1b3c:	21 e0       	ldi	r18, 0x01	; 1
    1b3e:	00 97       	sbiw	r24, 0x00	; 0
    1b40:	09 f0       	breq	.+2      	; 0x1b44 <_ZN8MAX3421eI4TPinI5PortbLh2EES0_IS1_Lh1EEE4InitEv+0x2e>
    1b42:	20 e0       	ldi	r18, 0x00	; 0
    1b44:	22 23       	and	r18, r18
    1b46:	11 f0       	breq	.+4      	; 0x1b4c <_ZN8MAX3421eI4TPinI5PortbLh2EES0_IS1_Lh1EEE4InitEv+0x36>
                return ( -1);
    1b48:	8f ef       	ldi	r24, 0xFF	; 255
    1b4a:	2c c0       	rjmp	.+88     	; 0x1ba4 <_ZN8MAX3421eI4TPinI5PortbLh2EES0_IS1_Lh1EEE4InitEv+0x8e>
        }

        regWr(rMODE, bmDPPULLDN | bmDMPULLDN | bmHOST); // set pull-downs, Host
    1b4c:	89 81       	ldd	r24, Y+1	; 0x01
    1b4e:	9a 81       	ldd	r25, Y+2	; 0x02
    1b50:	41 ec       	ldi	r20, 0xC1	; 193
    1b52:	68 ed       	ldi	r22, 0xD8	; 216
    1b54:	5c d0       	rcall	.+184    	; 0x1c0e <_ZN8MAX3421eI4TPinI5PortbLh2EES0_IS1_Lh1EEE5regWrEhh>

        regWr(rHIEN, bmCONDETIE | bmFRAMEIE); //connection detection
    1b56:	89 81       	ldd	r24, Y+1	; 0x01
    1b58:	9a 81       	ldd	r25, Y+2	; 0x02
    1b5a:	40 e6       	ldi	r20, 0x60	; 96
    1b5c:	60 ed       	ldi	r22, 0xD0	; 208
    1b5e:	57 d0       	rcall	.+174    	; 0x1c0e <_ZN8MAX3421eI4TPinI5PortbLh2EES0_IS1_Lh1EEE5regWrEhh>

        /* check if device is connected */
        regWr(rHCTL, bmSAMPLEBUS); // sample USB bus
    1b60:	89 81       	ldd	r24, Y+1	; 0x01
    1b62:	9a 81       	ldd	r25, Y+2	; 0x02
    1b64:	44 e0       	ldi	r20, 0x04	; 4
    1b66:	68 ee       	ldi	r22, 0xE8	; 232
    1b68:	52 d0       	rcall	.+164    	; 0x1c0e <_ZN8MAX3421eI4TPinI5PortbLh2EES0_IS1_Lh1EEE5regWrEhh>
        while(!(regRd(rHCTL) & bmSAMPLEBUS)); //wait for sample operation to finish
    1b6a:	00 00       	nop
    1b6c:	89 81       	ldd	r24, Y+1	; 0x01
    1b6e:	9a 81       	ldd	r25, Y+2	; 0x02
    1b70:	68 ee       	ldi	r22, 0xE8	; 232
    1b72:	ba d0       	rcall	.+372    	; 0x1ce8 <_ZN8MAX3421eI4TPinI5PortbLh2EES0_IS1_Lh1EEE5regRdEh>
    1b74:	88 2f       	mov	r24, r24
    1b76:	90 e0       	ldi	r25, 0x00	; 0
    1b78:	84 70       	andi	r24, 0x04	; 4
    1b7a:	99 27       	eor	r25, r25
    1b7c:	21 e0       	ldi	r18, 0x01	; 1
    1b7e:	00 97       	sbiw	r24, 0x00	; 0
    1b80:	09 f0       	breq	.+2      	; 0x1b84 <_ZN8MAX3421eI4TPinI5PortbLh2EES0_IS1_Lh1EEE4InitEv+0x6e>
    1b82:	20 e0       	ldi	r18, 0x00	; 0
    1b84:	22 23       	and	r18, r18
    1b86:	91 f7       	brne	.-28     	; 0x1b6c <_ZN8MAX3421eI4TPinI5PortbLh2EES0_IS1_Lh1EEE4InitEv+0x56>

        busprobe(); //check if anything is connected
    1b88:	89 81       	ldd	r24, Y+1	; 0x01
    1b8a:	9a 81       	ldd	r25, Y+2	; 0x02
    1b8c:	e2 d0       	rcall	.+452    	; 0x1d52 <_ZN8MAX3421eI4TPinI5PortbLh2EES0_IS1_Lh1EEE8busprobeEv>

        regWr(rHIRQ, bmCONDETIRQ); //clear connection detect interrupt
    1b8e:	89 81       	ldd	r24, Y+1	; 0x01
    1b90:	9a 81       	ldd	r25, Y+2	; 0x02
    1b92:	40 e2       	ldi	r20, 0x20	; 32
    1b94:	68 ec       	ldi	r22, 0xC8	; 200
    1b96:	3b d0       	rcall	.+118    	; 0x1c0e <_ZN8MAX3421eI4TPinI5PortbLh2EES0_IS1_Lh1EEE5regWrEhh>
        regWr(rCPUCTL, 0x01); //enable interrupt pin
    1b98:	89 81       	ldd	r24, Y+1	; 0x01
    1b9a:	9a 81       	ldd	r25, Y+2	; 0x02
    1b9c:	41 e0       	ldi	r20, 0x01	; 1
    1b9e:	60 e8       	ldi	r22, 0x80	; 128
    1ba0:	36 d0       	rcall	.+108    	; 0x1c0e <_ZN8MAX3421eI4TPinI5PortbLh2EES0_IS1_Lh1EEE5regWrEhh>

        return ( 0);
    1ba2:	80 e0       	ldi	r24, 0x00	; 0
}
    1ba4:	0f 90       	pop	r0
    1ba6:	0f 90       	pop	r0
    1ba8:	df 91       	pop	r29
    1baa:	cf 91       	pop	r28
    1bac:	08 95       	ret

00001bae <_ZN4TPinI5PortbLh2EE11SetDirWriteEv>:

        static void SetDirRead() {
                PORT::DirClear(1 << PIN);
        }

        static void SetDirWrite() {
    1bae:	cf 93       	push	r28
    1bb0:	df 93       	push	r29
    1bb2:	cd b7       	in	r28, 0x3d	; 61
    1bb4:	de b7       	in	r29, 0x3e	; 62
                PORT::DirSet(1 << PIN);
    1bb6:	84 e0       	ldi	r24, 0x04	; 4
    1bb8:	2b dd       	rcall	.-1450   	; 0x1610 <_ZN5Portb6DirSetEh>
        }
    1bba:	df 91       	pop	r29
    1bbc:	cf 91       	pop	r28
    1bbe:	08 95       	ret

00001bc0 <_ZN4TPinI5PortbLh2EE3SetEv>:

        enum {
                Number = PIN
        };

        static void Set() {
    1bc0:	cf 93       	push	r28
    1bc2:	df 93       	push	r29
    1bc4:	cd b7       	in	r28, 0x3d	; 61
    1bc6:	de b7       	in	r29, 0x3e	; 62
                PORT::Set(1 << PIN);
    1bc8:	84 e0       	ldi	r24, 0x04	; 4
    1bca:	f8 dc       	rcall	.-1552   	; 0x15bc <_ZN5Portb3SetEh>
        }
    1bcc:	df 91       	pop	r29
    1bce:	cf 91       	pop	r28
    1bd0:	08 95       	ret

00001bd2 <_ZN3SPiI4TPinI5PortbLh5EES0_IS1_Lh3EES0_IS1_Lh4EES0_IS1_Lh2EEE4initEv>:
                SPI_SS::Set();
                SPI.begin();
                SPI.setClockDivider(4); // Set speed to 84MHz/4=21MHz - the MAX3421E can handle up to 26MHz
        }
#else
        static void init() {
    1bd2:	cf 93       	push	r28
    1bd4:	df 93       	push	r29
    1bd6:	cd b7       	in	r28, 0x3d	; 61
    1bd8:	de b7       	in	r29, 0x3e	; 62
                //uint8_t tmp;
                SPI_CLK::SetDirWrite();
    1bda:	32 d1       	rcall	.+612    	; 0x1e40 <_ZN4TPinI5PortbLh5EE11SetDirWriteEv>
                SPI_MOSI::SetDirWrite();
    1bdc:	3a d1       	rcall	.+628    	; 0x1e52 <_ZN4TPinI5PortbLh3EE11SetDirWriteEv>
                SPI_MISO::SetDirRead();
    1bde:	42 d1       	rcall	.+644    	; 0x1e64 <_ZN4TPinI5PortbLh4EE10SetDirReadEv>
                SPI_SS::SetDirWrite();
    1be0:	e6 df       	rcall	.-52     	; 0x1bae <_ZN4TPinI5PortbLh2EE11SetDirWriteEv>
                /* mode 00 (CPOL=0, CPHA=0) master, fclk/2. Mode 11 (CPOL=11, CPHA=11) is also supported by MAX3421E */
                //SPCR = 0x50;
				// ketil
				SPCR = 0x50;
    1be2:	8c e4       	ldi	r24, 0x4C	; 76
    1be4:	90 e0       	ldi	r25, 0x00	; 0
    1be6:	20 e5       	ldi	r18, 0x50	; 80
    1be8:	fc 01       	movw	r30, r24
    1bea:	20 83       	st	Z, r18
                SPSR = 0x01; // 0x01
    1bec:	8d e4       	ldi	r24, 0x4D	; 77
    1bee:	90 e0       	ldi	r25, 0x00	; 0
    1bf0:	21 e0       	ldi	r18, 0x01	; 1
    1bf2:	fc 01       	movw	r30, r24
    1bf4:	20 83       	st	Z, r18
				
                /**/
                //tmp = SPSR;
                //tmp = SPDR;
        }
    1bf6:	df 91       	pop	r29
    1bf8:	cf 91       	pop	r28
    1bfa:	08 95       	ret

00001bfc <_ZN4TPinI5PortbLh1EE10SetDirReadEv>:

        static void Toggle() {
                PORT::Toggle(1 << PIN);
        }

        static void SetDirRead() {
    1bfc:	cf 93       	push	r28
    1bfe:	df 93       	push	r29
    1c00:	cd b7       	in	r28, 0x3d	; 61
    1c02:	de b7       	in	r29, 0x3e	; 62
                PORT::DirClear(1 << PIN);
    1c04:	82 e0       	ldi	r24, 0x02	; 2
    1c06:	18 dd       	rcall	.-1488   	; 0x1638 <_ZN5Portb8DirClearEh>
        }
    1c08:	df 91       	pop	r29
    1c0a:	cf 91       	pop	r28
    1c0c:	08 95       	ret

00001c0e <_ZN8MAX3421eI4TPinI5PortbLh2EES0_IS1_Lh1EEE5regWrEhh>:
#endif
};

/* write single byte into MAX3421 register */
template< typename SPI_SS, typename INTR >
void MAX3421e< SPI_SS, INTR >::regWr(uint8_t reg, uint8_t data) {
    1c0e:	cf 93       	push	r28
    1c10:	df 93       	push	r29
    1c12:	00 d0       	rcall	.+0      	; 0x1c14 <_ZN8MAX3421eI4TPinI5PortbLh2EES0_IS1_Lh1EEE5regWrEhh+0x6>
    1c14:	00 d0       	rcall	.+0      	; 0x1c16 <_ZN8MAX3421eI4TPinI5PortbLh2EES0_IS1_Lh1EEE5regWrEhh+0x8>
    1c16:	cd b7       	in	r28, 0x3d	; 61
    1c18:	de b7       	in	r29, 0x3e	; 62
    1c1a:	9a 83       	std	Y+2, r25	; 0x02
    1c1c:	89 83       	std	Y+1, r24	; 0x01
    1c1e:	6b 83       	std	Y+3, r22	; 0x03
    1c20:	4c 83       	std	Y+4, r20	; 0x04
        XMEM_ACQUIRE_SPI();
        SPI_SS::Clear();
    1c22:	29 d1       	rcall	.+594    	; 0x1e76 <_ZN4TPinI5PortbLh2EE5ClearEv>
        spi4teensy3::send(c, 2);
#elif defined(ARDUINO_SAM_DUE) && defined(__SAM3X8E__)
        SPI.transfer(reg | 0x02);
        SPI.transfer(data);
#else
        SPDR = (reg | 0x02);
    1c24:	8e e4       	ldi	r24, 0x4E	; 78
    1c26:	90 e0       	ldi	r25, 0x00	; 0
    1c28:	2b 81       	ldd	r18, Y+3	; 0x03
    1c2a:	22 60       	ori	r18, 0x02	; 2
    1c2c:	fc 01       	movw	r30, r24
    1c2e:	20 83       	st	Z, r18
        while(!(SPSR & (1 << SPIF)));
    1c30:	8d e4       	ldi	r24, 0x4D	; 77
    1c32:	90 e0       	ldi	r25, 0x00	; 0
    1c34:	fc 01       	movw	r30, r24
    1c36:	80 81       	ld	r24, Z
    1c38:	80 95       	com	r24
    1c3a:	88 1f       	adc	r24, r24
    1c3c:	88 27       	eor	r24, r24
    1c3e:	88 1f       	adc	r24, r24
    1c40:	88 23       	and	r24, r24
    1c42:	b1 f7       	brne	.-20     	; 0x1c30 <_ZN8MAX3421eI4TPinI5PortbLh2EES0_IS1_Lh1EEE5regWrEhh+0x22>
        SPDR = data;
    1c44:	8e e4       	ldi	r24, 0x4E	; 78
    1c46:	90 e0       	ldi	r25, 0x00	; 0
    1c48:	2c 81       	ldd	r18, Y+4	; 0x04
    1c4a:	fc 01       	movw	r30, r24
    1c4c:	20 83       	st	Z, r18
        while(!(SPSR & (1 << SPIF)));
    1c4e:	8d e4       	ldi	r24, 0x4D	; 77
    1c50:	90 e0       	ldi	r25, 0x00	; 0
    1c52:	fc 01       	movw	r30, r24
    1c54:	80 81       	ld	r24, Z
    1c56:	80 95       	com	r24
    1c58:	88 1f       	adc	r24, r24
    1c5a:	88 27       	eor	r24, r24
    1c5c:	88 1f       	adc	r24, r24
    1c5e:	88 23       	and	r24, r24
    1c60:	b1 f7       	brne	.-20     	; 0x1c4e <_ZN8MAX3421eI4TPinI5PortbLh2EES0_IS1_Lh1EEE5regWrEhh+0x40>
#endif
        SPI_SS::Set();
    1c62:	ae df       	rcall	.-164    	; 0x1bc0 <_ZN4TPinI5PortbLh2EE3SetEv>
        XMEM_RELEASE_SPI();
        return;
    1c64:	00 00       	nop
};
    1c66:	0f 90       	pop	r0
    1c68:	0f 90       	pop	r0
    1c6a:	0f 90       	pop	r0
    1c6c:	0f 90       	pop	r0
    1c6e:	df 91       	pop	r29
    1c70:	cf 91       	pop	r28
    1c72:	08 95       	ret

00001c74 <_ZN8MAX3421eI4TPinI5PortbLh2EES0_IS1_Lh1EEE5resetEv>:
}

/* reset MAX3421E. Returns number of cycles it took for PLL to stabilize after reset
  or zero if PLL haven't stabilized in 65535 cycles */
template< typename SPI_SS, typename INTR >
uint16_t MAX3421e< SPI_SS, INTR >::reset() {
    1c74:	cf 93       	push	r28
    1c76:	df 93       	push	r29
    1c78:	00 d0       	rcall	.+0      	; 0x1c7a <_ZN8MAX3421eI4TPinI5PortbLh2EES0_IS1_Lh1EEE5resetEv+0x6>
    1c7a:	00 d0       	rcall	.+0      	; 0x1c7c <_ZN8MAX3421eI4TPinI5PortbLh2EES0_IS1_Lh1EEE5resetEv+0x8>
    1c7c:	cd b7       	in	r28, 0x3d	; 61
    1c7e:	de b7       	in	r29, 0x3e	; 62
    1c80:	9c 83       	std	Y+4, r25	; 0x04
    1c82:	8b 83       	std	Y+3, r24	; 0x03
        uint16_t i = 0;
    1c84:	1a 82       	std	Y+2, r1	; 0x02
    1c86:	19 82       	std	Y+1, r1	; 0x01
        regWr(rUSBCTL, bmCHIPRES);
    1c88:	8b 81       	ldd	r24, Y+3	; 0x03
    1c8a:	9c 81       	ldd	r25, Y+4	; 0x04
    1c8c:	40 e2       	ldi	r20, 0x20	; 32
    1c8e:	68 e7       	ldi	r22, 0x78	; 120
    1c90:	be df       	rcall	.-132    	; 0x1c0e <_ZN8MAX3421eI4TPinI5PortbLh2EES0_IS1_Lh1EEE5regWrEhh>
        regWr(rUSBCTL, 0x00);
    1c92:	8b 81       	ldd	r24, Y+3	; 0x03
    1c94:	9c 81       	ldd	r25, Y+4	; 0x04
    1c96:	40 e0       	ldi	r20, 0x00	; 0
    1c98:	68 e7       	ldi	r22, 0x78	; 120
    1c9a:	b9 df       	rcall	.-142    	; 0x1c0e <_ZN8MAX3421eI4TPinI5PortbLh2EES0_IS1_Lh1EEE5regWrEhh>
        while(++i) {
    1c9c:	0f c0       	rjmp	.+30     	; 0x1cbc <_ZN8MAX3421eI4TPinI5PortbLh2EES0_IS1_Lh1EEE5resetEv+0x48>
                if((regRd(rUSBIRQ) & bmOSCOKIRQ)) {
    1c9e:	8b 81       	ldd	r24, Y+3	; 0x03
    1ca0:	9c 81       	ldd	r25, Y+4	; 0x04
    1ca2:	68 e6       	ldi	r22, 0x68	; 104
    1ca4:	21 d0       	rcall	.+66     	; 0x1ce8 <_ZN8MAX3421eI4TPinI5PortbLh2EES0_IS1_Lh1EEE5regRdEh>
    1ca6:	88 2f       	mov	r24, r24
    1ca8:	90 e0       	ldi	r25, 0x00	; 0
    1caa:	81 70       	andi	r24, 0x01	; 1
    1cac:	99 27       	eor	r25, r25
    1cae:	21 e0       	ldi	r18, 0x01	; 1
    1cb0:	00 97       	sbiw	r24, 0x00	; 0
    1cb2:	09 f4       	brne	.+2      	; 0x1cb6 <_ZN8MAX3421eI4TPinI5PortbLh2EES0_IS1_Lh1EEE5resetEv+0x42>
    1cb4:	20 e0       	ldi	r18, 0x00	; 0
    1cb6:	22 23       	and	r18, r18
    1cb8:	09 f0       	breq	.+2      	; 0x1cbc <_ZN8MAX3421eI4TPinI5PortbLh2EES0_IS1_Lh1EEE5resetEv+0x48>
                        break;
    1cba:	0d c0       	rjmp	.+26     	; 0x1cd6 <_ZN8MAX3421eI4TPinI5PortbLh2EES0_IS1_Lh1EEE5resetEv+0x62>
template< typename SPI_SS, typename INTR >
uint16_t MAX3421e< SPI_SS, INTR >::reset() {
        uint16_t i = 0;
        regWr(rUSBCTL, bmCHIPRES);
        regWr(rUSBCTL, 0x00);
        while(++i) {
    1cbc:	89 81       	ldd	r24, Y+1	; 0x01
    1cbe:	9a 81       	ldd	r25, Y+2	; 0x02
    1cc0:	01 96       	adiw	r24, 0x01	; 1
    1cc2:	9a 83       	std	Y+2, r25	; 0x02
    1cc4:	89 83       	std	Y+1, r24	; 0x01
    1cc6:	21 e0       	ldi	r18, 0x01	; 1
    1cc8:	89 81       	ldd	r24, Y+1	; 0x01
    1cca:	9a 81       	ldd	r25, Y+2	; 0x02
    1ccc:	00 97       	sbiw	r24, 0x00	; 0
    1cce:	09 f4       	brne	.+2      	; 0x1cd2 <_ZN8MAX3421eI4TPinI5PortbLh2EES0_IS1_Lh1EEE5resetEv+0x5e>
    1cd0:	20 e0       	ldi	r18, 0x00	; 0
    1cd2:	22 23       	and	r18, r18
    1cd4:	21 f7       	brne	.-56     	; 0x1c9e <_ZN8MAX3421eI4TPinI5PortbLh2EES0_IS1_Lh1EEE5resetEv+0x2a>
                if((regRd(rUSBIRQ) & bmOSCOKIRQ)) {
                        break;
                }
        }
        return ( i);
    1cd6:	89 81       	ldd	r24, Y+1	; 0x01
    1cd8:	9a 81       	ldd	r25, Y+2	; 0x02
}
    1cda:	0f 90       	pop	r0
    1cdc:	0f 90       	pop	r0
    1cde:	0f 90       	pop	r0
    1ce0:	0f 90       	pop	r0
    1ce2:	df 91       	pop	r29
    1ce4:	cf 91       	pop	r28
    1ce6:	08 95       	ret

00001ce8 <_ZN8MAX3421eI4TPinI5PortbLh2EES0_IS1_Lh1EEE5regRdEh>:
        return;
}

/* single host register read    */
template< typename SPI_SS, typename INTR >
uint8_t MAX3421e< SPI_SS, INTR >::regRd(uint8_t reg) {
    1ce8:	cf 93       	push	r28
    1cea:	df 93       	push	r29
    1cec:	00 d0       	rcall	.+0      	; 0x1cee <_ZN8MAX3421eI4TPinI5PortbLh2EES0_IS1_Lh1EEE5regRdEh+0x6>
    1cee:	00 d0       	rcall	.+0      	; 0x1cf0 <_ZN8MAX3421eI4TPinI5PortbLh2EES0_IS1_Lh1EEE5regRdEh+0x8>
    1cf0:	cd b7       	in	r28, 0x3d	; 61
    1cf2:	de b7       	in	r29, 0x3e	; 62
    1cf4:	9b 83       	std	Y+3, r25	; 0x03
    1cf6:	8a 83       	std	Y+2, r24	; 0x02
    1cf8:	6c 83       	std	Y+4, r22	; 0x04
        XMEM_ACQUIRE_SPI();
        SPI_SS::Clear();
    1cfa:	bd d0       	rcall	.+378    	; 0x1e76 <_ZN4TPinI5PortbLh2EE5ClearEv>
#elif defined(ARDUINO_SAM_DUE) && defined(__SAM3X8E__)
        SPI.transfer(reg);
        uint8_t rv = SPI.transfer(0);
        SPI_SS::Set();
#else
        SPDR = reg;
    1cfc:	8e e4       	ldi	r24, 0x4E	; 78
    1cfe:	90 e0       	ldi	r25, 0x00	; 0
    1d00:	2c 81       	ldd	r18, Y+4	; 0x04
    1d02:	fc 01       	movw	r30, r24
    1d04:	20 83       	st	Z, r18
        while(!(SPSR & (1 << SPIF)));
    1d06:	8d e4       	ldi	r24, 0x4D	; 77
    1d08:	90 e0       	ldi	r25, 0x00	; 0
    1d0a:	fc 01       	movw	r30, r24
    1d0c:	80 81       	ld	r24, Z
    1d0e:	80 95       	com	r24
    1d10:	88 1f       	adc	r24, r24
    1d12:	88 27       	eor	r24, r24
    1d14:	88 1f       	adc	r24, r24
    1d16:	88 23       	and	r24, r24
    1d18:	b1 f7       	brne	.-20     	; 0x1d06 <_ZN8MAX3421eI4TPinI5PortbLh2EES0_IS1_Lh1EEE5regRdEh+0x1e>
        SPDR = 0; //send empty byte
    1d1a:	8e e4       	ldi	r24, 0x4E	; 78
    1d1c:	90 e0       	ldi	r25, 0x00	; 0
    1d1e:	fc 01       	movw	r30, r24
    1d20:	10 82       	st	Z, r1
        while(!(SPSR & (1 << SPIF)));
    1d22:	8d e4       	ldi	r24, 0x4D	; 77
    1d24:	90 e0       	ldi	r25, 0x00	; 0
    1d26:	fc 01       	movw	r30, r24
    1d28:	80 81       	ld	r24, Z
    1d2a:	80 95       	com	r24
    1d2c:	88 1f       	adc	r24, r24
    1d2e:	88 27       	eor	r24, r24
    1d30:	88 1f       	adc	r24, r24
    1d32:	88 23       	and	r24, r24
    1d34:	b1 f7       	brne	.-20     	; 0x1d22 <_ZN8MAX3421eI4TPinI5PortbLh2EES0_IS1_Lh1EEE5regRdEh+0x3a>
        SPI_SS::Set();
    1d36:	44 df       	rcall	.-376    	; 0x1bc0 <_ZN4TPinI5PortbLh2EE3SetEv>
        uint8_t rv = SPDR;
    1d38:	8e e4       	ldi	r24, 0x4E	; 78
    1d3a:	90 e0       	ldi	r25, 0x00	; 0
    1d3c:	fc 01       	movw	r30, r24
    1d3e:	80 81       	ld	r24, Z
    1d40:	89 83       	std	Y+1, r24	; 0x01
#endif
        XMEM_RELEASE_SPI();
        return (rv);
    1d42:	89 81       	ldd	r24, Y+1	; 0x01
}
    1d44:	0f 90       	pop	r0
    1d46:	0f 90       	pop	r0
    1d48:	0f 90       	pop	r0
    1d4a:	0f 90       	pop	r0
    1d4c:	df 91       	pop	r29
    1d4e:	cf 91       	pop	r28
    1d50:	08 95       	ret

00001d52 <_ZN8MAX3421eI4TPinI5PortbLh2EES0_IS1_Lh1EEE8busprobeEv>:
        return ( 0);
}

/* probe bus to determine device presence and speed and switch host to this speed */
template< typename SPI_SS, typename INTR >
void MAX3421e< SPI_SS, INTR >::busprobe() {
    1d52:	cf 93       	push	r28
    1d54:	df 93       	push	r29
    1d56:	00 d0       	rcall	.+0      	; 0x1d58 <_ZN8MAX3421eI4TPinI5PortbLh2EES0_IS1_Lh1EEE8busprobeEv+0x6>
    1d58:	1f 92       	push	r1
    1d5a:	cd b7       	in	r28, 0x3d	; 61
    1d5c:	de b7       	in	r29, 0x3e	; 62
    1d5e:	9b 83       	std	Y+3, r25	; 0x03
    1d60:	8a 83       	std	Y+2, r24	; 0x02
        uint8_t bus_sample;
        bus_sample = regRd(rHRSL); //Get J,K status
    1d62:	8a 81       	ldd	r24, Y+2	; 0x02
    1d64:	9b 81       	ldd	r25, Y+3	; 0x03
    1d66:	68 ef       	ldi	r22, 0xF8	; 248
    1d68:	bf df       	rcall	.-130    	; 0x1ce8 <_ZN8MAX3421eI4TPinI5PortbLh2EES0_IS1_Lh1EEE5regRdEh>
    1d6a:	89 83       	std	Y+1, r24	; 0x01
        bus_sample &= (bmJSTATUS | bmKSTATUS); //zero the rest of the byte
    1d6c:	89 81       	ldd	r24, Y+1	; 0x01
    1d6e:	80 7c       	andi	r24, 0xC0	; 192
    1d70:	89 83       	std	Y+1, r24	; 0x01
        switch(bus_sample) { //start full-speed or low-speed host
    1d72:	89 81       	ldd	r24, Y+1	; 0x01
    1d74:	88 2f       	mov	r24, r24
    1d76:	90 e0       	ldi	r25, 0x00	; 0
    1d78:	80 34       	cpi	r24, 0x40	; 64
    1d7a:	91 05       	cpc	r25, r1
    1d7c:	79 f1       	breq	.+94     	; 0x1ddc <_ZN8MAX3421eI4TPinI5PortbLh2EES0_IS1_Lh1EEE8busprobeEv+0x8a>
    1d7e:	81 34       	cpi	r24, 0x41	; 65
    1d80:	91 05       	cpc	r25, r1
    1d82:	24 f4       	brge	.+8      	; 0x1d8c <_ZN8MAX3421eI4TPinI5PortbLh2EES0_IS1_Lh1EEE8busprobeEv+0x3a>
    1d84:	00 97       	sbiw	r24, 0x00	; 0
    1d86:	09 f4       	brne	.+2      	; 0x1d8a <_ZN8MAX3421eI4TPinI5PortbLh2EES0_IS1_Lh1EEE8busprobeEv+0x38>
    1d88:	4d c0       	rjmp	.+154    	; 0x1e24 <_ZN8MAX3421eI4TPinI5PortbLh2EES0_IS1_Lh1EEE8busprobeEv+0xd2>
    1d8a:	54 c0       	rjmp	.+168    	; 0x1e34 <_ZN8MAX3421eI4TPinI5PortbLh2EES0_IS1_Lh1EEE8busprobeEv+0xe2>
    1d8c:	80 38       	cpi	r24, 0x80	; 128
    1d8e:	91 05       	cpc	r25, r1
    1d90:	29 f0       	breq	.+10     	; 0x1d9c <_ZN8MAX3421eI4TPinI5PortbLh2EES0_IS1_Lh1EEE8busprobeEv+0x4a>
    1d92:	80 3c       	cpi	r24, 0xC0	; 192
    1d94:	91 05       	cpc	r25, r1
    1d96:	09 f4       	brne	.+2      	; 0x1d9a <_ZN8MAX3421eI4TPinI5PortbLh2EES0_IS1_Lh1EEE8busprobeEv+0x48>
    1d98:	41 c0       	rjmp	.+130    	; 0x1e1c <_ZN8MAX3421eI4TPinI5PortbLh2EES0_IS1_Lh1EEE8busprobeEv+0xca>
    1d9a:	4c c0       	rjmp	.+152    	; 0x1e34 <_ZN8MAX3421eI4TPinI5PortbLh2EES0_IS1_Lh1EEE8busprobeEv+0xe2>
                case( bmJSTATUS):
                        if((regRd(rMODE) & bmLOWSPEED) == 0) {
    1d9c:	8a 81       	ldd	r24, Y+2	; 0x02
    1d9e:	9b 81       	ldd	r25, Y+3	; 0x03
    1da0:	68 ed       	ldi	r22, 0xD8	; 216
    1da2:	a2 df       	rcall	.-188    	; 0x1ce8 <_ZN8MAX3421eI4TPinI5PortbLh2EES0_IS1_Lh1EEE5regRdEh>
    1da4:	88 2f       	mov	r24, r24
    1da6:	90 e0       	ldi	r25, 0x00	; 0
    1da8:	82 70       	andi	r24, 0x02	; 2
    1daa:	99 27       	eor	r25, r25
    1dac:	21 e0       	ldi	r18, 0x01	; 1
    1dae:	00 97       	sbiw	r24, 0x00	; 0
    1db0:	09 f0       	breq	.+2      	; 0x1db4 <_ZN8MAX3421eI4TPinI5PortbLh2EES0_IS1_Lh1EEE8busprobeEv+0x62>
    1db2:	20 e0       	ldi	r18, 0x00	; 0
    1db4:	22 23       	and	r18, r18
    1db6:	49 f0       	breq	.+18     	; 0x1dca <_ZN8MAX3421eI4TPinI5PortbLh2EES0_IS1_Lh1EEE8busprobeEv+0x78>
                                regWr(rMODE, MODE_FS_HOST); //start full-speed host
    1db8:	8a 81       	ldd	r24, Y+2	; 0x02
    1dba:	9b 81       	ldd	r25, Y+3	; 0x03
    1dbc:	49 ec       	ldi	r20, 0xC9	; 201
    1dbe:	68 ed       	ldi	r22, 0xD8	; 216
    1dc0:	26 df       	rcall	.-436    	; 0x1c0e <_ZN8MAX3421eI4TPinI5PortbLh2EES0_IS1_Lh1EEE5regWrEhh>
                                vbusState = FSHOST;
    1dc2:	82 e0       	ldi	r24, 0x02	; 2
    1dc4:	80 93 b3 03 	sts	0x03B3, r24
                        } else {
                                regWr(rMODE, MODE_LS_HOST); //start low-speed host
                                vbusState = LSHOST;
                        }
                        break;
    1dc8:	35 c0       	rjmp	.+106    	; 0x1e34 <_ZN8MAX3421eI4TPinI5PortbLh2EES0_IS1_Lh1EEE8busprobeEv+0xe2>
                case( bmJSTATUS):
                        if((regRd(rMODE) & bmLOWSPEED) == 0) {
                                regWr(rMODE, MODE_FS_HOST); //start full-speed host
                                vbusState = FSHOST;
                        } else {
                                regWr(rMODE, MODE_LS_HOST); //start low-speed host
    1dca:	8a 81       	ldd	r24, Y+2	; 0x02
    1dcc:	9b 81       	ldd	r25, Y+3	; 0x03
    1dce:	4b ec       	ldi	r20, 0xCB	; 203
    1dd0:	68 ed       	ldi	r22, 0xD8	; 216
    1dd2:	1d df       	rcall	.-454    	; 0x1c0e <_ZN8MAX3421eI4TPinI5PortbLh2EES0_IS1_Lh1EEE5regWrEhh>
                                vbusState = LSHOST;
    1dd4:	83 e0       	ldi	r24, 0x03	; 3
    1dd6:	80 93 b3 03 	sts	0x03B3, r24
                        }
                        break;
    1dda:	2c c0       	rjmp	.+88     	; 0x1e34 <_ZN8MAX3421eI4TPinI5PortbLh2EES0_IS1_Lh1EEE8busprobeEv+0xe2>
                case( bmKSTATUS):
                        if((regRd(rMODE) & bmLOWSPEED) == 0) {
    1ddc:	8a 81       	ldd	r24, Y+2	; 0x02
    1dde:	9b 81       	ldd	r25, Y+3	; 0x03
    1de0:	68 ed       	ldi	r22, 0xD8	; 216
    1de2:	82 df       	rcall	.-252    	; 0x1ce8 <_ZN8MAX3421eI4TPinI5PortbLh2EES0_IS1_Lh1EEE5regRdEh>
    1de4:	88 2f       	mov	r24, r24
    1de6:	90 e0       	ldi	r25, 0x00	; 0
    1de8:	82 70       	andi	r24, 0x02	; 2
    1dea:	99 27       	eor	r25, r25
    1dec:	21 e0       	ldi	r18, 0x01	; 1
    1dee:	00 97       	sbiw	r24, 0x00	; 0
    1df0:	09 f0       	breq	.+2      	; 0x1df4 <_ZN8MAX3421eI4TPinI5PortbLh2EES0_IS1_Lh1EEE8busprobeEv+0xa2>
    1df2:	20 e0       	ldi	r18, 0x00	; 0
    1df4:	22 23       	and	r18, r18
    1df6:	49 f0       	breq	.+18     	; 0x1e0a <_ZN8MAX3421eI4TPinI5PortbLh2EES0_IS1_Lh1EEE8busprobeEv+0xb8>
                                regWr(rMODE, MODE_LS_HOST); //start low-speed host
    1df8:	8a 81       	ldd	r24, Y+2	; 0x02
    1dfa:	9b 81       	ldd	r25, Y+3	; 0x03
    1dfc:	4b ec       	ldi	r20, 0xCB	; 203
    1dfe:	68 ed       	ldi	r22, 0xD8	; 216
    1e00:	06 df       	rcall	.-500    	; 0x1c0e <_ZN8MAX3421eI4TPinI5PortbLh2EES0_IS1_Lh1EEE5regWrEhh>
                                vbusState = LSHOST;
    1e02:	83 e0       	ldi	r24, 0x03	; 3
    1e04:	80 93 b3 03 	sts	0x03B3, r24
                        } else {
                                regWr(rMODE, MODE_FS_HOST); //start full-speed host
                                vbusState = FSHOST;
                        }
                        break;
    1e08:	15 c0       	rjmp	.+42     	; 0x1e34 <_ZN8MAX3421eI4TPinI5PortbLh2EES0_IS1_Lh1EEE8busprobeEv+0xe2>
                case( bmKSTATUS):
                        if((regRd(rMODE) & bmLOWSPEED) == 0) {
                                regWr(rMODE, MODE_LS_HOST); //start low-speed host
                                vbusState = LSHOST;
                        } else {
                                regWr(rMODE, MODE_FS_HOST); //start full-speed host
    1e0a:	8a 81       	ldd	r24, Y+2	; 0x02
    1e0c:	9b 81       	ldd	r25, Y+3	; 0x03
    1e0e:	49 ec       	ldi	r20, 0xC9	; 201
    1e10:	68 ed       	ldi	r22, 0xD8	; 216
    1e12:	fd de       	rcall	.-518    	; 0x1c0e <_ZN8MAX3421eI4TPinI5PortbLh2EES0_IS1_Lh1EEE5regWrEhh>
                                vbusState = FSHOST;
    1e14:	82 e0       	ldi	r24, 0x02	; 2
    1e16:	80 93 b3 03 	sts	0x03B3, r24
                        }
                        break;
    1e1a:	0c c0       	rjmp	.+24     	; 0x1e34 <_ZN8MAX3421eI4TPinI5PortbLh2EES0_IS1_Lh1EEE8busprobeEv+0xe2>
                case( bmSE1): //illegal state
                        vbusState = SE1;
    1e1c:	81 e0       	ldi	r24, 0x01	; 1
    1e1e:	80 93 b3 03 	sts	0x03B3, r24
                        break;
    1e22:	08 c0       	rjmp	.+16     	; 0x1e34 <_ZN8MAX3421eI4TPinI5PortbLh2EES0_IS1_Lh1EEE8busprobeEv+0xe2>
                case( bmSE0): //disconnected state
                        regWr(rMODE, bmDPPULLDN | bmDMPULLDN | bmHOST | bmSEPIRQ);
    1e24:	8a 81       	ldd	r24, Y+2	; 0x02
    1e26:	9b 81       	ldd	r25, Y+3	; 0x03
    1e28:	41 ed       	ldi	r20, 0xD1	; 209
    1e2a:	68 ed       	ldi	r22, 0xD8	; 216
    1e2c:	f0 de       	rcall	.-544    	; 0x1c0e <_ZN8MAX3421eI4TPinI5PortbLh2EES0_IS1_Lh1EEE5regWrEhh>
                        vbusState = SE0;
    1e2e:	10 92 b3 03 	sts	0x03B3, r1
                        break;
    1e32:	00 00       	nop
        }//end switch( bus_sample )
}
    1e34:	0f 90       	pop	r0
    1e36:	0f 90       	pop	r0
    1e38:	0f 90       	pop	r0
    1e3a:	df 91       	pop	r29
    1e3c:	cf 91       	pop	r28
    1e3e:	08 95       	ret

00001e40 <_ZN4TPinI5PortbLh5EE11SetDirWriteEv>:

        static void SetDirWrite() {
    1e40:	cf 93       	push	r28
    1e42:	df 93       	push	r29
    1e44:	cd b7       	in	r28, 0x3d	; 61
    1e46:	de b7       	in	r29, 0x3e	; 62
                PORT::DirSet(1 << PIN);
    1e48:	80 e2       	ldi	r24, 0x20	; 32
    1e4a:	e2 db       	rcall	.-2108   	; 0x1610 <_ZN5Portb6DirSetEh>
        }
    1e4c:	df 91       	pop	r29
    1e4e:	cf 91       	pop	r28
    1e50:	08 95       	ret

00001e52 <_ZN4TPinI5PortbLh3EE11SetDirWriteEv>:

        static void SetDirRead() {
                PORT::DirClear(1 << PIN);
        }

        static void SetDirWrite() {
    1e52:	cf 93       	push	r28
    1e54:	df 93       	push	r29
    1e56:	cd b7       	in	r28, 0x3d	; 61
    1e58:	de b7       	in	r29, 0x3e	; 62
                PORT::DirSet(1 << PIN);
    1e5a:	88 e0       	ldi	r24, 0x08	; 8
    1e5c:	d9 db       	rcall	.-2126   	; 0x1610 <_ZN5Portb6DirSetEh>
        }
    1e5e:	df 91       	pop	r29
    1e60:	cf 91       	pop	r28
    1e62:	08 95       	ret

00001e64 <_ZN4TPinI5PortbLh4EE10SetDirReadEv>:

        static void Toggle() {
                PORT::Toggle(1 << PIN);
        }

        static void SetDirRead() {
    1e64:	cf 93       	push	r28
    1e66:	df 93       	push	r29
    1e68:	cd b7       	in	r28, 0x3d	; 61
    1e6a:	de b7       	in	r29, 0x3e	; 62
                PORT::DirClear(1 << PIN);
    1e6c:	80 e1       	ldi	r24, 0x10	; 16
    1e6e:	e4 db       	rcall	.-2104   	; 0x1638 <_ZN5Portb8DirClearEh>
        }
    1e70:	df 91       	pop	r29
    1e72:	cf 91       	pop	r28
    1e74:	08 95       	ret

00001e76 <_ZN4TPinI5PortbLh2EE5ClearEv>:
                if(val)
                        SetDirWrite();
                else SetDirRead();
        }

        static void Clear() {
    1e76:	cf 93       	push	r28
    1e78:	df 93       	push	r29
    1e7a:	cd b7       	in	r28, 0x3d	; 61
    1e7c:	de b7       	in	r29, 0x3e	; 62
                PORT::Clear(1 << PIN);
    1e7e:	84 e0       	ldi	r24, 0x04	; 4
    1e80:	b1 db       	rcall	.-2206   	; 0x15e4 <_ZN5Portb5ClearEh>
        }
    1e82:	df 91       	pop	r29
    1e84:	cf 91       	pop	r28
    1e86:	08 95       	ret

00001e88 <_Z41__static_initialization_and_destruction_0ii>:
    1e88:	ef 92       	push	r14
    1e8a:	ff 92       	push	r15
    1e8c:	0f 93       	push	r16
    1e8e:	1f 93       	push	r17
    1e90:	cf 93       	push	r28
    1e92:	df 93       	push	r29
    1e94:	00 d0       	rcall	.+0      	; 0x1e96 <_Z41__static_initialization_and_destruction_0ii+0xe>
    1e96:	00 d0       	rcall	.+0      	; 0x1e98 <_Z41__static_initialization_and_destruction_0ii+0x10>
    1e98:	cd b7       	in	r28, 0x3d	; 61
    1e9a:	de b7       	in	r29, 0x3e	; 62
    1e9c:	9a 83       	std	Y+2, r25	; 0x02
    1e9e:	89 83       	std	Y+1, r24	; 0x01
    1ea0:	7c 83       	std	Y+4, r23	; 0x04
    1ea2:	6b 83       	std	Y+3, r22	; 0x03
    1ea4:	89 81       	ldd	r24, Y+1	; 0x01
    1ea6:	9a 81       	ldd	r25, Y+2	; 0x02
    1ea8:	81 30       	cpi	r24, 0x01	; 1
    1eaa:	91 05       	cpc	r25, r1
    1eac:	09 f0       	breq	.+2      	; 0x1eb0 <_Z41__static_initialization_and_destruction_0ii+0x28>
    1eae:	6f c0       	rjmp	.+222    	; 0x1f8e <_Z41__static_initialization_and_destruction_0ii+0x106>
    1eb0:	8b 81       	ldd	r24, Y+3	; 0x03
    1eb2:	9c 81       	ldd	r25, Y+4	; 0x04
    1eb4:	8f 3f       	cpi	r24, 0xFF	; 255
    1eb6:	2f ef       	ldi	r18, 0xFF	; 255
    1eb8:	92 07       	cpc	r25, r18
    1eba:	09 f0       	breq	.+2      	; 0x1ebe <_Z41__static_initialization_and_destruction_0ii+0x36>
    1ebc:	68 c0       	rjmp	.+208    	; 0x1f8e <_Z41__static_initialization_and_destruction_0ii+0x106>
#include "RunFocusStackHandler.h"
#include "Button.h"


// g_pump dispatches MSG from Button objects to the current IMessageHandler
MessagePump		g_pump(NULL);
    1ebe:	60 e0       	ldi	r22, 0x00	; 0
    1ec0:	70 e0       	ldi	r23, 0x00	; 0
    1ec2:	8a e6       	ldi	r24, 0x6A	; 106
    1ec4:	92 e0       	ldi	r25, 0x02	; 2
    1ec6:	c7 d2       	rcall	.+1422   	; 0x2456 <_ZN11MessagePumpC1EP15IMessageHandler>
// Default handler displayed on startup, and return from the other
// handlers.
MainMenuHandler	g_main(&g_pump);
    1ec8:	6a e6       	ldi	r22, 0x6A	; 106
    1eca:	72 e0       	ldi	r23, 0x02	; 2
    1ecc:	8c e6       	ldi	r24, 0x6C	; 108
    1ece:	92 e0       	ldi	r25, 0x02	; 2
    1ed0:	aa d0       	rcall	.+340    	; 0x2026 <_ZN15MainMenuHandlerC1EP11MessagePump>
// Handler to setup focus stack parameters
SetupHandler	g_setup(&g_pump, 250, 10);
    1ed2:	1a e0       	ldi	r17, 0x0A	; 10
    1ed4:	e1 2e       	mov	r14, r17
    1ed6:	f1 2c       	mov	r15, r1
    1ed8:	00 e0       	ldi	r16, 0x00	; 0
    1eda:	10 e0       	ldi	r17, 0x00	; 0
    1edc:	2a ef       	ldi	r18, 0xFA	; 250
    1ede:	30 e0       	ldi	r19, 0x00	; 0
    1ee0:	40 e0       	ldi	r20, 0x00	; 0
    1ee2:	50 e0       	ldi	r21, 0x00	; 0
    1ee4:	6a e6       	ldi	r22, 0x6A	; 106
    1ee6:	72 e0       	ldi	r23, 0x02	; 2
    1ee8:	8a e7       	ldi	r24, 0x7A	; 122
    1eea:	92 e0       	ldi	r25, 0x02	; 2
    1eec:	0e 94 c1 1d 	call	0x3b82	; 0x3b82 <_ZN12SetupHandlerC1EP11MessagePumpmm>
// Handler for focus stack execution
RunFocusStackHandler g_runStack(&g_pump);
    1ef0:	6a e6       	ldi	r22, 0x6A	; 106
    1ef2:	72 e0       	ldi	r23, 0x02	; 2
    1ef4:	85 e9       	ldi	r24, 0x95	; 149
    1ef6:	92 e0       	ldi	r25, 0x02	; 2
    1ef8:	0e 94 36 1c 	call	0x386c	; 0x386c <_ZN20RunFocusStackHandlerC1EP11MessagePump>
SetupHandler            *g_pSetup	 = &g_setup;
RunFocusStackHandler    *g_pRunStack = &g_runStack;
MessagePump             *g_pPump     = &g_pump;

// USB/Ptp objects
USB                 Usb;
    1efc:	87 ea       	ldi	r24, 0xA7	; 167
    1efe:	92 e0       	ldi	r25, 0x02	; 2
    1f00:	0e 94 25 35 	call	0x6a4a	; 0x6a4a <_ZN3USBC1Ev>
//USBHub              Hub1(&Usb);
NikType003StateHandler nk3State;
    1f04:	8e e1       	ldi	r24, 0x1E	; 30
    1f06:	93 e0       	ldi	r25, 0x03	; 3
    1f08:	0e 94 ee 1a 	call	0x35dc	; 0x35dc <_ZN22NikType003StateHandlerC1Ev>
NikType003  nk3(&Usb, &nk3State);
    1f0c:	4e e1       	ldi	r20, 0x1E	; 30
    1f0e:	53 e0       	ldi	r21, 0x03	; 3
    1f10:	67 ea       	ldi	r22, 0xA7	; 167
    1f12:	72 e0       	ldi	r23, 0x02	; 2
    1f14:	81 e2       	ldi	r24, 0x21	; 33
    1f16:	93 e0       	ldi	r25, 0x03	; 3
    1f18:	be d4       	rcall	.+2428   	; 0x2896 <_ZN10NikType003C1EP3USBP16PTPStateHandlers>

// The shield uses the I2C SCL and SDA pins. On classic Arduinos
// this is Analog 4 and 5 so you can't use those for analogRead() anymore
// However, you can connect other I2C sensors to the I2C bus and share
// the I2C bus.
Adafruit_RGBLCDShield lcd = Adafruit_RGBLCDShield();
    1f1a:	87 e5       	ldi	r24, 0x57	; 87
    1f1c:	93 e0       	ldi	r25, 0x03	; 3
    1f1e:	0e 94 ca 04 	call	0x994	; 0x994 <_ZN21Adafruit_RGBLCDShieldC1Ev>
Adafruit_RGBLCDShield *g_print = &lcd;
ReadAdaFruitLcdButtonState buttonStateReader (g_print);
    1f22:	80 91 0a 01 	lds	r24, 0x010A
    1f26:	90 91 0b 01 	lds	r25, 0x010B
    1f2a:	bc 01       	movw	r22, r24
    1f2c:	83 e7       	ldi	r24, 0x73	; 115
    1f2e:	93 e0       	ldi	r25, 0x03	; 3
    1f30:	0e 94 b5 1b 	call	0x376a	; 0x376a <_ZN26ReadAdaFruitLcdButtonStateC1EP21Adafruit_RGBLCDShield>

// Buttons also implemented using the Adafruit LCD shield kit.
Button buttonLeft(&buttonStateReader, BUTTON_LEFT, eLeft, HIGH);
    1f34:	01 e0       	ldi	r16, 0x01	; 1
    1f36:	20 e0       	ldi	r18, 0x00	; 0
    1f38:	40 e1       	ldi	r20, 0x10	; 16
    1f3a:	50 e0       	ldi	r21, 0x00	; 0
    1f3c:	63 e7       	ldi	r22, 0x73	; 115
    1f3e:	73 e0       	ldi	r23, 0x03	; 3
    1f40:	87 e7       	ldi	r24, 0x77	; 119
    1f42:	93 e0       	ldi	r25, 0x03	; 3
    1f44:	6a da       	rcall	.-2860   	; 0x141a <_ZN6ButtonC1EP15ReadButtonStatei7MsgCodeb>
Button buttonRight(&buttonStateReader, BUTTON_RIGHT, eRight, HIGH);
    1f46:	01 e0       	ldi	r16, 0x01	; 1
    1f48:	21 e0       	ldi	r18, 0x01	; 1
    1f4a:	42 e0       	ldi	r20, 0x02	; 2
    1f4c:	50 e0       	ldi	r21, 0x00	; 0
    1f4e:	63 e7       	ldi	r22, 0x73	; 115
    1f50:	73 e0       	ldi	r23, 0x03	; 3
    1f52:	83 e8       	ldi	r24, 0x83	; 131
    1f54:	93 e0       	ldi	r25, 0x03	; 3
    1f56:	61 da       	rcall	.-2878   	; 0x141a <_ZN6ButtonC1EP15ReadButtonStatei7MsgCodeb>
Button buttonUp(&buttonStateReader, BUTTON_UP, eUp, HIGH);
    1f58:	01 e0       	ldi	r16, 0x01	; 1
    1f5a:	22 e0       	ldi	r18, 0x02	; 2
    1f5c:	48 e0       	ldi	r20, 0x08	; 8
    1f5e:	50 e0       	ldi	r21, 0x00	; 0
    1f60:	63 e7       	ldi	r22, 0x73	; 115
    1f62:	73 e0       	ldi	r23, 0x03	; 3
    1f64:	8f e8       	ldi	r24, 0x8F	; 143
    1f66:	93 e0       	ldi	r25, 0x03	; 3
    1f68:	58 da       	rcall	.-2896   	; 0x141a <_ZN6ButtonC1EP15ReadButtonStatei7MsgCodeb>
Button buttonDown(&buttonStateReader, BUTTON_DOWN, eDown, HIGH);
    1f6a:	01 e0       	ldi	r16, 0x01	; 1
    1f6c:	23 e0       	ldi	r18, 0x03	; 3
    1f6e:	44 e0       	ldi	r20, 0x04	; 4
    1f70:	50 e0       	ldi	r21, 0x00	; 0
    1f72:	63 e7       	ldi	r22, 0x73	; 115
    1f74:	73 e0       	ldi	r23, 0x03	; 3
    1f76:	8b e9       	ldi	r24, 0x9B	; 155
    1f78:	93 e0       	ldi	r25, 0x03	; 3
    1f7a:	4f da       	rcall	.-2914   	; 0x141a <_ZN6ButtonC1EP15ReadButtonStatei7MsgCodeb>
Button buttonSelect(&buttonStateReader, BUTTON_SELECT, eSelect, HIGH);
    1f7c:	01 e0       	ldi	r16, 0x01	; 1
    1f7e:	24 e0       	ldi	r18, 0x04	; 4
    1f80:	41 e0       	ldi	r20, 0x01	; 1
    1f82:	50 e0       	ldi	r21, 0x00	; 0
    1f84:	63 e7       	ldi	r22, 0x73	; 115
    1f86:	73 e0       	ldi	r23, 0x03	; 3
    1f88:	87 ea       	ldi	r24, 0xA7	; 167
    1f8a:	93 e0       	ldi	r25, 0x03	; 3
    1f8c:	46 da       	rcall	.-2932   	; 0x141a <_ZN6ButtonC1EP15ReadButtonStatei7MsgCodeb>
    1f8e:	89 81       	ldd	r24, Y+1	; 0x01
    1f90:	9a 81       	ldd	r25, Y+2	; 0x02
    1f92:	00 97       	sbiw	r24, 0x00	; 0
    1f94:	a9 f4       	brne	.+42     	; 0x1fc0 <_Z41__static_initialization_and_destruction_0ii+0x138>
    1f96:	8b 81       	ldd	r24, Y+3	; 0x03
    1f98:	9c 81       	ldd	r25, Y+4	; 0x04
    1f9a:	8f 3f       	cpi	r24, 0xFF	; 255
    1f9c:	2f ef       	ldi	r18, 0xFF	; 255
    1f9e:	92 07       	cpc	r25, r18
    1fa0:	79 f4       	brne	.+30     	; 0x1fc0 <_Z41__static_initialization_and_destruction_0ii+0x138>
// this is Analog 4 and 5 so you can't use those for analogRead() anymore
// However, you can connect other I2C sensors to the I2C bus and share
// the I2C bus.
Adafruit_RGBLCDShield lcd = Adafruit_RGBLCDShield();
Adafruit_RGBLCDShield *g_print = &lcd;
ReadAdaFruitLcdButtonState buttonStateReader (g_print);
    1fa2:	83 e7       	ldi	r24, 0x73	; 115
    1fa4:	93 e0       	ldi	r25, 0x03	; 3
    1fa6:	0e 94 d7 1b 	call	0x37ae	; 0x37ae <_ZN26ReadAdaFruitLcdButtonStateD1Ev>
// handlers.
MainMenuHandler	g_main(&g_pump);
// Handler to setup focus stack parameters
SetupHandler	g_setup(&g_pump, 250, 10);
// Handler for focus stack execution
RunFocusStackHandler g_runStack(&g_pump);
    1faa:	85 e9       	ldi	r24, 0x95	; 149
    1fac:	92 e0       	ldi	r25, 0x02	; 2
    1fae:	0e 94 61 1c 	call	0x38c2	; 0x38c2 <_ZN20RunFocusStackHandlerD1Ev>
MessagePump		g_pump(NULL);
// Default handler displayed on startup, and return from the other
// handlers.
MainMenuHandler	g_main(&g_pump);
// Handler to setup focus stack parameters
SetupHandler	g_setup(&g_pump, 250, 10);
    1fb2:	8a e7       	ldi	r24, 0x7A	; 122
    1fb4:	92 e0       	ldi	r25, 0x02	; 2
    1fb6:	0e 94 33 1e 	call	0x3c66	; 0x3c66 <_ZN12SetupHandlerD1Ev>

// g_pump dispatches MSG from Button objects to the current IMessageHandler
MessagePump		g_pump(NULL);
// Default handler displayed on startup, and return from the other
// handlers.
MainMenuHandler	g_main(&g_pump);
    1fba:	8c e6       	ldi	r24, 0x6C	; 108
    1fbc:	92 e0       	ldi	r25, 0x02	; 2
    1fbe:	5f d0       	rcall	.+190    	; 0x207e <_ZN15MainMenuHandlerD1Ev>
				// Flash recharging: put up a countdown timer once a second.
				g_pRunStack->reportDelay((g_pSetup->getFrameDelayMilliseconds() - now + nk3.getTimeLastCaptureComplete())  / 1000 + 1);
			}
		}
	}
}
    1fc0:	0f 90       	pop	r0
    1fc2:	0f 90       	pop	r0
    1fc4:	0f 90       	pop	r0
    1fc6:	0f 90       	pop	r0
    1fc8:	df 91       	pop	r29
    1fca:	cf 91       	pop	r28
    1fcc:	1f 91       	pop	r17
    1fce:	0f 91       	pop	r16
    1fd0:	ff 90       	pop	r15
    1fd2:	ef 90       	pop	r14
    1fd4:	08 95       	ret

00001fd6 <_GLOBAL__sub_I_g_pump>:
    1fd6:	cf 93       	push	r28
    1fd8:	df 93       	push	r29
    1fda:	cd b7       	in	r28, 0x3d	; 61
    1fdc:	de b7       	in	r29, 0x3e	; 62
    1fde:	6f ef       	ldi	r22, 0xFF	; 255
    1fe0:	7f ef       	ldi	r23, 0xFF	; 255
    1fe2:	81 e0       	ldi	r24, 0x01	; 1
    1fe4:	90 e0       	ldi	r25, 0x00	; 0
    1fe6:	50 df       	rcall	.-352    	; 0x1e88 <_Z41__static_initialization_and_destruction_0ii>
    1fe8:	df 91       	pop	r29
    1fea:	cf 91       	pop	r28
    1fec:	08 95       	ret

00001fee <_GLOBAL__sub_D_g_pump>:
    1fee:	cf 93       	push	r28
    1ff0:	df 93       	push	r29
    1ff2:	cd b7       	in	r28, 0x3d	; 61
    1ff4:	de b7       	in	r29, 0x3e	; 62
    1ff6:	6f ef       	ldi	r22, 0xFF	; 255
    1ff8:	7f ef       	ldi	r23, 0xFF	; 255
    1ffa:	80 e0       	ldi	r24, 0x00	; 0
    1ffc:	90 e0       	ldi	r25, 0x00	; 0
    1ffe:	44 df       	rcall	.-376    	; 0x1e88 <_Z41__static_initialization_and_destruction_0ii>
    2000:	df 91       	pop	r29
    2002:	cf 91       	pop	r28
    2004:	08 95       	ret

00002006 <_ZNK15IMessageHandler11getCaretColEv>:
    //void moveCaret(eCaretMoveDir);
	void moveCaret(uint8_t col, uint8_t row);
    // Hides or shows the caret
    void showCaret(bool);
    // Returns the current col location.
    unsigned char getCaretCol() const { return m_caretCol;}
    2006:	cf 93       	push	r28
    2008:	df 93       	push	r29
    200a:	00 d0       	rcall	.+0      	; 0x200c <_ZNK15IMessageHandler11getCaretColEv+0x6>
    200c:	cd b7       	in	r28, 0x3d	; 61
    200e:	de b7       	in	r29, 0x3e	; 62
    2010:	9a 83       	std	Y+2, r25	; 0x02
    2012:	89 83       	std	Y+1, r24	; 0x01
    2014:	89 81       	ldd	r24, Y+1	; 0x01
    2016:	9a 81       	ldd	r25, Y+2	; 0x02
    2018:	fc 01       	movw	r30, r24
    201a:	84 85       	ldd	r24, Z+12	; 0x0c
    201c:	0f 90       	pop	r0
    201e:	0f 90       	pop	r0
    2020:	df 91       	pop	r29
    2022:	cf 91       	pop	r28
    2024:	08 95       	ret

00002026 <_ZN15MainMenuHandlerC1EP11MessagePump>:
#define SetupMenuPos 0
#define RunMenuPos 8

// Main menu ctor. Sets up the text strings
// to display.
MainMenuHandler::MainMenuHandler(MessagePump *_pump)
    2026:	cf 93       	push	r28
    2028:	df 93       	push	r29
    202a:	00 d0       	rcall	.+0      	; 0x202c <_ZN15MainMenuHandlerC1EP11MessagePump+0x6>
    202c:	00 d0       	rcall	.+0      	; 0x202e <_ZN15MainMenuHandlerC1EP11MessagePump+0x8>
    202e:	cd b7       	in	r28, 0x3d	; 61
    2030:	de b7       	in	r29, 0x3e	; 62
    2032:	9a 83       	std	Y+2, r25	; 0x02
    2034:	89 83       	std	Y+1, r24	; 0x01
    2036:	7c 83       	std	Y+4, r23	; 0x04
    2038:	6b 83       	std	Y+3, r22	; 0x03
    :
    IMessageHandler(_pump)
    203a:	89 81       	ldd	r24, Y+1	; 0x01
    203c:	9a 81       	ldd	r25, Y+2	; 0x02
    203e:	2b 81       	ldd	r18, Y+3	; 0x03
    2040:	3c 81       	ldd	r19, Y+4	; 0x04
    2042:	b9 01       	movw	r22, r18
    2044:	d2 d0       	rcall	.+420    	; 0x21ea <_ZN15IMessageHandlerC1EP11MessagePump>
    2046:	89 81       	ldd	r24, Y+1	; 0x01
    2048:	9a 81       	ldd	r25, Y+2	; 0x02
    204a:	2e e8       	ldi	r18, 0x8E	; 142
    204c:	31 e0       	ldi	r19, 0x01	; 1
    204e:	fc 01       	movw	r30, r24
    2050:	31 83       	std	Z+1, r19	; 0x01
    2052:	20 83       	st	Z, r18
{
    menu[0] = "Setup";
    2054:	89 81       	ldd	r24, Y+1	; 0x01
    2056:	9a 81       	ldd	r25, Y+2	; 0x02
    2058:	25 e3       	ldi	r18, 0x35	; 53
    205a:	31 e0       	ldi	r19, 0x01	; 1
    205c:	fc 01       	movw	r30, r24
    205e:	35 83       	std	Z+5, r19	; 0x05
    2060:	24 83       	std	Z+4, r18	; 0x04
    menu[1] = "Run";
    2062:	89 81       	ldd	r24, Y+1	; 0x01
    2064:	9a 81       	ldd	r25, Y+2	; 0x02
    2066:	2b e3       	ldi	r18, 0x3B	; 59
    2068:	31 e0       	ldi	r19, 0x01	; 1
    206a:	fc 01       	movw	r30, r24
    206c:	37 83       	std	Z+7, r19	; 0x07
    206e:	26 83       	std	Z+6, r18	; 0x06
};
    2070:	0f 90       	pop	r0
    2072:	0f 90       	pop	r0
    2074:	0f 90       	pop	r0
    2076:	0f 90       	pop	r0
    2078:	df 91       	pop	r29
    207a:	cf 91       	pop	r28
    207c:	08 95       	ret

0000207e <_ZN15MainMenuHandlerD1Ev>:
MainMenuHandler::~MainMenuHandler()
    207e:	cf 93       	push	r28
    2080:	df 93       	push	r29
    2082:	00 d0       	rcall	.+0      	; 0x2084 <_ZN15MainMenuHandlerD1Ev+0x6>
    2084:	cd b7       	in	r28, 0x3d	; 61
    2086:	de b7       	in	r29, 0x3e	; 62
    2088:	9a 83       	std	Y+2, r25	; 0x02
    208a:	89 83       	std	Y+1, r24	; 0x01
    208c:	89 81       	ldd	r24, Y+1	; 0x01
    208e:	9a 81       	ldd	r25, Y+2	; 0x02
    2090:	2e e8       	ldi	r18, 0x8E	; 142
    2092:	31 e0       	ldi	r19, 0x01	; 1
    2094:	fc 01       	movw	r30, r24
    2096:	31 83       	std	Z+1, r19	; 0x01
    2098:	20 83       	st	Z, r18
{}
    209a:	0f 90       	pop	r0
    209c:	0f 90       	pop	r0
    209e:	df 91       	pop	r29
    20a0:	cf 91       	pop	r28
    20a2:	08 95       	ret

000020a4 <_ZN15MainMenuHandler14processMessageER3Msg>:

// Listens for button press Msgs dispatched from loop().
MsgResp MainMenuHandler::processMessage(Msg& msg)
{
    20a4:	cf 93       	push	r28
    20a6:	df 93       	push	r29
    20a8:	00 d0       	rcall	.+0      	; 0x20aa <_ZN15MainMenuHandler14processMessageER3Msg+0x6>
    20aa:	00 d0       	rcall	.+0      	; 0x20ac <_ZN15MainMenuHandler14processMessageER3Msg+0x8>
    20ac:	1f 92       	push	r1
    20ae:	cd b7       	in	r28, 0x3d	; 61
    20b0:	de b7       	in	r29, 0x3e	; 62
    20b2:	9b 83       	std	Y+3, r25	; 0x03
    20b4:	8a 83       	std	Y+2, r24	; 0x02
    20b6:	7d 83       	std	Y+5, r23	; 0x05
    20b8:	6c 83       	std	Y+4, r22	; 0x04
    MsgResp rsp = eFail;
    20ba:	81 e0       	ldi	r24, 0x01	; 1
    20bc:	89 83       	std	Y+1, r24	; 0x01
    if(eButtonActionPress == msg.m_type)
    20be:	8c 81       	ldd	r24, Y+4	; 0x04
    20c0:	9d 81       	ldd	r25, Y+5	; 0x05
    20c2:	fc 01       	movw	r30, r24
    20c4:	80 81       	ld	r24, Z
    20c6:	91 81       	ldd	r25, Z+1	; 0x01
    20c8:	00 97       	sbiw	r24, 0x00	; 0
    20ca:	09 f0       	breq	.+2      	; 0x20ce <_ZN15MainMenuHandler14processMessageER3Msg+0x2a>
    20cc:	6f c0       	rjmp	.+222    	; 0x21ac <_ZN15MainMenuHandler14processMessageER3Msg+0x108>
    {
        // up and down buttons move the caret.
        // select button invokes Setup or runStack
        // handling.
        switch(msg.m_code)
    20ce:	8c 81       	ldd	r24, Y+4	; 0x04
    20d0:	9d 81       	ldd	r25, Y+5	; 0x05
    20d2:	fc 01       	movw	r30, r24
    20d4:	82 81       	ldd	r24, Z+2	; 0x02
    20d6:	88 2f       	mov	r24, r24
    20d8:	90 e0       	ldi	r25, 0x00	; 0
    20da:	82 30       	cpi	r24, 0x02	; 2
    20dc:	91 05       	cpc	r25, r1
    20de:	09 f4       	brne	.+2      	; 0x20e2 <_ZN15MainMenuHandler14processMessageER3Msg+0x3e>
    20e0:	62 c0       	rjmp	.+196    	; 0x21a6 <_ZN15MainMenuHandler14processMessageER3Msg+0x102>
    20e2:	83 30       	cpi	r24, 0x03	; 3
    20e4:	91 05       	cpc	r25, r1
    20e6:	34 f4       	brge	.+12     	; 0x20f4 <_ZN15MainMenuHandler14processMessageER3Msg+0x50>
    20e8:	00 97       	sbiw	r24, 0x00	; 0
    20ea:	61 f0       	breq	.+24     	; 0x2104 <_ZN15MainMenuHandler14processMessageER3Msg+0x60>
    20ec:	81 30       	cpi	r24, 0x01	; 1
    20ee:	91 05       	cpc	r25, r1
    20f0:	09 f1       	breq	.+66     	; 0x2134 <_ZN15MainMenuHandler14processMessageER3Msg+0x90>
                }
                break;
            }
			case eUp:     { break; }
			case eDown:    { break; }
            default : { break; }
    20f2:	5c c0       	rjmp	.+184    	; 0x21ac <_ZN15MainMenuHandler14processMessageER3Msg+0x108>
    if(eButtonActionPress == msg.m_type)
    {
        // up and down buttons move the caret.
        // select button invokes Setup or runStack
        // handling.
        switch(msg.m_code)
    20f4:	83 30       	cpi	r24, 0x03	; 3
    20f6:	91 05       	cpc	r25, r1
    20f8:	09 f4       	brne	.+2      	; 0x20fc <_ZN15MainMenuHandler14processMessageER3Msg+0x58>
    20fa:	57 c0       	rjmp	.+174    	; 0x21aa <_ZN15MainMenuHandler14processMessageER3Msg+0x106>
    20fc:	84 30       	cpi	r24, 0x04	; 4
    20fe:	91 05       	cpc	r25, r1
    2100:	29 f1       	breq	.+74     	; 0x214c <_ZN15MainMenuHandler14processMessageER3Msg+0xa8>
                }
                break;
            }
			case eUp:     { break; }
			case eDown:    { break; }
            default : { break; }
    2102:	54 c0       	rjmp	.+168    	; 0x21ac <_ZN15MainMenuHandler14processMessageER3Msg+0x108>
        // handling.
        switch(msg.m_code)
        {
            case eLeft:     
			{ 
				switch(getCaretCol())
    2104:	8a 81       	ldd	r24, Y+2	; 0x02
    2106:	9b 81       	ldd	r25, Y+3	; 0x03
    2108:	7e df       	rcall	.-260    	; 0x2006 <_ZNK15IMessageHandler11getCaretColEv>
    210a:	88 2f       	mov	r24, r24
    210c:	90 e0       	ldi	r25, 0x00	; 0
    210e:	00 97       	sbiw	r24, 0x00	; 0
    2110:	21 f0       	breq	.+8      	; 0x211a <_ZN15MainMenuHandler14processMessageER3Msg+0x76>
    2112:	88 30       	cpi	r24, 0x08	; 8
    2114:	91 05       	cpc	r25, r1
    2116:	39 f0       	breq	.+14     	; 0x2126 <_ZN15MainMenuHandler14processMessageER3Msg+0x82>
				{
					case SetupMenuPos: moveCaret(RunMenuPos, 1); break;
					case RunMenuPos:   moveCaret(SetupMenuPos, 1); break;
					default: break;
    2118:	0c c0       	rjmp	.+24     	; 0x2132 <_ZN15MainMenuHandler14processMessageER3Msg+0x8e>
        {
            case eLeft:     
			{ 
				switch(getCaretCol())
				{
					case SetupMenuPos: moveCaret(RunMenuPos, 1); break;
    211a:	8a 81       	ldd	r24, Y+2	; 0x02
    211c:	9b 81       	ldd	r25, Y+3	; 0x03
    211e:	41 e0       	ldi	r20, 0x01	; 1
    2120:	68 e0       	ldi	r22, 0x08	; 8
    2122:	76 d1       	rcall	.+748    	; 0x2410 <_ZN15IMessageHandler9moveCaretEhh>
    2124:	06 c0       	rjmp	.+12     	; 0x2132 <_ZN15MainMenuHandler14processMessageER3Msg+0x8e>
					case RunMenuPos:   moveCaret(SetupMenuPos, 1); break;
    2126:	8a 81       	ldd	r24, Y+2	; 0x02
    2128:	9b 81       	ldd	r25, Y+3	; 0x03
    212a:	41 e0       	ldi	r20, 0x01	; 1
    212c:	60 e0       	ldi	r22, 0x00	; 0
    212e:	70 d1       	rcall	.+736    	; 0x2410 <_ZN15IMessageHandler9moveCaretEhh>
    2130:	00 00       	nop
					default: break;
				}
				break;
    2132:	3c c0       	rjmp	.+120    	; 0x21ac <_ZN15MainMenuHandler14processMessageER3Msg+0x108>
			}
            case eRight:
			{
				if(nk3.isConnected()) 
    2134:	81 e2       	ldi	r24, 0x21	; 33
    2136:	93 e0       	ldi	r25, 0x03	; 3
    2138:	0e 94 52 1a 	call	0x34a4	; 0x34a4 <_ZNK10NikType00311isConnectedEv>
    213c:	88 23       	and	r24, r24
    213e:	29 f0       	breq	.+10     	; 0x214a <_ZN15MainMenuHandler14processMessageER3Msg+0xa6>
				{
					moveCaret(RunMenuPos, 1);
    2140:	8a 81       	ldd	r24, Y+2	; 0x02
    2142:	9b 81       	ldd	r25, Y+3	; 0x03
    2144:	41 e0       	ldi	r20, 0x01	; 1
    2146:	68 e0       	ldi	r22, 0x08	; 8
    2148:	63 d1       	rcall	.+710    	; 0x2410 <_ZN15IMessageHandler9moveCaretEhh>
				}
				break;
    214a:	30 c0       	rjmp	.+96     	; 0x21ac <_ZN15MainMenuHandler14processMessageER3Msg+0x108>

			}
            case eSelect:
            {
                switch(m_caretCol)
    214c:	8a 81       	ldd	r24, Y+2	; 0x02
    214e:	9b 81       	ldd	r25, Y+3	; 0x03
    2150:	fc 01       	movw	r30, r24
    2152:	84 85       	ldd	r24, Z+12	; 0x0c
    2154:	88 2f       	mov	r24, r24
    2156:	90 e0       	ldi	r25, 0x00	; 0
    2158:	83 30       	cpi	r24, 0x03	; 3
    215a:	91 05       	cpc	r25, r1
    215c:	11 f1       	breq	.+68     	; 0x21a2 <_ZN15MainMenuHandler14processMessageER3Msg+0xfe>
    215e:	88 30       	cpi	r24, 0x08	; 8
    2160:	91 05       	cpc	r25, r1
    2162:	71 f0       	breq	.+28     	; 0x2180 <_ZN15MainMenuHandler14processMessageER3Msg+0xdc>
    2164:	00 97       	sbiw	r24, 0x00	; 0
    2166:	09 f0       	breq	.+2      	; 0x216a <_ZN15MainMenuHandler14processMessageER3Msg+0xc6>
                        // TODO: turn display off/on
                        // how far to sleep can we go
                        // and still wake?
                        break;
                    }
                    default: { break; }
    2168:	1d c0       	rjmp	.+58     	; 0x21a4 <_ZN15MainMenuHandler14processMessageER3Msg+0x100>
            {
                switch(m_caretCol)
                {
                    case 0:
                    {
                        msg.m_nextHandler = g_pSetup;
    216a:	20 91 02 01 	lds	r18, 0x0102
    216e:	30 91 03 01 	lds	r19, 0x0103
    2172:	8c 81       	ldd	r24, Y+4	; 0x04
    2174:	9d 81       	ldd	r25, Y+5	; 0x05
    2176:	fc 01       	movw	r30, r24
    2178:	34 83       	std	Z+4, r19	; 0x04
    217a:	23 83       	std	Z+3, r18	; 0x03
                        rsp = eSuccess;
    217c:	19 82       	std	Y+1, r1	; 0x01
                        break;
    217e:	12 c0       	rjmp	.+36     	; 0x21a4 <_ZN15MainMenuHandler14processMessageER3Msg+0x100>
                    }
                    case 8:
                    {
                        if(nk3.isConnected())
    2180:	81 e2       	ldi	r24, 0x21	; 33
    2182:	93 e0       	ldi	r25, 0x03	; 3
    2184:	0e 94 52 1a 	call	0x34a4	; 0x34a4 <_ZNK10NikType00311isConnectedEv>
    2188:	88 23       	and	r24, r24
    218a:	51 f0       	breq	.+20     	; 0x21a0 <_ZN15MainMenuHandler14processMessageER3Msg+0xfc>
                        {
                            msg.m_nextHandler = g_pRunStack;
    218c:	20 91 04 01 	lds	r18, 0x0104
    2190:	30 91 05 01 	lds	r19, 0x0105
    2194:	8c 81       	ldd	r24, Y+4	; 0x04
    2196:	9d 81       	ldd	r25, Y+5	; 0x05
    2198:	fc 01       	movw	r30, r24
    219a:	34 83       	std	Z+4, r19	; 0x04
    219c:	23 83       	std	Z+3, r18	; 0x03
                            rsp = eSuccess;
    219e:	19 82       	std	Y+1, r1	; 0x01
                        }
                        break;
    21a0:	01 c0       	rjmp	.+2      	; 0x21a4 <_ZN15MainMenuHandler14processMessageER3Msg+0x100>
                    {
                        // on/off?
                        // TODO: turn display off/on
                        // how far to sleep can we go
                        // and still wake?
                        break;
    21a2:	00 00       	nop
                    }
                    default: { break; }
                }
                break;
    21a4:	03 c0       	rjmp	.+6      	; 0x21ac <_ZN15MainMenuHandler14processMessageER3Msg+0x108>
            }
			case eUp:     { break; }
    21a6:	00 00       	nop
    21a8:	01 c0       	rjmp	.+2      	; 0x21ac <_ZN15MainMenuHandler14processMessageER3Msg+0x108>
			case eDown:    { break; }
    21aa:	00 00       	nop
            default : { break; }
        }
    }
    return rsp;
    21ac:	89 81       	ldd	r24, Y+1	; 0x01
}
    21ae:	0f 90       	pop	r0
    21b0:	0f 90       	pop	r0
    21b2:	0f 90       	pop	r0
    21b4:	0f 90       	pop	r0
    21b6:	0f 90       	pop	r0
    21b8:	df 91       	pop	r29
    21ba:	cf 91       	pop	r28
    21bc:	08 95       	ret

000021be <_ZN15MainMenuHandler4showEv>:
// Show the main menu, the camera type & connection state.
extern bool g_usbOK;
void MainMenuHandler::show()
{
    21be:	cf 93       	push	r28
    21c0:	df 93       	push	r29
    21c2:	00 d0       	rcall	.+0      	; 0x21c4 <_ZN15MainMenuHandler4showEv+0x6>
    21c4:	cd b7       	in	r28, 0x3d	; 61
    21c6:	de b7       	in	r29, 0x3e	; 62
    21c8:	9a 83       	std	Y+2, r25	; 0x02
    21ca:	89 83       	std	Y+1, r24	; 0x01
	if(!g_usbOK) return;
    21cc:	90 91 09 01 	lds	r25, 0x0109
    21d0:	81 e0       	ldi	r24, 0x01	; 1
    21d2:	89 27       	eor	r24, r25
    21d4:	88 23       	and	r24, r24
    21d6:	09 f0       	breq	.+2      	; 0x21da <_ZN15MainMenuHandler4showEv+0x1c>
    21d8:	03 c0       	rjmp	.+6      	; 0x21e0 <_ZN15MainMenuHandler4showEv+0x22>
    IMessageHandler::show();
    21da:	89 81       	ldd	r24, Y+1	; 0x01
    21dc:	9a 81       	ldd	r25, Y+2	; 0x02
    21de:	63 d0       	rcall	.+198    	; 0x22a6 <_ZN15IMessageHandler4showEv>
            //g_print->print(F("Nikon "));
            //break;
        //}
    //}
    //g_print->print(nk3.isConnected() ? F("connected") : F("disconnected"));
}
    21e0:	0f 90       	pop	r0
    21e2:	0f 90       	pop	r0
    21e4:	df 91       	pop	r29
    21e6:	cf 91       	pop	r28
    21e8:	08 95       	ret

000021ea <_ZN15IMessageHandlerC1EP11MessagePump>:
#include "MessagePump.h"
#include "MessageHandler.h"
#include "LcdImpl.h"

// Base class ctor just initializes OK on bottom line of menu[].
IMessageHandler::IMessageHandler(MessagePump* _pump)
    21ea:	cf 93       	push	r28
    21ec:	df 93       	push	r29
    21ee:	00 d0       	rcall	.+0      	; 0x21f0 <_ZN15IMessageHandlerC1EP11MessagePump+0x6>
    21f0:	00 d0       	rcall	.+0      	; 0x21f2 <_ZN15IMessageHandlerC1EP11MessagePump+0x8>
    21f2:	cd b7       	in	r28, 0x3d	; 61
    21f4:	de b7       	in	r29, 0x3e	; 62
    21f6:	9a 83       	std	Y+2, r25	; 0x02
    21f8:	89 83       	std	Y+1, r24	; 0x01
    21fa:	7c 83       	std	Y+4, r23	; 0x04
    21fc:	6b 83       	std	Y+3, r22	; 0x03
    :
    m_pump(_pump),
    m_caretCol(0),
	m_caretRow(1)
    21fe:	89 81       	ldd	r24, Y+1	; 0x01
    2200:	9a 81       	ldd	r25, Y+2	; 0x02
    2202:	26 e9       	ldi	r18, 0x96	; 150
    2204:	31 e0       	ldi	r19, 0x01	; 1
    2206:	fc 01       	movw	r30, r24
    2208:	31 83       	std	Z+1, r19	; 0x01
    220a:	20 83       	st	Z, r18
    220c:	89 81       	ldd	r24, Y+1	; 0x01
    220e:	9a 81       	ldd	r25, Y+2	; 0x02
    2210:	2b 81       	ldd	r18, Y+3	; 0x03
    2212:	3c 81       	ldd	r19, Y+4	; 0x04
    2214:	fc 01       	movw	r30, r24
    2216:	33 83       	std	Z+3, r19	; 0x03
    2218:	22 83       	std	Z+2, r18	; 0x02
    221a:	89 81       	ldd	r24, Y+1	; 0x01
    221c:	9a 81       	ldd	r25, Y+2	; 0x02
    221e:	fc 01       	movw	r30, r24
    2220:	14 86       	std	Z+12, r1	; 0x0c
    2222:	89 81       	ldd	r24, Y+1	; 0x01
    2224:	9a 81       	ldd	r25, Y+2	; 0x02
    2226:	21 e0       	ldi	r18, 0x01	; 1
    2228:	fc 01       	movw	r30, r24
    222a:	25 87       	std	Z+13, r18	; 0x0d
{
    //for(unsigned int line = 0; line < sizeof(menu) / sizeof(menu[0]); line++) menu[line] = NULL;
	memset(menu, 0, sizeof(menu)); // 33076
    222c:	89 81       	ldd	r24, Y+1	; 0x01
    222e:	9a 81       	ldd	r25, Y+2	; 0x02
    2230:	04 96       	adiw	r24, 0x04	; 4
    2232:	48 e0       	ldi	r20, 0x08	; 8
    2234:	50 e0       	ldi	r21, 0x00	; 0
    2236:	60 e0       	ldi	r22, 0x00	; 0
    2238:	70 e0       	ldi	r23, 0x00	; 0
    223a:	0e 94 f5 3e 	call	0x7dea	; 0x7dea <memset>
}
    223e:	0f 90       	pop	r0
    2240:	0f 90       	pop	r0
    2242:	0f 90       	pop	r0
    2244:	0f 90       	pop	r0
    2246:	df 91       	pop	r29
    2248:	cf 91       	pop	r28
    224a:	08 95       	ret

0000224c <_ZN15IMessageHandler13printMenuItemEhh>:

void IMessageHandler::printMenuItem(uint8_t col, uint8_t item)
{
    224c:	cf 93       	push	r28
    224e:	df 93       	push	r29
    2250:	00 d0       	rcall	.+0      	; 0x2252 <_ZN15IMessageHandler13printMenuItemEhh+0x6>
    2252:	00 d0       	rcall	.+0      	; 0x2254 <_ZN15IMessageHandler13printMenuItemEhh+0x8>
    2254:	cd b7       	in	r28, 0x3d	; 61
    2256:	de b7       	in	r29, 0x3e	; 62
    2258:	9a 83       	std	Y+2, r25	; 0x02
    225a:	89 83       	std	Y+1, r24	; 0x01
    225c:	6b 83       	std	Y+3, r22	; 0x03
    225e:	4c 83       	std	Y+4, r20	; 0x04
	g_print->setCursor(col, 0);
    2260:	80 91 0a 01 	lds	r24, 0x010A
    2264:	90 91 0b 01 	lds	r25, 0x010B
    2268:	40 e0       	ldi	r20, 0x00	; 0
    226a:	6b 81       	ldd	r22, Y+3	; 0x03
    226c:	0e 94 94 06 	call	0xd28	; 0xd28 <_ZN21Adafruit_RGBLCDShield9setCursorEhh>
	g_print->print(menu[item]);
    2270:	8c 81       	ldd	r24, Y+4	; 0x04
    2272:	88 2f       	mov	r24, r24
    2274:	90 e0       	ldi	r25, 0x00	; 0
    2276:	29 81       	ldd	r18, Y+1	; 0x01
    2278:	3a 81       	ldd	r19, Y+2	; 0x02
    227a:	02 96       	adiw	r24, 0x02	; 2
    227c:	88 0f       	add	r24, r24
    227e:	99 1f       	adc	r25, r25
    2280:	82 0f       	add	r24, r18
    2282:	93 1f       	adc	r25, r19
    2284:	fc 01       	movw	r30, r24
    2286:	20 81       	ld	r18, Z
    2288:	31 81       	ldd	r19, Z+1	; 0x01
    228a:	80 91 0a 01 	lds	r24, 0x010A
    228e:	90 91 0b 01 	lds	r25, 0x010B
    2292:	b9 01       	movw	r22, r18
    2294:	0e 94 4d 2b 	call	0x569a	; 0x569a <_ZN5Print5printEPKc>
}
    2298:	0f 90       	pop	r0
    229a:	0f 90       	pop	r0
    229c:	0f 90       	pop	r0
    229e:	0f 90       	pop	r0
    22a0:	df 91       	pop	r29
    22a2:	cf 91       	pop	r28
    22a4:	08 95       	ret

000022a6 <_ZN15IMessageHandler4showEv>:
// Draws the menu text, indenting all lines but
// the 1st by one column
void IMessageHandler::show()
{
    22a6:	cf 93       	push	r28
    22a8:	df 93       	push	r29
    22aa:	00 d0       	rcall	.+0      	; 0x22ac <_ZN15IMessageHandler4showEv+0x6>
    22ac:	cd b7       	in	r28, 0x3d	; 61
    22ae:	de b7       	in	r29, 0x3e	; 62
    22b0:	9a 83       	std	Y+2, r25	; 0x02
    22b2:	89 83       	std	Y+1, r24	; 0x01
    g_print->clear();
    22b4:	80 91 0a 01 	lds	r24, 0x010A
    22b8:	90 91 0b 01 	lds	r25, 0x010B
    22bc:	0e 94 80 06 	call	0xd00	; 0xd00 <_ZN21Adafruit_RGBLCDShield5clearEv>
	
	if(menu[0])
    22c0:	89 81       	ldd	r24, Y+1	; 0x01
    22c2:	9a 81       	ldd	r25, Y+2	; 0x02
    22c4:	fc 01       	movw	r30, r24
    22c6:	84 81       	ldd	r24, Z+4	; 0x04
    22c8:	95 81       	ldd	r25, Z+5	; 0x05
    22ca:	00 97       	sbiw	r24, 0x00	; 0
    22cc:	a1 f0       	breq	.+40     	; 0x22f6 <_ZN15IMessageHandler4showEv+0x50>
	{
		g_print->setCursor(0, 0);
    22ce:	80 91 0a 01 	lds	r24, 0x010A
    22d2:	90 91 0b 01 	lds	r25, 0x010B
    22d6:	40 e0       	ldi	r20, 0x00	; 0
    22d8:	60 e0       	ldi	r22, 0x00	; 0
    22da:	0e 94 94 06 	call	0xd28	; 0xd28 <_ZN21Adafruit_RGBLCDShield9setCursorEhh>
		g_print->print(menu[0]);
    22de:	89 81       	ldd	r24, Y+1	; 0x01
    22e0:	9a 81       	ldd	r25, Y+2	; 0x02
    22e2:	fc 01       	movw	r30, r24
    22e4:	24 81       	ldd	r18, Z+4	; 0x04
    22e6:	35 81       	ldd	r19, Z+5	; 0x05
    22e8:	80 91 0a 01 	lds	r24, 0x010A
    22ec:	90 91 0b 01 	lds	r25, 0x010B
    22f0:	b9 01       	movw	r22, r18
    22f2:	0e 94 4d 2b 	call	0x569a	; 0x569a <_ZN5Print5printEPKc>
	}
	if(menu[1])
    22f6:	89 81       	ldd	r24, Y+1	; 0x01
    22f8:	9a 81       	ldd	r25, Y+2	; 0x02
    22fa:	fc 01       	movw	r30, r24
    22fc:	86 81       	ldd	r24, Z+6	; 0x06
    22fe:	97 81       	ldd	r25, Z+7	; 0x07
    2300:	00 97       	sbiw	r24, 0x00	; 0
    2302:	a1 f0       	breq	.+40     	; 0x232c <_ZN15IMessageHandler4showEv+0x86>
	{
		g_print->setCursor(8, 0);
    2304:	80 91 0a 01 	lds	r24, 0x010A
    2308:	90 91 0b 01 	lds	r25, 0x010B
    230c:	40 e0       	ldi	r20, 0x00	; 0
    230e:	68 e0       	ldi	r22, 0x08	; 8
    2310:	0e 94 94 06 	call	0xd28	; 0xd28 <_ZN21Adafruit_RGBLCDShield9setCursorEhh>
		g_print->print(menu[1]);
    2314:	89 81       	ldd	r24, Y+1	; 0x01
    2316:	9a 81       	ldd	r25, Y+2	; 0x02
    2318:	fc 01       	movw	r30, r24
    231a:	26 81       	ldd	r18, Z+6	; 0x06
    231c:	37 81       	ldd	r19, Z+7	; 0x07
    231e:	80 91 0a 01 	lds	r24, 0x010A
    2322:	90 91 0b 01 	lds	r25, 0x010B
    2326:	b9 01       	movw	r22, r18
    2328:	0e 94 4d 2b 	call	0x569a	; 0x569a <_ZN5Print5printEPKc>
	}
	if(menu[2])
    232c:	89 81       	ldd	r24, Y+1	; 0x01
    232e:	9a 81       	ldd	r25, Y+2	; 0x02
    2330:	fc 01       	movw	r30, r24
    2332:	80 85       	ldd	r24, Z+8	; 0x08
    2334:	91 85       	ldd	r25, Z+9	; 0x09
    2336:	00 97       	sbiw	r24, 0x00	; 0
    2338:	a1 f0       	breq	.+40     	; 0x2362 <_ZN15IMessageHandler4showEv+0xbc>
	{
		g_print->setCursor(0, 1);
    233a:	80 91 0a 01 	lds	r24, 0x010A
    233e:	90 91 0b 01 	lds	r25, 0x010B
    2342:	41 e0       	ldi	r20, 0x01	; 1
    2344:	60 e0       	ldi	r22, 0x00	; 0
    2346:	0e 94 94 06 	call	0xd28	; 0xd28 <_ZN21Adafruit_RGBLCDShield9setCursorEhh>
		g_print->print(menu[2]);
    234a:	89 81       	ldd	r24, Y+1	; 0x01
    234c:	9a 81       	ldd	r25, Y+2	; 0x02
    234e:	fc 01       	movw	r30, r24
    2350:	20 85       	ldd	r18, Z+8	; 0x08
    2352:	31 85       	ldd	r19, Z+9	; 0x09
    2354:	80 91 0a 01 	lds	r24, 0x010A
    2358:	90 91 0b 01 	lds	r25, 0x010B
    235c:	b9 01       	movw	r22, r18
    235e:	0e 94 4d 2b 	call	0x569a	; 0x569a <_ZN5Print5printEPKc>
	}
	if(menu[3])
    2362:	89 81       	ldd	r24, Y+1	; 0x01
    2364:	9a 81       	ldd	r25, Y+2	; 0x02
    2366:	fc 01       	movw	r30, r24
    2368:	82 85       	ldd	r24, Z+10	; 0x0a
    236a:	93 85       	ldd	r25, Z+11	; 0x0b
    236c:	00 97       	sbiw	r24, 0x00	; 0
    236e:	a1 f0       	breq	.+40     	; 0x2398 <_ZN15IMessageHandler4showEv+0xf2>
	{
		g_print->setCursor(8, 1);
    2370:	80 91 0a 01 	lds	r24, 0x010A
    2374:	90 91 0b 01 	lds	r25, 0x010B
    2378:	41 e0       	ldi	r20, 0x01	; 1
    237a:	68 e0       	ldi	r22, 0x08	; 8
    237c:	0e 94 94 06 	call	0xd28	; 0xd28 <_ZN21Adafruit_RGBLCDShield9setCursorEhh>
		g_print->print(menu[2]);
    2380:	89 81       	ldd	r24, Y+1	; 0x01
    2382:	9a 81       	ldd	r25, Y+2	; 0x02
    2384:	fc 01       	movw	r30, r24
    2386:	20 85       	ldd	r18, Z+8	; 0x08
    2388:	31 85       	ldd	r19, Z+9	; 0x09
    238a:	80 91 0a 01 	lds	r24, 0x010A
    238e:	90 91 0b 01 	lds	r25, 0x010B
    2392:	b9 01       	movw	r22, r18
    2394:	0e 94 4d 2b 	call	0x569a	; 0x569a <_ZN5Print5printEPKc>
	}
	m_caretCol = 0;
    2398:	89 81       	ldd	r24, Y+1	; 0x01
    239a:	9a 81       	ldd	r25, Y+2	; 0x02
    239c:	fc 01       	movw	r30, r24
    239e:	14 86       	std	Z+12, r1	; 0x0c
    showCaret(true);
    23a0:	89 81       	ldd	r24, Y+1	; 0x01
    23a2:	9a 81       	ldd	r25, Y+2	; 0x02
    23a4:	61 e0       	ldi	r22, 0x01	; 1
    23a6:	05 d0       	rcall	.+10     	; 0x23b2 <_ZN15IMessageHandler9showCaretEb>
}
    23a8:	0f 90       	pop	r0
    23aa:	0f 90       	pop	r0
    23ac:	df 91       	pop	r29
    23ae:	cf 91       	pop	r28
    23b0:	08 95       	ret

000023b2 <_ZN15IMessageHandler9showCaretEb>:

// Draws or hides the caret.
void IMessageHandler::showCaret(bool show)
{
    23b2:	cf 93       	push	r28
    23b4:	df 93       	push	r29
    23b6:	00 d0       	rcall	.+0      	; 0x23b8 <_ZN15IMessageHandler9showCaretEb+0x6>
    23b8:	1f 92       	push	r1
    23ba:	cd b7       	in	r28, 0x3d	; 61
    23bc:	de b7       	in	r29, 0x3e	; 62
    23be:	9a 83       	std	Y+2, r25	; 0x02
    23c0:	89 83       	std	Y+1, r24	; 0x01
    23c2:	6b 83       	std	Y+3, r22	; 0x03
    g_print->setCursor(m_caretCol, m_caretRow);
    23c4:	89 81       	ldd	r24, Y+1	; 0x01
    23c6:	9a 81       	ldd	r25, Y+2	; 0x02
    23c8:	fc 01       	movw	r30, r24
    23ca:	35 85       	ldd	r19, Z+13	; 0x0d
    23cc:	89 81       	ldd	r24, Y+1	; 0x01
    23ce:	9a 81       	ldd	r25, Y+2	; 0x02
    23d0:	fc 01       	movw	r30, r24
    23d2:	24 85       	ldd	r18, Z+12	; 0x0c
    23d4:	80 91 0a 01 	lds	r24, 0x010A
    23d8:	90 91 0b 01 	lds	r25, 0x010B
    23dc:	43 2f       	mov	r20, r19
    23de:	62 2f       	mov	r22, r18
    23e0:	0e 94 94 06 	call	0xd28	; 0xd28 <_ZN21Adafruit_RGBLCDShield9setCursorEhh>
    if(show)
    23e4:	8b 81       	ldd	r24, Y+3	; 0x03
    23e6:	88 23       	and	r24, r24
    23e8:	39 f0       	breq	.+14     	; 0x23f8 <_ZN15IMessageHandler9showCaretEb+0x46>
    {
       // g_print->print(F(">"));
	   g_print->cursor();
    23ea:	80 91 0a 01 	lds	r24, 0x010A
    23ee:	90 91 0b 01 	lds	r25, 0x010B
    23f2:	0e 94 18 07 	call	0xe30	; 0xe30 <_ZN21Adafruit_RGBLCDShield6cursorEv>
    23f6:	06 c0       	rjmp	.+12     	; 0x2404 <_ZN15IMessageHandler9showCaretEb+0x52>
    }
    else
    {
		g_print->noCursor();
    23f8:	80 91 0a 01 	lds	r24, 0x010A
    23fc:	90 91 0b 01 	lds	r25, 0x010B
    2400:	0e 94 f8 06 	call	0xdf0	; 0xdf0 <_ZN21Adafruit_RGBLCDShield8noCursorEv>
        //g_print->print(F(" "));
    }
}
    2404:	0f 90       	pop	r0
    2406:	0f 90       	pop	r0
    2408:	0f 90       	pop	r0
    240a:	df 91       	pop	r29
    240c:	cf 91       	pop	r28
    240e:	08 95       	ret

00002410 <_ZN15IMessageHandler9moveCaretEhh>:

// Redraws the caret at the specified location
void IMessageHandler::moveCaret(uint8_t col, uint8_t row)
{
    2410:	cf 93       	push	r28
    2412:	df 93       	push	r29
    2414:	00 d0       	rcall	.+0      	; 0x2416 <_ZN15IMessageHandler9moveCaretEhh+0x6>
    2416:	00 d0       	rcall	.+0      	; 0x2418 <_ZN15IMessageHandler9moveCaretEhh+0x8>
    2418:	cd b7       	in	r28, 0x3d	; 61
    241a:	de b7       	in	r29, 0x3e	; 62
    241c:	9a 83       	std	Y+2, r25	; 0x02
    241e:	89 83       	std	Y+1, r24	; 0x01
    2420:	6b 83       	std	Y+3, r22	; 0x03
    2422:	4c 83       	std	Y+4, r20	; 0x04
	showCaret(false);
    2424:	89 81       	ldd	r24, Y+1	; 0x01
    2426:	9a 81       	ldd	r25, Y+2	; 0x02
    2428:	60 e0       	ldi	r22, 0x00	; 0
    242a:	c3 df       	rcall	.-122    	; 0x23b2 <_ZN15IMessageHandler9showCaretEb>
	m_caretCol  = col;	
    242c:	89 81       	ldd	r24, Y+1	; 0x01
    242e:	9a 81       	ldd	r25, Y+2	; 0x02
    2430:	2b 81       	ldd	r18, Y+3	; 0x03
    2432:	fc 01       	movw	r30, r24
    2434:	24 87       	std	Z+12, r18	; 0x0c
	m_caretRow = row;
    2436:	89 81       	ldd	r24, Y+1	; 0x01
    2438:	9a 81       	ldd	r25, Y+2	; 0x02
    243a:	2c 81       	ldd	r18, Y+4	; 0x04
    243c:	fc 01       	movw	r30, r24
    243e:	25 87       	std	Z+13, r18	; 0x0d
	showCaret(true);
    2440:	89 81       	ldd	r24, Y+1	; 0x01
    2442:	9a 81       	ldd	r25, Y+2	; 0x02
    2444:	61 e0       	ldi	r22, 0x01	; 1
    2446:	b5 df       	rcall	.-150    	; 0x23b2 <_ZN15IMessageHandler9showCaretEb>
}
    2448:	0f 90       	pop	r0
    244a:	0f 90       	pop	r0
    244c:	0f 90       	pop	r0
    244e:	0f 90       	pop	r0
    2450:	df 91       	pop	r29
    2452:	cf 91       	pop	r28
    2454:	08 95       	ret

00002456 <_ZN11MessagePumpC1EP15IMessageHandler>:

#include "MessagePump.h"
#include "MessageHandler.h"

// Construct with a handler, or NULL.
MessagePump::MessagePump(IMessageHandler *handler)
    2456:	cf 93       	push	r28
    2458:	df 93       	push	r29
    245a:	00 d0       	rcall	.+0      	; 0x245c <_ZN11MessagePumpC1EP15IMessageHandler+0x6>
    245c:	00 d0       	rcall	.+0      	; 0x245e <_ZN11MessagePumpC1EP15IMessageHandler+0x8>
    245e:	cd b7       	in	r28, 0x3d	; 61
    2460:	de b7       	in	r29, 0x3e	; 62
    2462:	9a 83       	std	Y+2, r25	; 0x02
    2464:	89 83       	std	Y+1, r24	; 0x01
    2466:	7c 83       	std	Y+4, r23	; 0x04
    2468:	6b 83       	std	Y+3, r22	; 0x03
    :
    m_currentHandler(handler)
    246a:	89 81       	ldd	r24, Y+1	; 0x01
    246c:	9a 81       	ldd	r25, Y+2	; 0x02
    246e:	2b 81       	ldd	r18, Y+3	; 0x03
    2470:	3c 81       	ldd	r19, Y+4	; 0x04
    2472:	fc 01       	movw	r30, r24
    2474:	31 83       	std	Z+1, r19	; 0x01
    2476:	20 83       	st	Z, r18
{}
    2478:	0f 90       	pop	r0
    247a:	0f 90       	pop	r0
    247c:	0f 90       	pop	r0
    247e:	0f 90       	pop	r0
    2480:	df 91       	pop	r29
    2482:	cf 91       	pop	r28
    2484:	08 95       	ret

00002486 <_ZN11MessagePump14setNextHandlerEP15IMessageHandler>:

// Shows next IMessageHandler to the user, and makes
// it the handler of subsequent Msgs.
void MessagePump::setNextHandler(IMessageHandler *next)
{
    2486:	cf 93       	push	r28
    2488:	df 93       	push	r29
    248a:	00 d0       	rcall	.+0      	; 0x248c <_ZN11MessagePump14setNextHandlerEP15IMessageHandler+0x6>
    248c:	00 d0       	rcall	.+0      	; 0x248e <_ZN11MessagePump14setNextHandlerEP15IMessageHandler+0x8>
    248e:	cd b7       	in	r28, 0x3d	; 61
    2490:	de b7       	in	r29, 0x3e	; 62
    2492:	9a 83       	std	Y+2, r25	; 0x02
    2494:	89 83       	std	Y+1, r24	; 0x01
    2496:	7c 83       	std	Y+4, r23	; 0x04
    2498:	6b 83       	std	Y+3, r22	; 0x03
    m_currentHandler = next;
    249a:	89 81       	ldd	r24, Y+1	; 0x01
    249c:	9a 81       	ldd	r25, Y+2	; 0x02
    249e:	2b 81       	ldd	r18, Y+3	; 0x03
    24a0:	3c 81       	ldd	r19, Y+4	; 0x04
    24a2:	fc 01       	movw	r30, r24
    24a4:	31 83       	std	Z+1, r19	; 0x01
    24a6:	20 83       	st	Z, r18
    m_currentHandler->show();
    24a8:	89 81       	ldd	r24, Y+1	; 0x01
    24aa:	9a 81       	ldd	r25, Y+2	; 0x02
    24ac:	fc 01       	movw	r30, r24
    24ae:	80 81       	ld	r24, Z
    24b0:	91 81       	ldd	r25, Z+1	; 0x01
    24b2:	fc 01       	movw	r30, r24
    24b4:	80 81       	ld	r24, Z
    24b6:	91 81       	ldd	r25, Z+1	; 0x01
    24b8:	02 96       	adiw	r24, 0x02	; 2
    24ba:	fc 01       	movw	r30, r24
    24bc:	20 81       	ld	r18, Z
    24be:	31 81       	ldd	r19, Z+1	; 0x01
    24c0:	89 81       	ldd	r24, Y+1	; 0x01
    24c2:	9a 81       	ldd	r25, Y+2	; 0x02
    24c4:	fc 01       	movw	r30, r24
    24c6:	80 81       	ld	r24, Z
    24c8:	91 81       	ldd	r25, Z+1	; 0x01
    24ca:	f9 01       	movw	r30, r18
    24cc:	09 95       	icall
}
    24ce:	0f 90       	pop	r0
    24d0:	0f 90       	pop	r0
    24d2:	0f 90       	pop	r0
    24d4:	0f 90       	pop	r0
    24d6:	df 91       	pop	r29
    24d8:	cf 91       	pop	r28
    24da:	08 95       	ret

000024dc <_ZN11MessagePump8dispatchER3Msg>:

// If there is a current handler, calls processMessage
// on it, passing msg.
uint16_t MessagePump::dispatch(Msg& msg)
{
    24dc:	cf 93       	push	r28
    24de:	df 93       	push	r29
    24e0:	cd b7       	in	r28, 0x3d	; 61
    24e2:	de b7       	in	r29, 0x3e	; 62
    24e4:	28 97       	sbiw	r28, 0x08	; 8
    24e6:	0f b6       	in	r0, 0x3f	; 63
    24e8:	f8 94       	cli
    24ea:	de bf       	out	0x3e, r29	; 62
    24ec:	0f be       	out	0x3f, r0	; 63
    24ee:	cd bf       	out	0x3d, r28	; 61
    24f0:	9e 83       	std	Y+6, r25	; 0x06
    24f2:	8d 83       	std	Y+5, r24	; 0x05
    24f4:	78 87       	std	Y+8, r23	; 0x08
    24f6:	6f 83       	std	Y+7, r22	; 0x07
    uint16_t rc = eFail;
    24f8:	81 e0       	ldi	r24, 0x01	; 1
    24fa:	90 e0       	ldi	r25, 0x00	; 0
    24fc:	9a 83       	std	Y+2, r25	; 0x02
    24fe:	89 83       	std	Y+1, r24	; 0x01
    if(m_currentHandler)
    2500:	8d 81       	ldd	r24, Y+5	; 0x05
    2502:	9e 81       	ldd	r25, Y+6	; 0x06
    2504:	fc 01       	movw	r30, r24
    2506:	80 81       	ld	r24, Z
    2508:	91 81       	ldd	r25, Z+1	; 0x01
    250a:	00 97       	sbiw	r24, 0x00	; 0
    250c:	09 f4       	brne	.+2      	; 0x2510 <_ZN11MessagePump8dispatchER3Msg+0x34>
    250e:	43 c0       	rjmp	.+134    	; 0x2596 <_ZN11MessagePump8dispatchER3Msg+0xba>
    {
        uint16_t rc = m_currentHandler->processMessage(msg);
    2510:	8d 81       	ldd	r24, Y+5	; 0x05
    2512:	9e 81       	ldd	r25, Y+6	; 0x06
    2514:	fc 01       	movw	r30, r24
    2516:	80 81       	ld	r24, Z
    2518:	91 81       	ldd	r25, Z+1	; 0x01
    251a:	fc 01       	movw	r30, r24
    251c:	80 81       	ld	r24, Z
    251e:	91 81       	ldd	r25, Z+1	; 0x01
    2520:	fc 01       	movw	r30, r24
    2522:	20 81       	ld	r18, Z
    2524:	31 81       	ldd	r19, Z+1	; 0x01
    2526:	8d 81       	ldd	r24, Y+5	; 0x05
    2528:	9e 81       	ldd	r25, Y+6	; 0x06
    252a:	fc 01       	movw	r30, r24
    252c:	80 81       	ld	r24, Z
    252e:	91 81       	ldd	r25, Z+1	; 0x01
    2530:	4f 81       	ldd	r20, Y+7	; 0x07
    2532:	58 85       	ldd	r21, Y+8	; 0x08
    2534:	ba 01       	movw	r22, r20
    2536:	f9 01       	movw	r30, r18
    2538:	09 95       	icall
    253a:	88 2f       	mov	r24, r24
    253c:	90 e0       	ldi	r25, 0x00	; 0
    253e:	9c 83       	std	Y+4, r25	; 0x04
    2540:	8b 83       	std	Y+3, r24	; 0x03
        switch(rc)
    2542:	8b 81       	ldd	r24, Y+3	; 0x03
    2544:	9c 81       	ldd	r25, Y+4	; 0x04
    2546:	00 97       	sbiw	r24, 0x00	; 0
    2548:	09 f0       	breq	.+2      	; 0x254c <_ZN11MessagePump8dispatchER3Msg+0x70>
                break;
            }
            default:
            {
                // TODO: optionally beep() or do something more informative on eFail.
                break;
    254a:	25 c0       	rjmp	.+74     	; 0x2596 <_ZN11MessagePump8dispatchER3Msg+0xba>
        uint16_t rc = m_currentHandler->processMessage(msg);
        switch(rc)
        {
            case eSuccess: // todo: why aren't we looking for eSetNextHandler?
            {
                if(msg.m_nextHandler)
    254c:	8f 81       	ldd	r24, Y+7	; 0x07
    254e:	98 85       	ldd	r25, Y+8	; 0x08
    2550:	fc 01       	movw	r30, r24
    2552:	83 81       	ldd	r24, Z+3	; 0x03
    2554:	94 81       	ldd	r25, Z+4	; 0x04
    2556:	00 97       	sbiw	r24, 0x00	; 0
    2558:	e9 f0       	breq	.+58     	; 0x2594 <_ZN11MessagePump8dispatchER3Msg+0xb8>
                {
                    m_currentHandler = msg.m_nextHandler;
    255a:	8f 81       	ldd	r24, Y+7	; 0x07
    255c:	98 85       	ldd	r25, Y+8	; 0x08
    255e:	fc 01       	movw	r30, r24
    2560:	23 81       	ldd	r18, Z+3	; 0x03
    2562:	34 81       	ldd	r19, Z+4	; 0x04
    2564:	8d 81       	ldd	r24, Y+5	; 0x05
    2566:	9e 81       	ldd	r25, Y+6	; 0x06
    2568:	fc 01       	movw	r30, r24
    256a:	31 83       	std	Z+1, r19	; 0x01
    256c:	20 83       	st	Z, r18
                    m_currentHandler->show();
    256e:	8d 81       	ldd	r24, Y+5	; 0x05
    2570:	9e 81       	ldd	r25, Y+6	; 0x06
    2572:	fc 01       	movw	r30, r24
    2574:	80 81       	ld	r24, Z
    2576:	91 81       	ldd	r25, Z+1	; 0x01
    2578:	fc 01       	movw	r30, r24
    257a:	80 81       	ld	r24, Z
    257c:	91 81       	ldd	r25, Z+1	; 0x01
    257e:	02 96       	adiw	r24, 0x02	; 2
    2580:	fc 01       	movw	r30, r24
    2582:	20 81       	ld	r18, Z
    2584:	31 81       	ldd	r19, Z+1	; 0x01
    2586:	8d 81       	ldd	r24, Y+5	; 0x05
    2588:	9e 81       	ldd	r25, Y+6	; 0x06
    258a:	fc 01       	movw	r30, r24
    258c:	80 81       	ld	r24, Z
    258e:	91 81       	ldd	r25, Z+1	; 0x01
    2590:	f9 01       	movw	r30, r18
    2592:	09 95       	icall
                }
                break;
    2594:	00 00       	nop
            }
        }
    }
    // Make sure that there can be no chance of a Msg
    // retaining a stale handler across successive loops().
    msg.m_nextHandler = NULL;
    2596:	8f 81       	ldd	r24, Y+7	; 0x07
    2598:	98 85       	ldd	r25, Y+8	; 0x08
    259a:	fc 01       	movw	r30, r24
    259c:	14 82       	std	Z+4, r1	; 0x04
    259e:	13 82       	std	Z+3, r1	; 0x03
    return rc;
    25a0:	89 81       	ldd	r24, Y+1	; 0x01
    25a2:	9a 81       	ldd	r25, Y+2	; 0x02
    25a4:	28 96       	adiw	r28, 0x08	; 8
    25a6:	0f b6       	in	r0, 0x3f	; 63
    25a8:	f8 94       	cli
    25aa:	de bf       	out	0x3e, r29	; 62
    25ac:	0f be       	out	0x3f, r0	; 63
    25ae:	cd bf       	out	0x3d, r28	; 61
    25b0:	df 91       	pop	r29
    25b2:	cf 91       	pop	r28
    25b4:	08 95       	ret

000025b6 <_ZN15USBDeviceConfig15ConfigureDeviceEhhb>:
bool NikType003::isConnected() const { return m_stateFlags.m_connected; }
bool NikType003::isLiveViewEnabled() const { return m_stateFlags.m_lvEnabled; }
bool NikType003::isCaptureInProgress() const { return m_stateFlags.m_captureInProgress;}
bool NikType003::isFocusStackActive() const { return m_stateFlags.m_stackActive; }
bool NikType003::isNextFrameFocused() const { return m_stateFlags.m_preparedNextFrame; }
uint16_t NikType003::getProductID() const { return m_idProduct; }
    25b6:	cf 93       	push	r28
    25b8:	df 93       	push	r29
    25ba:	00 d0       	rcall	.+0      	; 0x25bc <_ZN15USBDeviceConfig15ConfigureDeviceEhhb+0x6>
    25bc:	00 d0       	rcall	.+0      	; 0x25be <_ZN15USBDeviceConfig15ConfigureDeviceEhhb+0x8>
    25be:	1f 92       	push	r1
    25c0:	cd b7       	in	r28, 0x3d	; 61
    25c2:	de b7       	in	r29, 0x3e	; 62
    25c4:	9a 83       	std	Y+2, r25	; 0x02
    25c6:	89 83       	std	Y+1, r24	; 0x01
    25c8:	6b 83       	std	Y+3, r22	; 0x03
    25ca:	4c 83       	std	Y+4, r20	; 0x04
    25cc:	2d 83       	std	Y+5, r18	; 0x05
    25ce:	80 e0       	ldi	r24, 0x00	; 0
    25d0:	0f 90       	pop	r0
    25d2:	0f 90       	pop	r0
    25d4:	0f 90       	pop	r0
    25d6:	0f 90       	pop	r0
    25d8:	0f 90       	pop	r0
    25da:	df 91       	pop	r29
    25dc:	cf 91       	pop	r28
    25de:	08 95       	ret

000025e0 <_ZN15USBDeviceConfig12ResetHubPortEh>:
    25e0:	cf 93       	push	r28
    25e2:	df 93       	push	r29
    25e4:	00 d0       	rcall	.+0      	; 0x25e6 <_ZN15USBDeviceConfig12ResetHubPortEh+0x6>
    25e6:	1f 92       	push	r1
    25e8:	cd b7       	in	r28, 0x3d	; 61
    25ea:	de b7       	in	r29, 0x3e	; 62
    25ec:	9a 83       	std	Y+2, r25	; 0x02
    25ee:	89 83       	std	Y+1, r24	; 0x01
    25f0:	6b 83       	std	Y+3, r22	; 0x03
    25f2:	00 00       	nop
    25f4:	0f 90       	pop	r0
    25f6:	0f 90       	pop	r0
    25f8:	0f 90       	pop	r0
    25fa:	df 91       	pop	r29
    25fc:	cf 91       	pop	r28
    25fe:	08 95       	ret

00002600 <_ZN15USBDeviceConfig8VIDPIDOKEjj>:
    2600:	cf 93       	push	r28
    2602:	df 93       	push	r29
    2604:	00 d0       	rcall	.+0      	; 0x2606 <_ZN15USBDeviceConfig8VIDPIDOKEjj+0x6>
    2606:	00 d0       	rcall	.+0      	; 0x2608 <_ZN15USBDeviceConfig8VIDPIDOKEjj+0x8>
    2608:	00 d0       	rcall	.+0      	; 0x260a <_ZN15USBDeviceConfig8VIDPIDOKEjj+0xa>
    260a:	cd b7       	in	r28, 0x3d	; 61
    260c:	de b7       	in	r29, 0x3e	; 62
    260e:	9a 83       	std	Y+2, r25	; 0x02
    2610:	89 83       	std	Y+1, r24	; 0x01
    2612:	7c 83       	std	Y+4, r23	; 0x04
    2614:	6b 83       	std	Y+3, r22	; 0x03
    2616:	5e 83       	std	Y+6, r21	; 0x06
    2618:	4d 83       	std	Y+5, r20	; 0x05
    261a:	80 e0       	ldi	r24, 0x00	; 0
    261c:	26 96       	adiw	r28, 0x06	; 6
    261e:	0f b6       	in	r0, 0x3f	; 63
    2620:	f8 94       	cli
    2622:	de bf       	out	0x3e, r29	; 62
    2624:	0f be       	out	0x3f, r0	; 63
    2626:	cd bf       	out	0x3d, r28	; 61
    2628:	df 91       	pop	r29
    262a:	cf 91       	pop	r28
    262c:	08 95       	ret

0000262e <_ZN15USBDeviceConfig10DEVCLASSOKEh>:
    262e:	cf 93       	push	r28
    2630:	df 93       	push	r29
    2632:	00 d0       	rcall	.+0      	; 0x2634 <_ZN15USBDeviceConfig10DEVCLASSOKEh+0x6>
    2634:	1f 92       	push	r1
    2636:	cd b7       	in	r28, 0x3d	; 61
    2638:	de b7       	in	r29, 0x3e	; 62
    263a:	9a 83       	std	Y+2, r25	; 0x02
    263c:	89 83       	std	Y+1, r24	; 0x01
    263e:	6b 83       	std	Y+3, r22	; 0x03
    2640:	80 e0       	ldi	r24, 0x00	; 0
    2642:	0f 90       	pop	r0
    2644:	0f 90       	pop	r0
    2646:	0f 90       	pop	r0
    2648:	df 91       	pop	r29
    264a:	cf 91       	pop	r28
    264c:	08 95       	ret

0000264e <_ZN3USB14GetAddressPoolEv>:
    264e:	cf 93       	push	r28
    2650:	df 93       	push	r29
    2652:	00 d0       	rcall	.+0      	; 0x2654 <_ZN3USB14GetAddressPoolEv+0x6>
    2654:	cd b7       	in	r28, 0x3d	; 61
    2656:	de b7       	in	r29, 0x3e	; 62
    2658:	9a 83       	std	Y+2, r25	; 0x02
    265a:	89 83       	std	Y+1, r24	; 0x01
    265c:	89 81       	ldd	r24, Y+1	; 0x01
    265e:	9a 81       	ldd	r25, Y+2	; 0x02
    2660:	0f 90       	pop	r0
    2662:	0f 90       	pop	r0
    2664:	df 91       	pop	r29
    2666:	cf 91       	pop	r28
    2668:	08 95       	ret

0000266a <_ZN20MultiByteValueParserC1Ev>:
    266a:	cf 93       	push	r28
    266c:	df 93       	push	r29
    266e:	00 d0       	rcall	.+0      	; 0x2670 <_ZN20MultiByteValueParserC1Ev+0x6>
    2670:	cd b7       	in	r28, 0x3d	; 61
    2672:	de b7       	in	r29, 0x3e	; 62
    2674:	9a 83       	std	Y+2, r25	; 0x02
    2676:	89 83       	std	Y+1, r24	; 0x01
    2678:	89 81       	ldd	r24, Y+1	; 0x01
    267a:	9a 81       	ldd	r25, Y+2	; 0x02
    267c:	fc 01       	movw	r30, r24
    267e:	11 82       	std	Z+1, r1	; 0x01
    2680:	10 82       	st	Z, r1
    2682:	89 81       	ldd	r24, Y+1	; 0x01
    2684:	9a 81       	ldd	r25, Y+2	; 0x02
    2686:	fc 01       	movw	r30, r24
    2688:	12 82       	std	Z+2, r1	; 0x02
    268a:	89 81       	ldd	r24, Y+1	; 0x01
    268c:	9a 81       	ldd	r25, Y+2	; 0x02
    268e:	fc 01       	movw	r30, r24
    2690:	13 82       	std	Z+3, r1	; 0x03
    2692:	0f 90       	pop	r0
    2694:	0f 90       	pop	r0
    2696:	df 91       	pop	r29
    2698:	cf 91       	pop	r28
    269a:	08 95       	ret

0000269c <_ZN3PTP10GetAddressEv>:
    269c:	cf 93       	push	r28
    269e:	df 93       	push	r29
    26a0:	00 d0       	rcall	.+0      	; 0x26a2 <_ZN3PTP10GetAddressEv+0x6>
    26a2:	cd b7       	in	r28, 0x3d	; 61
    26a4:	de b7       	in	r29, 0x3e	; 62
    26a6:	9a 83       	std	Y+2, r25	; 0x02
    26a8:	89 83       	std	Y+1, r24	; 0x01
    26aa:	89 81       	ldd	r24, Y+1	; 0x01
    26ac:	9a 81       	ldd	r25, Y+2	; 0x02
    26ae:	fc 01       	movw	r30, r24
    26b0:	82 85       	ldd	r24, Z+10	; 0x0a
    26b2:	0f 90       	pop	r0
    26b4:	0f 90       	pop	r0
    26b6:	df 91       	pop	r29
    26b8:	cf 91       	pop	r28
    26ba:	08 95       	ret

000026bc <_ZN13PTPReadParserC1Ev>:
    26bc:	cf 93       	push	r28
    26be:	df 93       	push	r29
    26c0:	00 d0       	rcall	.+0      	; 0x26c2 <_ZN13PTPReadParserC1Ev+0x6>
    26c2:	cd b7       	in	r28, 0x3d	; 61
    26c4:	de b7       	in	r29, 0x3e	; 62
    26c6:	9a 83       	std	Y+2, r25	; 0x02
    26c8:	89 83       	std	Y+1, r24	; 0x01
    26ca:	89 81       	ldd	r24, Y+1	; 0x01
    26cc:	9a 81       	ldd	r25, Y+2	; 0x02
    26ce:	22 ec       	ldi	r18, 0xC2	; 194
    26d0:	31 e0       	ldi	r19, 0x01	; 1
    26d2:	fc 01       	movw	r30, r24
    26d4:	31 83       	std	Z+1, r19	; 0x01
    26d6:	20 83       	st	Z, r18
    26d8:	0f 90       	pop	r0
    26da:	0f 90       	pop	r0
    26dc:	df 91       	pop	r29
    26de:	cf 91       	pop	r28
    26e0:	08 95       	ret

000026e2 <_ZN13NKEventParserC1EP15NKEventHandlers>:
    26e2:	cf 93       	push	r28
    26e4:	df 93       	push	r29
    26e6:	00 d0       	rcall	.+0      	; 0x26e8 <_ZN13NKEventParserC1EP15NKEventHandlers+0x6>
    26e8:	00 d0       	rcall	.+0      	; 0x26ea <_ZN13NKEventParserC1EP15NKEventHandlers+0x8>
    26ea:	1f 92       	push	r1
    26ec:	cd b7       	in	r28, 0x3d	; 61
    26ee:	de b7       	in	r29, 0x3e	; 62
    26f0:	9b 83       	std	Y+3, r25	; 0x03
    26f2:	8a 83       	std	Y+2, r24	; 0x02
    26f4:	7d 83       	std	Y+5, r23	; 0x05
    26f6:	6c 83       	std	Y+4, r22	; 0x04
    26f8:	8a 81       	ldd	r24, Y+2	; 0x02
    26fa:	9b 81       	ldd	r25, Y+3	; 0x03
    26fc:	df df       	rcall	.-66     	; 0x26bc <_ZN13PTPReadParserC1Ev>
    26fe:	8a 81       	ldd	r24, Y+2	; 0x02
    2700:	9b 81       	ldd	r25, Y+3	; 0x03
    2702:	28 e3       	ldi	r18, 0x38	; 56
    2704:	32 e0       	ldi	r19, 0x02	; 2
    2706:	fc 01       	movw	r30, r24
    2708:	31 83       	std	Z+1, r19	; 0x01
    270a:	20 83       	st	Z, r18
    270c:	8a 81       	ldd	r24, Y+2	; 0x02
    270e:	9b 81       	ldd	r25, Y+3	; 0x03
    2710:	2f ef       	ldi	r18, 0xFF	; 255
    2712:	3f ef       	ldi	r19, 0xFF	; 255
    2714:	fc 01       	movw	r30, r24
    2716:	33 83       	std	Z+3, r19	; 0x03
    2718:	22 83       	std	Z+2, r18	; 0x02
    271a:	8a 81       	ldd	r24, Y+2	; 0x02
    271c:	9b 81       	ldd	r25, Y+3	; 0x03
    271e:	2c 81       	ldd	r18, Y+4	; 0x04
    2720:	3d 81       	ldd	r19, Y+5	; 0x05
    2722:	fc 01       	movw	r30, r24
    2724:	35 83       	std	Z+5, r19	; 0x05
    2726:	24 83       	std	Z+4, r18	; 0x04
    2728:	8a 81       	ldd	r24, Y+2	; 0x02
    272a:	9b 81       	ldd	r25, Y+3	; 0x03
    272c:	fc 01       	movw	r30, r24
    272e:	17 82       	std	Z+7, r1	; 0x07
    2730:	8a 81       	ldd	r24, Y+2	; 0x02
    2732:	9b 81       	ldd	r25, Y+3	; 0x03
    2734:	fc 01       	movw	r30, r24
    2736:	12 86       	std	Z+10, r1	; 0x0a
    2738:	11 86       	std	Z+9, r1	; 0x09
    273a:	8a 81       	ldd	r24, Y+2	; 0x02
    273c:	9b 81       	ldd	r25, Y+3	; 0x03
    273e:	45 96       	adiw	r24, 0x15	; 21
    2740:	94 df       	rcall	.-216    	; 0x266a <_ZN20MultiByteValueParserC1Ev>
    2742:	19 82       	std	Y+1, r1	; 0x01
    2744:	10 c0       	rjmp	.+32     	; 0x2766 <_ZN13NKEventParserC1EP15NKEventHandlers+0x84>
    2746:	89 81       	ldd	r24, Y+1	; 0x01
    2748:	88 2f       	mov	r24, r24
    274a:	90 e0       	ldi	r25, 0x00	; 0
    274c:	2a 81       	ldd	r18, Y+2	; 0x02
    274e:	3b 81       	ldd	r19, Y+3	; 0x03
    2750:	88 0f       	add	r24, r24
    2752:	99 1f       	adc	r25, r25
    2754:	82 0f       	add	r24, r18
    2756:	93 1f       	adc	r25, r19
    2758:	0f 96       	adiw	r24, 0x0f	; 15
    275a:	fc 01       	movw	r30, r24
    275c:	11 82       	std	Z+1, r1	; 0x01
    275e:	10 82       	st	Z, r1
    2760:	89 81       	ldd	r24, Y+1	; 0x01
    2762:	8f 5f       	subi	r24, 0xFF	; 255
    2764:	89 83       	std	Y+1, r24	; 0x01
    2766:	89 81       	ldd	r24, Y+1	; 0x01
    2768:	83 30       	cpi	r24, 0x03	; 3
    276a:	68 f3       	brcs	.-38     	; 0x2746 <_ZN13NKEventParserC1EP15NKEventHandlers+0x64>
    276c:	8a 81       	ldd	r24, Y+2	; 0x02
    276e:	9b 81       	ldd	r25, Y+3	; 0x03
    2770:	9c 01       	movw	r18, r24
    2772:	21 5f       	subi	r18, 0xF1	; 241
    2774:	3f 4f       	sbci	r19, 0xFF	; 255
    2776:	8a 81       	ldd	r24, Y+2	; 0x02
    2778:	9b 81       	ldd	r25, Y+3	; 0x03
    277a:	fc 01       	movw	r30, r24
    277c:	36 87       	std	Z+14, r19	; 0x0e
    277e:	25 87       	std	Z+13, r18	; 0x0d
    2780:	0f 90       	pop	r0
    2782:	0f 90       	pop	r0
    2784:	0f 90       	pop	r0
    2786:	0f 90       	pop	r0
    2788:	0f 90       	pop	r0
    278a:	df 91       	pop	r29
    278c:	cf 91       	pop	r28
    278e:	08 95       	ret

00002790 <_ZN13NikStateFlagsC1Ev>:
    2790:	cf 93       	push	r28
    2792:	df 93       	push	r29
    2794:	00 d0       	rcall	.+0      	; 0x2796 <_ZN13NikStateFlagsC1Ev+0x6>
    2796:	cd b7       	in	r28, 0x3d	; 61
    2798:	de b7       	in	r29, 0x3e	; 62
    279a:	9a 83       	std	Y+2, r25	; 0x02
    279c:	89 83       	std	Y+1, r24	; 0x01
    279e:	89 81       	ldd	r24, Y+1	; 0x01
    27a0:	9a 81       	ldd	r25, Y+2	; 0x02
    27a2:	fc 01       	movw	r30, r24
    27a4:	20 81       	ld	r18, Z
    27a6:	2e 7f       	andi	r18, 0xFE	; 254
    27a8:	fc 01       	movw	r30, r24
    27aa:	20 83       	st	Z, r18
    27ac:	89 81       	ldd	r24, Y+1	; 0x01
    27ae:	9a 81       	ldd	r25, Y+2	; 0x02
    27b0:	fc 01       	movw	r30, r24
    27b2:	20 81       	ld	r18, Z
    27b4:	2d 7f       	andi	r18, 0xFD	; 253
    27b6:	fc 01       	movw	r30, r24
    27b8:	20 83       	st	Z, r18
    27ba:	89 81       	ldd	r24, Y+1	; 0x01
    27bc:	9a 81       	ldd	r25, Y+2	; 0x02
    27be:	fc 01       	movw	r30, r24
    27c0:	20 81       	ld	r18, Z
    27c2:	2b 7f       	andi	r18, 0xFB	; 251
    27c4:	fc 01       	movw	r30, r24
    27c6:	20 83       	st	Z, r18
    27c8:	89 81       	ldd	r24, Y+1	; 0x01
    27ca:	9a 81       	ldd	r25, Y+2	; 0x02
    27cc:	fc 01       	movw	r30, r24
    27ce:	20 81       	ld	r18, Z
    27d0:	27 7f       	andi	r18, 0xF7	; 247
    27d2:	fc 01       	movw	r30, r24
    27d4:	20 83       	st	Z, r18
    27d6:	89 81       	ldd	r24, Y+1	; 0x01
    27d8:	9a 81       	ldd	r25, Y+2	; 0x02
    27da:	fc 01       	movw	r30, r24
    27dc:	20 81       	ld	r18, Z
    27de:	2f 7e       	andi	r18, 0xEF	; 239
    27e0:	fc 01       	movw	r30, r24
    27e2:	20 83       	st	Z, r18
    27e4:	89 81       	ldd	r24, Y+1	; 0x01
    27e6:	9a 81       	ldd	r25, Y+2	; 0x02
    27e8:	fc 01       	movw	r30, r24
    27ea:	20 81       	ld	r18, Z
    27ec:	20 62       	ori	r18, 0x20	; 32
    27ee:	fc 01       	movw	r30, r24
    27f0:	20 83       	st	Z, r18
    27f2:	0f 90       	pop	r0
    27f4:	0f 90       	pop	r0
    27f6:	df 91       	pop	r29
    27f8:	cf 91       	pop	r28
    27fa:	08 95       	ret

000027fc <_ZNK12SetupHandler14getDriveAmountEv>:
    27fc:	cf 93       	push	r28
    27fe:	df 93       	push	r29
    2800:	00 d0       	rcall	.+0      	; 0x2802 <_ZNK12SetupHandler14getDriveAmountEv+0x6>
    2802:	cd b7       	in	r28, 0x3d	; 61
    2804:	de b7       	in	r29, 0x3e	; 62
    2806:	9a 83       	std	Y+2, r25	; 0x02
    2808:	89 83       	std	Y+1, r24	; 0x01
    280a:	89 81       	ldd	r24, Y+1	; 0x01
    280c:	9a 81       	ldd	r25, Y+2	; 0x02
    280e:	fc 01       	movw	r30, r24
    2810:	86 85       	ldd	r24, Z+14	; 0x0e
    2812:	97 85       	ldd	r25, Z+15	; 0x0f
    2814:	a0 89       	ldd	r26, Z+16	; 0x10
    2816:	b1 89       	ldd	r27, Z+17	; 0x11
    2818:	bc 01       	movw	r22, r24
    281a:	cd 01       	movw	r24, r26
    281c:	0f 90       	pop	r0
    281e:	0f 90       	pop	r0
    2820:	df 91       	pop	r29
    2822:	cf 91       	pop	r28
    2824:	08 95       	ret

00002826 <_ZNK12SetupHandler12getNumFramesEv>:
    2826:	cf 93       	push	r28
    2828:	df 93       	push	r29
    282a:	00 d0       	rcall	.+0      	; 0x282c <_ZNK12SetupHandler12getNumFramesEv+0x6>
    282c:	cd b7       	in	r28, 0x3d	; 61
    282e:	de b7       	in	r29, 0x3e	; 62
    2830:	9a 83       	std	Y+2, r25	; 0x02
    2832:	89 83       	std	Y+1, r24	; 0x01
    2834:	89 81       	ldd	r24, Y+1	; 0x01
    2836:	9a 81       	ldd	r25, Y+2	; 0x02
    2838:	fc 01       	movw	r30, r24
    283a:	82 89       	ldd	r24, Z+18	; 0x12
    283c:	93 89       	ldd	r25, Z+19	; 0x13
    283e:	a4 89       	ldd	r26, Z+20	; 0x14
    2840:	b5 89       	ldd	r27, Z+21	; 0x15
    2842:	bc 01       	movw	r22, r24
    2844:	cd 01       	movw	r24, r26
    2846:	0f 90       	pop	r0
    2848:	0f 90       	pop	r0
    284a:	df 91       	pop	r29
    284c:	cf 91       	pop	r28
    284e:	08 95       	ret

00002850 <_ZNK12SetupHandler15getRestoreFocusEv>:
    2850:	cf 93       	push	r28
    2852:	df 93       	push	r29
    2854:	00 d0       	rcall	.+0      	; 0x2856 <_ZNK12SetupHandler15getRestoreFocusEv+0x6>
    2856:	cd b7       	in	r28, 0x3d	; 61
    2858:	de b7       	in	r29, 0x3e	; 62
    285a:	9a 83       	std	Y+2, r25	; 0x02
    285c:	89 83       	std	Y+1, r24	; 0x01
    285e:	89 81       	ldd	r24, Y+1	; 0x01
    2860:	9a 81       	ldd	r25, Y+2	; 0x02
    2862:	fc 01       	movw	r30, r24
    2864:	82 8d       	ldd	r24, Z+26	; 0x1a
    2866:	0f 90       	pop	r0
    2868:	0f 90       	pop	r0
    286a:	df 91       	pop	r29
    286c:	cf 91       	pop	r28
    286e:	08 95       	ret

00002870 <_ZN15NKEventHandlersC1Ev>:
    2870:	cf 93       	push	r28
    2872:	df 93       	push	r29
    2874:	00 d0       	rcall	.+0      	; 0x2876 <_ZN15NKEventHandlersC1Ev+0x6>
    2876:	cd b7       	in	r28, 0x3d	; 61
    2878:	de b7       	in	r29, 0x3e	; 62
    287a:	9a 83       	std	Y+2, r25	; 0x02
    287c:	89 83       	std	Y+1, r24	; 0x01
    287e:	89 81       	ldd	r24, Y+1	; 0x01
    2880:	9a 81       	ldd	r25, Y+2	; 0x02
    2882:	2c eb       	ldi	r18, 0xBC	; 188
    2884:	31 e0       	ldi	r19, 0x01	; 1
    2886:	fc 01       	movw	r30, r24
    2888:	31 83       	std	Z+1, r19	; 0x01
    288a:	20 83       	st	Z, r18
    288c:	0f 90       	pop	r0
    288e:	0f 90       	pop	r0
    2890:	df 91       	pop	r29
    2892:	cf 91       	pop	r28
    2894:	08 95       	ret

00002896 <_ZN10NikType003C1EP3USBP16PTPStateHandlers>:
    2896:	cf 93       	push	r28
    2898:	df 93       	push	r29
    289a:	00 d0       	rcall	.+0      	; 0x289c <_ZN10NikType003C1EP3USBP16PTPStateHandlers+0x6>
    289c:	00 d0       	rcall	.+0      	; 0x289e <_ZN10NikType003C1EP3USBP16PTPStateHandlers+0x8>
    289e:	00 d0       	rcall	.+0      	; 0x28a0 <_ZN10NikType003C1EP3USBP16PTPStateHandlers+0xa>
    28a0:	cd b7       	in	r28, 0x3d	; 61
    28a2:	de b7       	in	r29, 0x3e	; 62
    28a4:	9a 83       	std	Y+2, r25	; 0x02
    28a6:	89 83       	std	Y+1, r24	; 0x01
    28a8:	7c 83       	std	Y+4, r23	; 0x04
    28aa:	6b 83       	std	Y+3, r22	; 0x03
    28ac:	5e 83       	std	Y+6, r21	; 0x06
    28ae:	4d 83       	std	Y+5, r20	; 0x05
    28b0:	89 81       	ldd	r24, Y+1	; 0x01
    28b2:	9a 81       	ldd	r25, Y+2	; 0x02
    28b4:	4d 81       	ldd	r20, Y+5	; 0x05
    28b6:	5e 81       	ldd	r21, Y+6	; 0x06
    28b8:	2b 81       	ldd	r18, Y+3	; 0x03
    28ba:	3c 81       	ldd	r19, Y+4	; 0x04
    28bc:	b9 01       	movw	r22, r18
    28be:	0e 94 68 2f 	call	0x5ed0	; 0x5ed0 <_ZN3PTPC1EP3USBP16PTPStateHandlers>
    28c2:	89 81       	ldd	r24, Y+1	; 0x01
    28c4:	9a 81       	ldd	r25, Y+2	; 0x02
    28c6:	4a 96       	adiw	r24, 0x1a	; 26
    28c8:	d3 df       	rcall	.-90     	; 0x2870 <_ZN15NKEventHandlersC1Ev>
    28ca:	89 81       	ldd	r24, Y+1	; 0x01
    28cc:	9a 81       	ldd	r25, Y+2	; 0x02
    28ce:	2e e9       	ldi	r18, 0x9E	; 158
    28d0:	31 e0       	ldi	r19, 0x01	; 1
    28d2:	fc 01       	movw	r30, r24
    28d4:	31 83       	std	Z+1, r19	; 0x01
    28d6:	20 83       	st	Z, r18
    28d8:	89 81       	ldd	r24, Y+1	; 0x01
    28da:	9a 81       	ldd	r25, Y+2	; 0x02
    28dc:	26 eb       	ldi	r18, 0xB6	; 182
    28de:	31 e0       	ldi	r19, 0x01	; 1
    28e0:	fc 01       	movw	r30, r24
    28e2:	33 8f       	std	Z+27, r19	; 0x1b
    28e4:	22 8f       	std	Z+26, r18	; 0x1a
    28e6:	29 81       	ldd	r18, Y+1	; 0x01
    28e8:	3a 81       	ldd	r19, Y+2	; 0x02
    28ea:	88 ee       	ldi	r24, 0xE8	; 232
    28ec:	93 e0       	ldi	r25, 0x03	; 3
    28ee:	a0 e0       	ldi	r26, 0x00	; 0
    28f0:	b0 e0       	ldi	r27, 0x00	; 0
    28f2:	f9 01       	movw	r30, r18
    28f4:	84 8f       	std	Z+28, r24	; 0x1c
    28f6:	95 8f       	std	Z+29, r25	; 0x1d
    28f8:	a6 8f       	std	Z+30, r26	; 0x1e
    28fa:	b7 8f       	std	Z+31, r27	; 0x1f
    28fc:	89 81       	ldd	r24, Y+1	; 0x01
    28fe:	9a 81       	ldd	r25, Y+2	; 0x02
    2900:	fc 01       	movw	r30, r24
    2902:	10 a2       	std	Z+32, r1	; 0x20
    2904:	11 a2       	std	Z+33, r1	; 0x21
    2906:	12 a2       	std	Z+34, r1	; 0x22
    2908:	13 a2       	std	Z+35, r1	; 0x23
    290a:	89 81       	ldd	r24, Y+1	; 0x01
    290c:	9a 81       	ldd	r25, Y+2	; 0x02
    290e:	84 96       	adiw	r24, 0x24	; 36
    2910:	3f df       	rcall	.-386    	; 0x2790 <_ZN13NikStateFlagsC1Ev>
    2912:	89 81       	ldd	r24, Y+1	; 0x01
    2914:	9a 81       	ldd	r25, Y+2	; 0x02
    2916:	fc 01       	movw	r30, r24
    2918:	16 a2       	std	Z+38, r1	; 0x26
    291a:	15 a2       	std	Z+37, r1	; 0x25
    291c:	89 81       	ldd	r24, Y+1	; 0x01
    291e:	9a 81       	ldd	r25, Y+2	; 0x02
    2920:	fc 01       	movw	r30, r24
    2922:	17 a2       	std	Z+39, r1	; 0x27
    2924:	10 a6       	std	Z+40, r1	; 0x28
    2926:	11 a6       	std	Z+41, r1	; 0x29
    2928:	12 a6       	std	Z+42, r1	; 0x2a
    292a:	89 81       	ldd	r24, Y+1	; 0x01
    292c:	9a 81       	ldd	r25, Y+2	; 0x02
    292e:	fc 01       	movw	r30, r24
    2930:	14 a6       	std	Z+44, r1	; 0x2c
    2932:	13 a6       	std	Z+43, r1	; 0x2b
    2934:	89 81       	ldd	r24, Y+1	; 0x01
    2936:	9a 81       	ldd	r25, Y+2	; 0x02
    2938:	24 e6       	ldi	r18, 0x64	; 100
    293a:	30 e0       	ldi	r19, 0x00	; 0
    293c:	fc 01       	movw	r30, r24
    293e:	36 a7       	std	Z+46, r19	; 0x2e
    2940:	25 a7       	std	Z+45, r18	; 0x2d
    2942:	89 81       	ldd	r24, Y+1	; 0x01
    2944:	9a 81       	ldd	r25, Y+2	; 0x02
    2946:	fc 01       	movw	r30, r24
    2948:	17 a6       	std	Z+47, r1	; 0x2f
    294a:	10 aa       	std	Z+48, r1	; 0x30
    294c:	11 aa       	std	Z+49, r1	; 0x31
    294e:	12 aa       	std	Z+50, r1	; 0x32
    2950:	26 96       	adiw	r28, 0x06	; 6
    2952:	0f b6       	in	r0, 0x3f	; 63
    2954:	f8 94       	cli
    2956:	de bf       	out	0x3e, r29	; 62
    2958:	0f be       	out	0x3f, r0	; 63
    295a:	cd bf       	out	0x3d, r28	; 61
    295c:	df 91       	pop	r29
    295e:	cf 91       	pop	r28
    2960:	08 95       	ret

00002962 <_ZN10NikType0034InitEhhb>:
    2962:	0f 93       	push	r16
    2964:	1f 93       	push	r17
    2966:	cf 93       	push	r28
    2968:	df 93       	push	r29
    296a:	cd b7       	in	r28, 0x3d	; 61
    296c:	de b7       	in	r29, 0x3e	; 62
    296e:	6a 97       	sbiw	r28, 0x1a	; 26
    2970:	0f b6       	in	r0, 0x3f	; 63
    2972:	f8 94       	cli
    2974:	de bf       	out	0x3e, r29	; 62
    2976:	0f be       	out	0x3f, r0	; 63
    2978:	cd bf       	out	0x3d, r28	; 61
    297a:	9f 8b       	std	Y+23, r25	; 0x17
    297c:	8e 8b       	std	Y+22, r24	; 0x16
    297e:	68 8f       	std	Y+24, r22	; 0x18
    2980:	49 8f       	std	Y+25, r20	; 0x19
    2982:	2a 8f       	std	Y+26, r18	; 0x1a
    2984:	1a 82       	std	Y+2, r1	; 0x02
    2986:	19 82       	std	Y+1, r1	; 0x01
    2988:	1c 82       	std	Y+4, r1	; 0x04
    298a:	1b 82       	std	Y+3, r1	; 0x03
    298c:	8e 89       	ldd	r24, Y+22	; 0x16
    298e:	9f 89       	ldd	r25, Y+23	; 0x17
    2990:	fc 01       	movw	r30, r24
    2992:	84 85       	ldd	r24, Z+12	; 0x0c
    2994:	95 85       	ldd	r25, Z+13	; 0x0d
    2996:	5b de       	rcall	.-842    	; 0x264e <_ZN3USB14GetAddressPoolEv>
    2998:	9e 83       	std	Y+6, r25	; 0x06
    299a:	8d 83       	std	Y+5, r24	; 0x05
    299c:	8e 89       	ldd	r24, Y+22	; 0x16
    299e:	9f 89       	ldd	r25, Y+23	; 0x17
    29a0:	fc 01       	movw	r30, r24
    29a2:	82 85       	ldd	r24, Z+10	; 0x0a
    29a4:	88 23       	and	r24, r24
    29a6:	11 f0       	breq	.+4      	; 0x29ac <_ZN10NikType0034InitEhhb+0x4a>
    29a8:	89 ed       	ldi	r24, 0xD9	; 217
    29aa:	80 c0       	rjmp	.+256    	; 0x2aac <_ZN10NikType0034InitEhhb+0x14a>
    29ac:	8d 81       	ldd	r24, Y+5	; 0x05
    29ae:	9e 81       	ldd	r25, Y+6	; 0x06
    29b0:	fc 01       	movw	r30, r24
    29b2:	80 81       	ld	r24, Z
    29b4:	91 81       	ldd	r25, Z+1	; 0x01
    29b6:	fc 01       	movw	r30, r24
    29b8:	20 81       	ld	r18, Z
    29ba:	31 81       	ldd	r19, Z+1	; 0x01
    29bc:	8d 81       	ldd	r24, Y+5	; 0x05
    29be:	9e 81       	ldd	r25, Y+6	; 0x06
    29c0:	60 e0       	ldi	r22, 0x00	; 0
    29c2:	f9 01       	movw	r30, r18
    29c4:	09 95       	icall
    29c6:	9a 83       	std	Y+2, r25	; 0x02
    29c8:	89 83       	std	Y+1, r24	; 0x01
    29ca:	89 81       	ldd	r24, Y+1	; 0x01
    29cc:	9a 81       	ldd	r25, Y+2	; 0x02
    29ce:	00 97       	sbiw	r24, 0x00	; 0
    29d0:	11 f4       	brne	.+4      	; 0x29d6 <_ZN10NikType0034InitEhhb+0x74>
    29d2:	86 ed       	ldi	r24, 0xD6	; 214
    29d4:	6b c0       	rjmp	.+214    	; 0x2aac <_ZN10NikType0034InitEhhb+0x14a>
    29d6:	89 81       	ldd	r24, Y+1	; 0x01
    29d8:	9a 81       	ldd	r25, Y+2	; 0x02
    29da:	fc 01       	movw	r30, r24
    29dc:	80 81       	ld	r24, Z
    29de:	91 81       	ldd	r25, Z+1	; 0x01
    29e0:	00 97       	sbiw	r24, 0x00	; 0
    29e2:	11 f4       	brne	.+4      	; 0x29e8 <_ZN10NikType0034InitEhhb+0x86>
    29e4:	87 ed       	ldi	r24, 0xD7	; 215
    29e6:	62 c0       	rjmp	.+196    	; 0x2aac <_ZN10NikType0034InitEhhb+0x14a>
    29e8:	89 81       	ldd	r24, Y+1	; 0x01
    29ea:	9a 81       	ldd	r25, Y+2	; 0x02
    29ec:	fc 01       	movw	r30, r24
    29ee:	80 81       	ld	r24, Z
    29f0:	91 81       	ldd	r25, Z+1	; 0x01
    29f2:	9c 83       	std	Y+4, r25	; 0x04
    29f4:	8b 83       	std	Y+3, r24	; 0x03
    29f6:	8e 89       	ldd	r24, Y+22	; 0x16
    29f8:	9f 89       	ldd	r25, Y+23	; 0x17
    29fa:	9c 01       	movw	r18, r24
    29fc:	22 5f       	subi	r18, 0xF2	; 242
    29fe:	3f 4f       	sbci	r19, 0xFF	; 255
    2a00:	89 81       	ldd	r24, Y+1	; 0x01
    2a02:	9a 81       	ldd	r25, Y+2	; 0x02
    2a04:	fc 01       	movw	r30, r24
    2a06:	31 83       	std	Z+1, r19	; 0x01
    2a08:	20 83       	st	Z, r18
    2a0a:	8e 89       	ldd	r24, Y+22	; 0x16
    2a0c:	9f 89       	ldd	r25, Y+23	; 0x17
    2a0e:	fc 01       	movw	r30, r24
    2a10:	84 85       	ldd	r24, Z+12	; 0x0c
    2a12:	95 85       	ldd	r25, Z+13	; 0x0d
    2a14:	9e 01       	movw	r18, r28
    2a16:	26 5f       	subi	r18, 0xF6	; 246
    2a18:	3f 4f       	sbci	r19, 0xFF	; 255
    2a1a:	89 01       	movw	r16, r18
    2a1c:	2c e0       	ldi	r18, 0x0C	; 12
    2a1e:	30 e0       	ldi	r19, 0x00	; 0
    2a20:	40 e0       	ldi	r20, 0x00	; 0
    2a22:	60 e0       	ldi	r22, 0x00	; 0
    2a24:	0e 94 a4 3a 	call	0x7548	; 0x7548 <_ZN3USB11getDevDescrEhhjPh>
    2a28:	8f 83       	std	Y+7, r24	; 0x07
    2a2a:	89 81       	ldd	r24, Y+1	; 0x01
    2a2c:	9a 81       	ldd	r25, Y+2	; 0x02
    2a2e:	2b 81       	ldd	r18, Y+3	; 0x03
    2a30:	3c 81       	ldd	r19, Y+4	; 0x04
    2a32:	fc 01       	movw	r30, r24
    2a34:	31 83       	std	Z+1, r19	; 0x01
    2a36:	20 83       	st	Z, r18
    2a38:	8f 81       	ldd	r24, Y+7	; 0x07
    2a3a:	88 23       	and	r24, r24
    2a3c:	41 f0       	breq	.+16     	; 0x2a4e <_ZN10NikType0034InitEhhb+0xec>
    2a3e:	61 e0       	ldi	r22, 0x01	; 1
    2a40:	70 e0       	ldi	r23, 0x00	; 0
    2a42:	80 e0       	ldi	r24, 0x00	; 0
    2a44:	90 e0       	ldi	r25, 0x00	; 0
    2a46:	0e 94 d2 2c 	call	0x59a4	; 0x59a4 <delay>
    2a4a:	8f 81       	ldd	r24, Y+7	; 0x07
    2a4c:	2f c0       	rjmp	.+94     	; 0x2aac <_ZN10NikType0034InitEhhb+0x14a>
    2a4e:	ce 01       	movw	r24, r28
    2a50:	0a 96       	adiw	r24, 0x0a	; 10
    2a52:	99 87       	std	Y+9, r25	; 0x09
    2a54:	88 87       	std	Y+8, r24	; 0x08
    2a56:	88 85       	ldd	r24, Y+8	; 0x08
    2a58:	99 85       	ldd	r25, Y+9	; 0x09
    2a5a:	fc 01       	movw	r30, r24
    2a5c:	80 85       	ldd	r24, Z+8	; 0x08
    2a5e:	91 85       	ldd	r25, Z+9	; 0x09
    2a60:	80 3b       	cpi	r24, 0xB0	; 176
    2a62:	f4 e0       	ldi	r31, 0x04	; 4
    2a64:	9f 07       	cpc	r25, r31
    2a66:	91 f4       	brne	.+36     	; 0x2a8c <_ZN10NikType0034InitEhhb+0x12a>
    2a68:	88 85       	ldd	r24, Y+8	; 0x08
    2a6a:	99 85       	ldd	r25, Y+9	; 0x09
    2a6c:	fc 01       	movw	r30, r24
    2a6e:	22 85       	ldd	r18, Z+10	; 0x0a
    2a70:	33 85       	ldd	r19, Z+11	; 0x0b
    2a72:	8e 89       	ldd	r24, Y+22	; 0x16
    2a74:	9f 89       	ldd	r25, Y+23	; 0x17
    2a76:	fc 01       	movw	r30, r24
    2a78:	34 a7       	std	Z+44, r19	; 0x2c
    2a7a:	23 a7       	std	Z+43, r18	; 0x2b
    2a7c:	8e 89       	ldd	r24, Y+22	; 0x16
    2a7e:	9f 89       	ldd	r25, Y+23	; 0x17
    2a80:	2a 8d       	ldd	r18, Y+26	; 0x1a
    2a82:	49 8d       	ldd	r20, Y+25	; 0x19
    2a84:	68 8d       	ldd	r22, Y+24	; 0x18
    2a86:	0e 94 ef 2f 	call	0x5fde	; 0x5fde <_ZN3PTP4InitEhhb>
    2a8a:	10 c0       	rjmp	.+32     	; 0x2aac <_ZN10NikType0034InitEhhb+0x14a>
    2a8c:	80 91 0a 01 	lds	r24, 0x010A
    2a90:	90 91 0b 01 	lds	r25, 0x010B
    2a94:	0e 94 80 06 	call	0xd00	; 0xd00 <_ZN21Adafruit_RGBLCDShield5clearEv>
    2a98:	2d e6       	ldi	r18, 0x6D	; 109
    2a9a:	32 e0       	ldi	r19, 0x02	; 2
    2a9c:	80 91 0a 01 	lds	r24, 0x010A
    2aa0:	90 91 0b 01 	lds	r25, 0x010B
    2aa4:	b9 01       	movw	r22, r18
    2aa6:	0e 94 2c 2b 	call	0x5658	; 0x5658 <_ZN5Print5printEPK19__FlashStringHelper>
    2aaa:	81 ed       	ldi	r24, 0xD1	; 209
    2aac:	6a 96       	adiw	r28, 0x1a	; 26
    2aae:	0f b6       	in	r0, 0x3f	; 63
    2ab0:	f8 94       	cli
    2ab2:	de bf       	out	0x3e, r29	; 62
    2ab4:	0f be       	out	0x3f, r0	; 63
    2ab6:	cd bf       	out	0x3d, r28	; 61
    2ab8:	df 91       	pop	r29
    2aba:	cf 91       	pop	r28
    2abc:	1f 91       	pop	r17
    2abe:	0f 91       	pop	r16
    2ac0:	08 95       	ret

00002ac2 <_ZN10NikType0034PollEv>:
    2ac2:	cf 93       	push	r28
    2ac4:	df 93       	push	r29
    2ac6:	cd b7       	in	r28, 0x3d	; 61
    2ac8:	de b7       	in	r29, 0x3e	; 62
    2aca:	6f 97       	sbiw	r28, 0x1f	; 31
    2acc:	0f b6       	in	r0, 0x3f	; 63
    2ace:	f8 94       	cli
    2ad0:	de bf       	out	0x3e, r29	; 62
    2ad2:	0f be       	out	0x3f, r0	; 63
    2ad4:	cd bf       	out	0x3d, r28	; 61
    2ad6:	9f 8f       	std	Y+31, r25	; 0x1f
    2ad8:	8e 8f       	std	Y+30, r24	; 0x1e
    2ada:	8e 8d       	ldd	r24, Y+30	; 0x1e
    2adc:	9f 8d       	ldd	r25, Y+31	; 0x1f
    2ade:	0e 94 8e 31 	call	0x631c	; 0x631c <_ZN3PTP4PollEv>
    2ae2:	8e 8d       	ldd	r24, Y+30	; 0x1e
    2ae4:	9f 8d       	ldd	r25, Y+31	; 0x1f
    2ae6:	de d4       	rcall	.+2492   	; 0x34a4 <_ZNK10NikType00311isConnectedEv>
    2ae8:	88 23       	and	r24, r24
    2aea:	09 f4       	brne	.+2      	; 0x2aee <_ZN10NikType0034PollEv+0x2c>
    2aec:	48 c0       	rjmp	.+144    	; 0x2b7e <_ZN10NikType0034PollEv+0xbc>
    2aee:	0e 94 96 2c 	call	0x592c	; 0x592c <millis>
    2af2:	dc 01       	movw	r26, r24
    2af4:	cb 01       	movw	r24, r22
    2af6:	89 83       	std	Y+1, r24	; 0x01
    2af8:	9a 83       	std	Y+2, r25	; 0x02
    2afa:	ab 83       	std	Y+3, r26	; 0x03
    2afc:	bc 83       	std	Y+4, r27	; 0x04
    2afe:	8e 8d       	ldd	r24, Y+30	; 0x1e
    2b00:	9f 8d       	ldd	r25, Y+31	; 0x1f
    2b02:	fc 01       	movw	r30, r24
    2b04:	20 a1       	ldd	r18, Z+32	; 0x20
    2b06:	31 a1       	ldd	r19, Z+33	; 0x21
    2b08:	42 a1       	ldd	r20, Z+34	; 0x22
    2b0a:	53 a1       	ldd	r21, Z+35	; 0x23
    2b0c:	89 81       	ldd	r24, Y+1	; 0x01
    2b0e:	9a 81       	ldd	r25, Y+2	; 0x02
    2b10:	ab 81       	ldd	r26, Y+3	; 0x03
    2b12:	bc 81       	ldd	r27, Y+4	; 0x04
    2b14:	82 17       	cp	r24, r18
    2b16:	93 07       	cpc	r25, r19
    2b18:	a4 07       	cpc	r26, r20
    2b1a:	b5 07       	cpc	r27, r21
    2b1c:	80 f1       	brcs	.+96     	; 0x2b7e <_ZN10NikType0034PollEv+0xbc>
    2b1e:	8e 8d       	ldd	r24, Y+30	; 0x1e
    2b20:	9f 8d       	ldd	r25, Y+31	; 0x1f
    2b22:	9c 01       	movw	r18, r24
    2b24:	26 5e       	subi	r18, 0xE6	; 230
    2b26:	3f 4f       	sbci	r19, 0xFF	; 255
    2b28:	ce 01       	movw	r24, r28
    2b2a:	05 96       	adiw	r24, 0x05	; 5
    2b2c:	b9 01       	movw	r22, r18
    2b2e:	d9 dd       	rcall	.-1102   	; 0x26e2 <_ZN13NKEventParserC1EP15NKEventHandlers>
    2b30:	8e 8d       	ldd	r24, Y+30	; 0x1e
    2b32:	9f 8d       	ldd	r25, Y+31	; 0x1f
    2b34:	fc 01       	movw	r30, r24
    2b36:	80 81       	ld	r24, Z
    2b38:	91 81       	ldd	r25, Z+1	; 0x01
    2b3a:	40 96       	adiw	r24, 0x10	; 16
    2b3c:	fc 01       	movw	r30, r24
    2b3e:	20 81       	ld	r18, Z
    2b40:	31 81       	ldd	r19, Z+1	; 0x01
    2b42:	ae 01       	movw	r20, r28
    2b44:	4b 5f       	subi	r20, 0xFB	; 251
    2b46:	5f 4f       	sbci	r21, 0xFF	; 255
    2b48:	8e 8d       	ldd	r24, Y+30	; 0x1e
    2b4a:	9f 8d       	ldd	r25, Y+31	; 0x1f
    2b4c:	ba 01       	movw	r22, r20
    2b4e:	f9 01       	movw	r30, r18
    2b50:	09 95       	icall
    2b52:	8e 8d       	ldd	r24, Y+30	; 0x1e
    2b54:	9f 8d       	ldd	r25, Y+31	; 0x1f
    2b56:	fc 01       	movw	r30, r24
    2b58:	24 8d       	ldd	r18, Z+28	; 0x1c
    2b5a:	35 8d       	ldd	r19, Z+29	; 0x1d
    2b5c:	46 8d       	ldd	r20, Z+30	; 0x1e
    2b5e:	57 8d       	ldd	r21, Z+31	; 0x1f
    2b60:	89 81       	ldd	r24, Y+1	; 0x01
    2b62:	9a 81       	ldd	r25, Y+2	; 0x02
    2b64:	ab 81       	ldd	r26, Y+3	; 0x03
    2b66:	bc 81       	ldd	r27, Y+4	; 0x04
    2b68:	82 0f       	add	r24, r18
    2b6a:	93 1f       	adc	r25, r19
    2b6c:	a4 1f       	adc	r26, r20
    2b6e:	b5 1f       	adc	r27, r21
    2b70:	2e 8d       	ldd	r18, Y+30	; 0x1e
    2b72:	3f 8d       	ldd	r19, Y+31	; 0x1f
    2b74:	f9 01       	movw	r30, r18
    2b76:	80 a3       	std	Z+32, r24	; 0x20
    2b78:	91 a3       	std	Z+33, r25	; 0x21
    2b7a:	a2 a3       	std	Z+34, r26	; 0x22
    2b7c:	b3 a3       	std	Z+35, r27	; 0x23
    2b7e:	80 e0       	ldi	r24, 0x00	; 0
    2b80:	6f 96       	adiw	r28, 0x1f	; 31
    2b82:	0f b6       	in	r0, 0x3f	; 63
    2b84:	f8 94       	cli
    2b86:	de bf       	out	0x3e, r29	; 62
    2b88:	0f be       	out	0x3f, r0	; 63
    2b8a:	cd bf       	out	0x3d, r28	; 61
    2b8c:	df 91       	pop	r29
    2b8e:	cf 91       	pop	r28
    2b90:	08 95       	ret

00002b92 <_ZN10NikType00310EventCheckEP13PTPReadParser>:
    2b92:	0f 93       	push	r16
    2b94:	1f 93       	push	r17
    2b96:	cf 93       	push	r28
    2b98:	df 93       	push	r29
    2b9a:	00 d0       	rcall	.+0      	; 0x2b9c <_ZN10NikType00310EventCheckEP13PTPReadParser+0xa>
    2b9c:	00 d0       	rcall	.+0      	; 0x2b9e <_ZN10NikType00310EventCheckEP13PTPReadParser+0xc>
    2b9e:	00 d0       	rcall	.+0      	; 0x2ba0 <_ZN10NikType00310EventCheckEP13PTPReadParser+0xe>
    2ba0:	cd b7       	in	r28, 0x3d	; 61
    2ba2:	de b7       	in	r29, 0x3e	; 62
    2ba4:	9c 83       	std	Y+4, r25	; 0x04
    2ba6:	8b 83       	std	Y+3, r24	; 0x03
    2ba8:	7e 83       	std	Y+6, r23	; 0x06
    2baa:	6d 83       	std	Y+5, r22	; 0x05
    2bac:	89 81       	ldd	r24, Y+1	; 0x01
    2bae:	88 7f       	andi	r24, 0xF8	; 248
    2bb0:	89 83       	std	Y+1, r24	; 0x01
    2bb2:	89 81       	ldd	r24, Y+1	; 0x01
    2bb4:	87 7c       	andi	r24, 0xC7	; 199
    2bb6:	89 83       	std	Y+1, r24	; 0x01
    2bb8:	89 81       	ldd	r24, Y+1	; 0x01
    2bba:	8f 7b       	andi	r24, 0xBF	; 191
    2bbc:	89 83       	std	Y+1, r24	; 0x01
    2bbe:	89 81       	ldd	r24, Y+1	; 0x01
    2bc0:	80 68       	ori	r24, 0x80	; 128
    2bc2:	89 83       	std	Y+1, r24	; 0x01
    2bc4:	8a 81       	ldd	r24, Y+2	; 0x02
    2bc6:	8c 7f       	andi	r24, 0xFC	; 252
    2bc8:	81 60       	ori	r24, 0x01	; 1
    2bca:	8a 83       	std	Y+2, r24	; 0x02
    2bcc:	8a 81       	ldd	r24, Y+2	; 0x02
    2bce:	83 70       	andi	r24, 0x03	; 3
    2bd0:	8a 83       	std	Y+2, r24	; 0x02
    2bd2:	8b 81       	ldd	r24, Y+3	; 0x03
    2bd4:	9c 81       	ldd	r25, Y+4	; 0x04
    2bd6:	2d 81       	ldd	r18, Y+5	; 0x05
    2bd8:	3e 81       	ldd	r19, Y+6	; 0x06
    2bda:	89 01       	movw	r16, r18
    2bdc:	20 e0       	ldi	r18, 0x00	; 0
    2bde:	30 e0       	ldi	r19, 0x00	; 0
    2be0:	ae 01       	movw	r20, r28
    2be2:	4f 5f       	subi	r20, 0xFF	; 255
    2be4:	5f 4f       	sbci	r21, 0xFF	; 255
    2be6:	67 ec       	ldi	r22, 0xC7	; 199
    2be8:	70 e9       	ldi	r23, 0x90	; 144
    2bea:	0e 94 94 31 	call	0x6328	; 0x6328 <_ZN3PTP11TransactionEjPNS_9OperFlagsEPmPv>
    2bee:	26 96       	adiw	r28, 0x06	; 6
    2bf0:	0f b6       	in	r0, 0x3f	; 63
    2bf2:	f8 94       	cli
    2bf4:	de bf       	out	0x3e, r29	; 62
    2bf6:	0f be       	out	0x3f, r0	; 63
    2bf8:	cd bf       	out	0x3d, r28	; 61
    2bfa:	df 91       	pop	r29
    2bfc:	cf 91       	pop	r28
    2bfe:	1f 91       	pop	r17
    2c00:	0f 91       	pop	r16
    2c02:	08 95       	ret

00002c04 <_ZN10NikType0037OnEventEPK7NKEvent>:
    2c04:	cf 93       	push	r28
    2c06:	df 93       	push	r29
    2c08:	00 d0       	rcall	.+0      	; 0x2c0a <_ZN10NikType0037OnEventEPK7NKEvent+0x6>
    2c0a:	00 d0       	rcall	.+0      	; 0x2c0c <_ZN10NikType0037OnEventEPK7NKEvent+0x8>
    2c0c:	cd b7       	in	r28, 0x3d	; 61
    2c0e:	de b7       	in	r29, 0x3e	; 62
    2c10:	9a 83       	std	Y+2, r25	; 0x02
    2c12:	89 83       	std	Y+1, r24	; 0x01
    2c14:	7c 83       	std	Y+4, r23	; 0x04
    2c16:	6b 83       	std	Y+3, r22	; 0x03
    2c18:	8b 81       	ldd	r24, Y+3	; 0x03
    2c1a:	9c 81       	ldd	r25, Y+4	; 0x04
    2c1c:	00 97       	sbiw	r24, 0x00	; 0
    2c1e:	09 f4       	brne	.+2      	; 0x2c22 <_ZN10NikType0037OnEventEPK7NKEvent+0x1e>
    2c20:	22 c0       	rjmp	.+68     	; 0x2c66 <_ZN10NikType0037OnEventEPK7NKEvent+0x62>
    2c22:	8b 81       	ldd	r24, Y+3	; 0x03
    2c24:	9c 81       	ldd	r25, Y+4	; 0x04
    2c26:	fc 01       	movw	r30, r24
    2c28:	80 81       	ld	r24, Z
    2c2a:	91 81       	ldd	r25, Z+1	; 0x01
    2c2c:	8d 30       	cpi	r24, 0x0D	; 13
    2c2e:	f0 e4       	ldi	r31, 0x40	; 64
    2c30:	9f 07       	cpc	r25, r31
    2c32:	c9 f4       	brne	.+50     	; 0x2c66 <_ZN10NikType0037OnEventEPK7NKEvent+0x62>
    2c34:	27 e7       	ldi	r18, 0x77	; 119
    2c36:	32 e0       	ldi	r19, 0x02	; 2
    2c38:	80 91 04 01 	lds	r24, 0x0104
    2c3c:	90 91 05 01 	lds	r25, 0x0105
    2c40:	b9 01       	movw	r22, r18
    2c42:	a5 d6       	rcall	.+3402   	; 0x398e <_ZN20RunFocusStackHandler12reportStatusEPK19__FlashStringHelper>
    2c44:	89 81       	ldd	r24, Y+1	; 0x01
    2c46:	9a 81       	ldd	r25, Y+2	; 0x02
    2c48:	fc 01       	movw	r30, r24
    2c4a:	24 a1       	ldd	r18, Z+36	; 0x24
    2c4c:	2b 7f       	andi	r18, 0xFB	; 251
    2c4e:	fc 01       	movw	r30, r24
    2c50:	24 a3       	std	Z+36, r18	; 0x24
    2c52:	89 81       	ldd	r24, Y+1	; 0x01
    2c54:	9a 81       	ldd	r25, Y+2	; 0x02
    2c56:	fc 01       	movw	r30, r24
    2c58:	85 a1       	ldd	r24, Z+37	; 0x25
    2c5a:	96 a1       	ldd	r25, Z+38	; 0x26
    2c5c:	00 97       	sbiw	r24, 0x00	; 0
    2c5e:	19 f4       	brne	.+6      	; 0x2c66 <_ZN10NikType0037OnEventEPK7NKEvent+0x62>
    2c60:	89 81       	ldd	r24, Y+1	; 0x01
    2c62:	9a 81       	ldd	r25, Y+2	; 0x02
    2c64:	ea d2       	rcall	.+1492   	; 0x323a <_ZN10NikType00319focusStackNextFrameEv>
    2c66:	0f 90       	pop	r0
    2c68:	0f 90       	pop	r0
    2c6a:	0f 90       	pop	r0
    2c6c:	0f 90       	pop	r0
    2c6e:	df 91       	pop	r29
    2c70:	cf 91       	pop	r28
    2c72:	08 95       	ret

00002c74 <_ZN10NikType00312waitForReadyEj>:
    2c74:	cf 93       	push	r28
    2c76:	df 93       	push	r29
    2c78:	cd b7       	in	r28, 0x3d	; 61
    2c7a:	de b7       	in	r29, 0x3e	; 62
    2c7c:	2a 97       	sbiw	r28, 0x0a	; 10
    2c7e:	0f b6       	in	r0, 0x3f	; 63
    2c80:	f8 94       	cli
    2c82:	de bf       	out	0x3e, r29	; 62
    2c84:	0f be       	out	0x3f, r0	; 63
    2c86:	cd bf       	out	0x3d, r28	; 61
    2c88:	98 87       	std	Y+8, r25	; 0x08
    2c8a:	8f 83       	std	Y+7, r24	; 0x07
    2c8c:	7a 87       	std	Y+10, r23	; 0x0a
    2c8e:	69 87       	std	Y+9, r22	; 0x09
    2c90:	19 82       	std	Y+1, r1	; 0x01
    2c92:	1a 82       	std	Y+2, r1	; 0x02
    2c94:	1b 82       	std	Y+3, r1	; 0x03
    2c96:	1c 82       	std	Y+4, r1	; 0x04
    2c98:	8f 81       	ldd	r24, Y+7	; 0x07
    2c9a:	98 85       	ldd	r25, Y+8	; 0x08
    2c9c:	20 e0       	ldi	r18, 0x00	; 0
    2c9e:	30 e0       	ldi	r19, 0x00	; 0
    2ca0:	40 e0       	ldi	r20, 0x00	; 0
    2ca2:	68 ec       	ldi	r22, 0xC8	; 200
    2ca4:	70 e9       	ldi	r23, 0x90	; 144
    2ca6:	0e 94 d0 34 	call	0x69a0	; 0x69a0 <_ZN3PTP9OperationEjhPm>
    2caa:	9e 83       	std	Y+6, r25	; 0x06
    2cac:	8d 83       	std	Y+5, r24	; 0x05
    2cae:	8f 81       	ldd	r24, Y+7	; 0x07
    2cb0:	98 85       	ldd	r25, Y+8	; 0x08
    2cb2:	fc 01       	movw	r30, r24
    2cb4:	85 a5       	ldd	r24, Z+45	; 0x2d
    2cb6:	96 a5       	ldd	r25, Z+46	; 0x2e
    2cb8:	cc 01       	movw	r24, r24
    2cba:	a0 e0       	ldi	r26, 0x00	; 0
    2cbc:	b0 e0       	ldi	r27, 0x00	; 0
    2cbe:	bc 01       	movw	r22, r24
    2cc0:	cd 01       	movw	r24, r26
    2cc2:	0e 94 d2 2c 	call	0x59a4	; 0x59a4 <delay>
    2cc6:	8f 81       	ldd	r24, Y+7	; 0x07
    2cc8:	98 85       	ldd	r25, Y+8	; 0x08
    2cca:	20 e0       	ldi	r18, 0x00	; 0
    2ccc:	30 e0       	ldi	r19, 0x00	; 0
    2cce:	40 e0       	ldi	r20, 0x00	; 0
    2cd0:	68 ec       	ldi	r22, 0xC8	; 200
    2cd2:	70 e9       	ldi	r23, 0x90	; 144
    2cd4:	0e 94 d0 34 	call	0x69a0	; 0x69a0 <_ZN3PTP9OperationEjhPm>
    2cd8:	9e 83       	std	Y+6, r25	; 0x06
    2cda:	8d 83       	std	Y+5, r24	; 0x05
    2cdc:	8f 81       	ldd	r24, Y+7	; 0x07
    2cde:	98 85       	ldd	r25, Y+8	; 0x08
    2ce0:	fc 01       	movw	r30, r24
    2ce2:	85 a5       	ldd	r24, Z+45	; 0x2d
    2ce4:	96 a5       	ldd	r25, Z+46	; 0x2e
    2ce6:	cc 01       	movw	r24, r24
    2ce8:	a0 e0       	ldi	r26, 0x00	; 0
    2cea:	b0 e0       	ldi	r27, 0x00	; 0
    2cec:	bc 01       	movw	r22, r24
    2cee:	cd 01       	movw	r24, r26
    2cf0:	0e 94 d2 2c 	call	0x59a4	; 0x59a4 <delay>
    2cf4:	17 c0       	rjmp	.+46     	; 0x2d24 <_ZN10NikType00312waitForReadyEj+0xb0>
    2cf6:	8f 81       	ldd	r24, Y+7	; 0x07
    2cf8:	98 85       	ldd	r25, Y+8	; 0x08
    2cfa:	20 e0       	ldi	r18, 0x00	; 0
    2cfc:	30 e0       	ldi	r19, 0x00	; 0
    2cfe:	40 e0       	ldi	r20, 0x00	; 0
    2d00:	68 ec       	ldi	r22, 0xC8	; 200
    2d02:	70 e9       	ldi	r23, 0x90	; 144
    2d04:	0e 94 d0 34 	call	0x69a0	; 0x69a0 <_ZN3PTP9OperationEjhPm>
    2d08:	9e 83       	std	Y+6, r25	; 0x06
    2d0a:	8d 83       	std	Y+5, r24	; 0x05
    2d0c:	8f 81       	ldd	r24, Y+7	; 0x07
    2d0e:	98 85       	ldd	r25, Y+8	; 0x08
    2d10:	fc 01       	movw	r30, r24
    2d12:	85 a5       	ldd	r24, Z+45	; 0x2d
    2d14:	96 a5       	ldd	r25, Z+46	; 0x2e
    2d16:	cc 01       	movw	r24, r24
    2d18:	a0 e0       	ldi	r26, 0x00	; 0
    2d1a:	b0 e0       	ldi	r27, 0x00	; 0
    2d1c:	bc 01       	movw	r22, r24
    2d1e:	cd 01       	movw	r24, r26
    2d20:	0e 94 d2 2c 	call	0x59a4	; 0x59a4 <delay>
    2d24:	8d 81       	ldd	r24, Y+5	; 0x05
    2d26:	9e 81       	ldd	r25, Y+6	; 0x06
    2d28:	89 31       	cpi	r24, 0x19	; 25
    2d2a:	f0 e2       	ldi	r31, 0x20	; 32
    2d2c:	9f 07       	cpc	r25, r31
    2d2e:	d9 f4       	brne	.+54     	; 0x2d66 <_ZN10NikType00312waitForReadyEj+0xf2>
    2d30:	89 81       	ldd	r24, Y+1	; 0x01
    2d32:	9a 81       	ldd	r25, Y+2	; 0x02
    2d34:	ab 81       	ldd	r26, Y+3	; 0x03
    2d36:	bc 81       	ldd	r27, Y+4	; 0x04
    2d38:	01 96       	adiw	r24, 0x01	; 1
    2d3a:	a1 1d       	adc	r26, r1
    2d3c:	b1 1d       	adc	r27, r1
    2d3e:	89 83       	std	Y+1, r24	; 0x01
    2d40:	9a 83       	std	Y+2, r25	; 0x02
    2d42:	ab 83       	std	Y+3, r26	; 0x03
    2d44:	bc 83       	std	Y+4, r27	; 0x04
    2d46:	89 85       	ldd	r24, Y+9	; 0x09
    2d48:	9a 85       	ldd	r25, Y+10	; 0x0a
    2d4a:	cc 01       	movw	r24, r24
    2d4c:	a0 e0       	ldi	r26, 0x00	; 0
    2d4e:	b0 e0       	ldi	r27, 0x00	; 0
    2d50:	29 81       	ldd	r18, Y+1	; 0x01
    2d52:	3a 81       	ldd	r19, Y+2	; 0x02
    2d54:	4b 81       	ldd	r20, Y+3	; 0x03
    2d56:	5c 81       	ldd	r21, Y+4	; 0x04
    2d58:	28 17       	cp	r18, r24
    2d5a:	39 07       	cpc	r19, r25
    2d5c:	4a 07       	cpc	r20, r26
    2d5e:	5b 07       	cpc	r21, r27
    2d60:	10 f4       	brcc	.+4      	; 0x2d66 <_ZN10NikType00312waitForReadyEj+0xf2>
    2d62:	81 e0       	ldi	r24, 0x01	; 1
    2d64:	01 c0       	rjmp	.+2      	; 0x2d68 <_ZN10NikType00312waitForReadyEj+0xf4>
    2d66:	80 e0       	ldi	r24, 0x00	; 0
    2d68:	88 23       	and	r24, r24
    2d6a:	29 f6       	brne	.-118    	; 0x2cf6 <_ZN10NikType00312waitForReadyEj+0x82>
    2d6c:	8d 81       	ldd	r24, Y+5	; 0x05
    2d6e:	9e 81       	ldd	r25, Y+6	; 0x06
    2d70:	2a 96       	adiw	r28, 0x0a	; 10
    2d72:	0f b6       	in	r0, 0x3f	; 63
    2d74:	f8 94       	cli
    2d76:	de bf       	out	0x3e, r29	; 62
    2d78:	0f be       	out	0x3f, r0	; 63
    2d7a:	cd bf       	out	0x3d, r28	; 61
    2d7c:	df 91       	pop	r29
    2d7e:	cf 91       	pop	r28
    2d80:	08 95       	ret

00002d82 <_ZN10NikType00314enableLiveViewEb>:
    2d82:	cf 93       	push	r28
    2d84:	df 93       	push	r29
    2d86:	00 d0       	rcall	.+0      	; 0x2d88 <_ZN10NikType00314enableLiveViewEb+0x6>
    2d88:	00 d0       	rcall	.+0      	; 0x2d8a <_ZN10NikType00314enableLiveViewEb+0x8>
    2d8a:	1f 92       	push	r1
    2d8c:	cd b7       	in	r28, 0x3d	; 61
    2d8e:	de b7       	in	r29, 0x3e	; 62
    2d90:	9c 83       	std	Y+4, r25	; 0x04
    2d92:	8b 83       	std	Y+3, r24	; 0x03
    2d94:	6d 83       	std	Y+5, r22	; 0x05
    2d96:	82 e0       	ldi	r24, 0x02	; 2
    2d98:	90 e2       	ldi	r25, 0x20	; 32
    2d9a:	9a 83       	std	Y+2, r25	; 0x02
    2d9c:	89 83       	std	Y+1, r24	; 0x01
    2d9e:	9d 81       	ldd	r25, Y+5	; 0x05
    2da0:	81 e0       	ldi	r24, 0x01	; 1
    2da2:	89 27       	eor	r24, r25
    2da4:	88 23       	and	r24, r24
    2da6:	61 f0       	breq	.+24     	; 0x2dc0 <_ZN10NikType00314enableLiveViewEb+0x3e>
    2da8:	8b 81       	ldd	r24, Y+3	; 0x03
    2daa:	9c 81       	ldd	r25, Y+4	; 0x04
    2dac:	20 e0       	ldi	r18, 0x00	; 0
    2dae:	30 e0       	ldi	r19, 0x00	; 0
    2db0:	40 e0       	ldi	r20, 0x00	; 0
    2db2:	62 e0       	ldi	r22, 0x02	; 2
    2db4:	72 e9       	ldi	r23, 0x92	; 146
    2db6:	0e 94 d0 34 	call	0x69a0	; 0x69a0 <_ZN3PTP9OperationEjhPm>
    2dba:	9a 83       	std	Y+2, r25	; 0x02
    2dbc:	89 83       	std	Y+1, r24	; 0x01
    2dbe:	0b c0       	rjmp	.+22     	; 0x2dd6 <_ZN10NikType00314enableLiveViewEb+0x54>
    2dc0:	8b 81       	ldd	r24, Y+3	; 0x03
    2dc2:	9c 81       	ldd	r25, Y+4	; 0x04
    2dc4:	20 e0       	ldi	r18, 0x00	; 0
    2dc6:	30 e0       	ldi	r19, 0x00	; 0
    2dc8:	40 e0       	ldi	r20, 0x00	; 0
    2dca:	61 e0       	ldi	r22, 0x01	; 1
    2dcc:	72 e9       	ldi	r23, 0x92	; 146
    2dce:	0e 94 d0 34 	call	0x69a0	; 0x69a0 <_ZN3PTP9OperationEjhPm>
    2dd2:	9a 83       	std	Y+2, r25	; 0x02
    2dd4:	89 83       	std	Y+1, r24	; 0x01
    2dd6:	89 81       	ldd	r24, Y+1	; 0x01
    2dd8:	9a 81       	ldd	r25, Y+2	; 0x02
    2dda:	81 30       	cpi	r24, 0x01	; 1
    2ddc:	20 e2       	ldi	r18, 0x20	; 32
    2dde:	92 07       	cpc	r25, r18
    2de0:	69 f4       	brne	.+26     	; 0x2dfc <_ZN10NikType00314enableLiveViewEb+0x7a>
    2de2:	8d 81       	ldd	r24, Y+5	; 0x05
    2de4:	28 2f       	mov	r18, r24
    2de6:	21 70       	andi	r18, 0x01	; 1
    2de8:	8b 81       	ldd	r24, Y+3	; 0x03
    2dea:	9c 81       	ldd	r25, Y+4	; 0x04
    2dec:	21 70       	andi	r18, 0x01	; 1
    2dee:	22 0f       	add	r18, r18
    2df0:	fc 01       	movw	r30, r24
    2df2:	34 a1       	ldd	r19, Z+36	; 0x24
    2df4:	3d 7f       	andi	r19, 0xFD	; 253
    2df6:	23 2b       	or	r18, r19
    2df8:	fc 01       	movw	r30, r24
    2dfa:	24 a3       	std	Z+36, r18	; 0x24
    2dfc:	89 81       	ldd	r24, Y+1	; 0x01
    2dfe:	9a 81       	ldd	r25, Y+2	; 0x02
    2e00:	0f 90       	pop	r0
    2e02:	0f 90       	pop	r0
    2e04:	0f 90       	pop	r0
    2e06:	0f 90       	pop	r0
    2e08:	0f 90       	pop	r0
    2e0a:	df 91       	pop	r29
    2e0c:	cf 91       	pop	r28
    2e0e:	08 95       	ret

00002e10 <_ZN10NikType00313captureToCardEv>:
    2e10:	cf 93       	push	r28
    2e12:	df 93       	push	r29
    2e14:	cd b7       	in	r28, 0x3d	; 61
    2e16:	de b7       	in	r29, 0x3e	; 62
    2e18:	2c 97       	sbiw	r28, 0x0c	; 12
    2e1a:	0f b6       	in	r0, 0x3f	; 63
    2e1c:	f8 94       	cli
    2e1e:	de bf       	out	0x3e, r29	; 62
    2e20:	0f be       	out	0x3f, r0	; 63
    2e22:	cd bf       	out	0x3d, r28	; 61
    2e24:	9c 87       	std	Y+12, r25	; 0x0c
    2e26:	8b 87       	std	Y+11, r24	; 0x0b
    2e28:	82 e0       	ldi	r24, 0x02	; 2
    2e2a:	90 e2       	ldi	r25, 0x20	; 32
    2e2c:	9a 83       	std	Y+2, r25	; 0x02
    2e2e:	89 83       	std	Y+1, r24	; 0x01
    2e30:	8b 85       	ldd	r24, Y+11	; 0x0b
    2e32:	9c 85       	ldd	r25, Y+12	; 0x0c
    2e34:	fc 01       	movw	r30, r24
    2e36:	84 a1       	ldd	r24, Z+36	; 0x24
    2e38:	84 70       	andi	r24, 0x04	; 4
    2e3a:	88 23       	and	r24, r24
    2e3c:	09 f0       	breq	.+2      	; 0x2e40 <_ZN10NikType00313captureToCardEv+0x30>
    2e3e:	57 c0       	rjmp	.+174    	; 0x2eee <_ZN10NikType00313captureToCardEv+0xde>
    2e40:	80 91 04 01 	lds	r24, 0x0104
    2e44:	90 91 05 01 	lds	r25, 0x0105
    2e48:	60 e0       	ldi	r22, 0x00	; 0
    2e4a:	09 d6       	rcall	.+3090   	; 0x3a5e <_ZN20RunFocusStackHandler11reportDelayEh>
    2e4c:	2e e7       	ldi	r18, 0x7E	; 126
    2e4e:	32 e0       	ldi	r19, 0x02	; 2
    2e50:	80 91 04 01 	lds	r24, 0x0104
    2e54:	90 91 05 01 	lds	r25, 0x0105
    2e58:	b9 01       	movw	r22, r18
    2e5a:	99 d5       	rcall	.+2866   	; 0x398e <_ZN20RunFocusStackHandler12reportStatusEPK19__FlashStringHelper>
    2e5c:	8f ef       	ldi	r24, 0xFF	; 255
    2e5e:	9f ef       	ldi	r25, 0xFF	; 255
    2e60:	dc 01       	movw	r26, r24
    2e62:	8b 83       	std	Y+3, r24	; 0x03
    2e64:	9c 83       	std	Y+4, r25	; 0x04
    2e66:	ad 83       	std	Y+5, r26	; 0x05
    2e68:	be 83       	std	Y+6, r27	; 0x06
    2e6a:	1f 82       	std	Y+7, r1	; 0x07
    2e6c:	18 86       	std	Y+8, r1	; 0x08
    2e6e:	19 86       	std	Y+9, r1	; 0x09
    2e70:	1a 86       	std	Y+10, r1	; 0x0a
    2e72:	8b 85       	ldd	r24, Y+11	; 0x0b
    2e74:	9c 85       	ldd	r25, Y+12	; 0x0c
    2e76:	9e 01       	movw	r18, r28
    2e78:	2d 5f       	subi	r18, 0xFD	; 253
    2e7a:	3f 4f       	sbci	r19, 0xFF	; 255
    2e7c:	42 e0       	ldi	r20, 0x02	; 2
    2e7e:	67 e0       	ldi	r22, 0x07	; 7
    2e80:	72 e9       	ldi	r23, 0x92	; 146
    2e82:	0e 94 d0 34 	call	0x69a0	; 0x69a0 <_ZN3PTP9OperationEjhPm>
    2e86:	9a 83       	std	Y+2, r25	; 0x02
    2e88:	89 83       	std	Y+1, r24	; 0x01
    2e8a:	21 e0       	ldi	r18, 0x01	; 1
    2e8c:	89 81       	ldd	r24, Y+1	; 0x01
    2e8e:	9a 81       	ldd	r25, Y+2	; 0x02
    2e90:	81 30       	cpi	r24, 0x01	; 1
    2e92:	f0 e2       	ldi	r31, 0x20	; 32
    2e94:	9f 07       	cpc	r25, r31
    2e96:	09 f0       	breq	.+2      	; 0x2e9a <_ZN10NikType00313captureToCardEv+0x8a>
    2e98:	20 e0       	ldi	r18, 0x00	; 0
    2e9a:	22 23       	and	r18, r18
    2e9c:	41 f1       	breq	.+80     	; 0x2eee <_ZN10NikType00313captureToCardEv+0xde>
    2e9e:	8b 85       	ldd	r24, Y+11	; 0x0b
    2ea0:	9c 85       	ldd	r25, Y+12	; 0x0c
    2ea2:	fc 01       	movw	r30, r24
    2ea4:	85 a1       	ldd	r24, Z+37	; 0x25
    2ea6:	96 a1       	ldd	r25, Z+38	; 0x26
    2ea8:	21 e0       	ldi	r18, 0x01	; 1
    2eaa:	82 30       	cpi	r24, 0x02	; 2
    2eac:	91 05       	cpc	r25, r1
    2eae:	08 f0       	brcs	.+2      	; 0x2eb2 <_ZN10NikType00313captureToCardEv+0xa2>
    2eb0:	20 e0       	ldi	r18, 0x00	; 0
    2eb2:	8b 85       	ldd	r24, Y+11	; 0x0b
    2eb4:	9c 85       	ldd	r25, Y+12	; 0x0c
    2eb6:	21 70       	andi	r18, 0x01	; 1
    2eb8:	22 95       	swap	r18
    2eba:	22 0f       	add	r18, r18
    2ebc:	20 7e       	andi	r18, 0xE0	; 224
    2ebe:	fc 01       	movw	r30, r24
    2ec0:	34 a1       	ldd	r19, Z+36	; 0x24
    2ec2:	3f 7d       	andi	r19, 0xDF	; 223
    2ec4:	23 2b       	or	r18, r19
    2ec6:	fc 01       	movw	r30, r24
    2ec8:	24 a3       	std	Z+36, r18	; 0x24
    2eca:	8b 85       	ldd	r24, Y+11	; 0x0b
    2ecc:	9c 85       	ldd	r25, Y+12	; 0x0c
    2ece:	fc 01       	movw	r30, r24
    2ed0:	24 a1       	ldd	r18, Z+36	; 0x24
    2ed2:	24 60       	ori	r18, 0x04	; 4
    2ed4:	fc 01       	movw	r30, r24
    2ed6:	24 a3       	std	Z+36, r18	; 0x24
    2ed8:	0e 94 96 2c 	call	0x592c	; 0x592c <millis>
    2edc:	dc 01       	movw	r26, r24
    2ede:	cb 01       	movw	r24, r22
    2ee0:	2b 85       	ldd	r18, Y+11	; 0x0b
    2ee2:	3c 85       	ldd	r19, Y+12	; 0x0c
    2ee4:	f9 01       	movw	r30, r18
    2ee6:	87 a7       	std	Z+47, r24	; 0x2f
    2ee8:	90 ab       	std	Z+48, r25	; 0x30
    2eea:	a1 ab       	std	Z+49, r26	; 0x31
    2eec:	b2 ab       	std	Z+50, r27	; 0x32
    2eee:	89 81       	ldd	r24, Y+1	; 0x01
    2ef0:	9a 81       	ldd	r25, Y+2	; 0x02
    2ef2:	2c 96       	adiw	r28, 0x0c	; 12
    2ef4:	0f b6       	in	r0, 0x3f	; 63
    2ef6:	f8 94       	cli
    2ef8:	de bf       	out	0x3e, r29	; 62
    2efa:	0f be       	out	0x3f, r0	; 63
    2efc:	cd bf       	out	0x3d, r28	; 61
    2efe:	df 91       	pop	r29
    2f00:	cf 91       	pop	r28
    2f02:	08 95       	ret

00002f04 <_ZN10NikType0039moveFocusEmm>:
    2f04:	0f 93       	push	r16
    2f06:	1f 93       	push	r17
    2f08:	cf 93       	push	r28
    2f0a:	df 93       	push	r29
    2f0c:	cd b7       	in	r28, 0x3d	; 61
    2f0e:	de b7       	in	r29, 0x3e	; 62
    2f10:	64 97       	sbiw	r28, 0x14	; 20
    2f12:	0f b6       	in	r0, 0x3f	; 63
    2f14:	f8 94       	cli
    2f16:	de bf       	out	0x3e, r29	; 62
    2f18:	0f be       	out	0x3f, r0	; 63
    2f1a:	cd bf       	out	0x3d, r28	; 61
    2f1c:	9c 87       	std	Y+12, r25	; 0x0c
    2f1e:	8b 87       	std	Y+11, r24	; 0x0b
    2f20:	4d 87       	std	Y+13, r20	; 0x0d
    2f22:	5e 87       	std	Y+14, r21	; 0x0e
    2f24:	6f 87       	std	Y+15, r22	; 0x0f
    2f26:	78 8b       	std	Y+16, r23	; 0x10
    2f28:	09 8b       	std	Y+17, r16	; 0x11
    2f2a:	1a 8b       	std	Y+18, r17	; 0x12
    2f2c:	2b 8b       	std	Y+19, r18	; 0x13
    2f2e:	3c 8b       	std	Y+20, r19	; 0x14
    2f30:	89 81       	ldd	r24, Y+1	; 0x01
    2f32:	88 7f       	andi	r24, 0xF8	; 248
    2f34:	82 60       	ori	r24, 0x02	; 2
    2f36:	89 83       	std	Y+1, r24	; 0x01
    2f38:	89 81       	ldd	r24, Y+1	; 0x01
    2f3a:	87 7c       	andi	r24, 0xC7	; 199
    2f3c:	89 83       	std	Y+1, r24	; 0x01
    2f3e:	89 81       	ldd	r24, Y+1	; 0x01
    2f40:	8f 7b       	andi	r24, 0xBF	; 191
    2f42:	89 83       	std	Y+1, r24	; 0x01
    2f44:	89 81       	ldd	r24, Y+1	; 0x01
    2f46:	8f 77       	andi	r24, 0x7F	; 127
    2f48:	89 83       	std	Y+1, r24	; 0x01
    2f4a:	8a 81       	ldd	r24, Y+2	; 0x02
    2f4c:	8c 7f       	andi	r24, 0xFC	; 252
    2f4e:	8a 83       	std	Y+2, r24	; 0x02
    2f50:	8a 81       	ldd	r24, Y+2	; 0x02
    2f52:	83 70       	andi	r24, 0x03	; 3
    2f54:	8a 83       	std	Y+2, r24	; 0x02
    2f56:	8d 85       	ldd	r24, Y+13	; 0x0d
    2f58:	9e 85       	ldd	r25, Y+14	; 0x0e
    2f5a:	af 85       	ldd	r26, Y+15	; 0x0f
    2f5c:	b8 89       	ldd	r27, Y+16	; 0x10
    2f5e:	8b 83       	std	Y+3, r24	; 0x03
    2f60:	9c 83       	std	Y+4, r25	; 0x04
    2f62:	ad 83       	std	Y+5, r26	; 0x05
    2f64:	be 83       	std	Y+6, r27	; 0x06
    2f66:	89 89       	ldd	r24, Y+17	; 0x11
    2f68:	9a 89       	ldd	r25, Y+18	; 0x12
    2f6a:	ab 89       	ldd	r26, Y+19	; 0x13
    2f6c:	bc 89       	ldd	r27, Y+20	; 0x14
    2f6e:	8f 83       	std	Y+7, r24	; 0x07
    2f70:	98 87       	std	Y+8, r25	; 0x08
    2f72:	a9 87       	std	Y+9, r26	; 0x09
    2f74:	ba 87       	std	Y+10, r27	; 0x0a
    2f76:	8b 85       	ldd	r24, Y+11	; 0x0b
    2f78:	9c 85       	ldd	r25, Y+12	; 0x0c
    2f7a:	9e 01       	movw	r18, r28
    2f7c:	2d 5f       	subi	r18, 0xFD	; 253
    2f7e:	3f 4f       	sbci	r19, 0xFF	; 255
    2f80:	00 e0       	ldi	r16, 0x00	; 0
    2f82:	10 e0       	ldi	r17, 0x00	; 0
    2f84:	ae 01       	movw	r20, r28
    2f86:	4f 5f       	subi	r20, 0xFF	; 255
    2f88:	5f 4f       	sbci	r21, 0xFF	; 255
    2f8a:	64 e0       	ldi	r22, 0x04	; 4
    2f8c:	72 e9       	ldi	r23, 0x92	; 146
    2f8e:	0e 94 94 31 	call	0x6328	; 0x6328 <_ZN3PTP11TransactionEjPNS_9OperFlagsEPmPv>
    2f92:	64 96       	adiw	r28, 0x14	; 20
    2f94:	0f b6       	in	r0, 0x3f	; 63
    2f96:	f8 94       	cli
    2f98:	de bf       	out	0x3e, r29	; 62
    2f9a:	0f be       	out	0x3f, r0	; 63
    2f9c:	cd bf       	out	0x3d, r28	; 61
    2f9e:	df 91       	pop	r29
    2fa0:	cf 91       	pop	r28
    2fa2:	1f 91       	pop	r17
    2fa4:	0f 91       	pop	r16
    2fa6:	08 95       	ret

00002fa8 <_ZN10NikType00315startFocusStackEv>:
    2fa8:	cf 93       	push	r28
    2faa:	df 93       	push	r29
    2fac:	00 d0       	rcall	.+0      	; 0x2fae <_ZN10NikType00315startFocusStackEv+0x6>
    2fae:	00 d0       	rcall	.+0      	; 0x2fb0 <_ZN10NikType00315startFocusStackEv+0x8>
    2fb0:	cd b7       	in	r28, 0x3d	; 61
    2fb2:	de b7       	in	r29, 0x3e	; 62
    2fb4:	9c 83       	std	Y+4, r25	; 0x04
    2fb6:	8b 83       	std	Y+3, r24	; 0x03
    2fb8:	82 e0       	ldi	r24, 0x02	; 2
    2fba:	90 e2       	ldi	r25, 0x20	; 32
    2fbc:	9a 83       	std	Y+2, r25	; 0x02
    2fbe:	89 83       	std	Y+1, r24	; 0x01
    2fc0:	80 91 02 01 	lds	r24, 0x0102
    2fc4:	90 91 03 01 	lds	r25, 0x0103
    2fc8:	2e dc       	rcall	.-1956   	; 0x2826 <_ZNK12SetupHandler12getNumFramesEv>
    2fca:	dc 01       	movw	r26, r24
    2fcc:	cb 01       	movw	r24, r22
    2fce:	9c 01       	movw	r18, r24
    2fd0:	8b 81       	ldd	r24, Y+3	; 0x03
    2fd2:	9c 81       	ldd	r25, Y+4	; 0x04
    2fd4:	fc 01       	movw	r30, r24
    2fd6:	36 a3       	std	Z+38, r19	; 0x26
    2fd8:	25 a3       	std	Z+37, r18	; 0x25
    2fda:	8b 81       	ldd	r24, Y+3	; 0x03
    2fdc:	9c 81       	ldd	r25, Y+4	; 0x04
    2fde:	fc 01       	movw	r30, r24
    2fe0:	25 a1       	ldd	r18, Z+37	; 0x25
    2fe2:	36 a1       	ldd	r19, Z+38	; 0x26
    2fe4:	80 91 04 01 	lds	r24, 0x0104
    2fe8:	90 91 05 01 	lds	r25, 0x0105
    2fec:	b9 01       	movw	r22, r18
    2fee:	02 d5       	rcall	.+2564   	; 0x39f4 <_ZN20RunFocusStackHandler11reportFrameEj>
    2ff0:	8b 81       	ldd	r24, Y+3	; 0x03
    2ff2:	9c 81       	ldd	r25, Y+4	; 0x04
    2ff4:	fc 01       	movw	r30, r24
    2ff6:	17 a2       	std	Z+39, r1	; 0x27
    2ff8:	10 a6       	std	Z+40, r1	; 0x28
    2ffa:	11 a6       	std	Z+41, r1	; 0x29
    2ffc:	12 a6       	std	Z+42, r1	; 0x2a
    2ffe:	8b 81       	ldd	r24, Y+3	; 0x03
    3000:	9c 81       	ldd	r25, Y+4	; 0x04
    3002:	fc 01       	movw	r30, r24
    3004:	24 a1       	ldd	r18, Z+36	; 0x24
    3006:	28 60       	ori	r18, 0x08	; 8
    3008:	fc 01       	movw	r30, r24
    300a:	24 a3       	std	Z+36, r18	; 0x24
    300c:	8b 81       	ldd	r24, Y+3	; 0x03
    300e:	9c 81       	ldd	r25, Y+4	; 0x04
    3010:	fc 01       	movw	r30, r24
    3012:	24 a1       	ldd	r18, Z+36	; 0x24
    3014:	2f 7e       	andi	r18, 0xEF	; 239
    3016:	fc 01       	movw	r30, r24
    3018:	24 a3       	std	Z+36, r18	; 0x24
    301a:	8b 81       	ldd	r24, Y+3	; 0x03
    301c:	9c 81       	ldd	r25, Y+4	; 0x04
    301e:	f8 de       	rcall	.-528    	; 0x2e10 <_ZN10NikType00313captureToCardEv>
    3020:	9a 83       	std	Y+2, r25	; 0x02
    3022:	89 83       	std	Y+1, r24	; 0x01
    3024:	89 81       	ldd	r24, Y+1	; 0x01
    3026:	9a 81       	ldd	r25, Y+2	; 0x02
    3028:	81 30       	cpi	r24, 0x01	; 1
    302a:	f0 e2       	ldi	r31, 0x20	; 32
    302c:	9f 07       	cpc	r25, r31
    302e:	f1 f4       	brne	.+60     	; 0x306c <_ZN10NikType00315startFocusStackEv+0xc4>
    3030:	8b 81       	ldd	r24, Y+3	; 0x03
    3032:	9c 81       	ldd	r25, Y+4	; 0x04
    3034:	fc 01       	movw	r30, r24
    3036:	25 a1       	ldd	r18, Z+37	; 0x25
    3038:	36 a1       	ldd	r19, Z+38	; 0x26
    303a:	80 91 04 01 	lds	r24, 0x0104
    303e:	90 91 05 01 	lds	r25, 0x0105
    3042:	b9 01       	movw	r22, r18
    3044:	d7 d4       	rcall	.+2478   	; 0x39f4 <_ZN20RunFocusStackHandler11reportFrameEj>
    3046:	80 91 04 01 	lds	r24, 0x0104
    304a:	90 91 05 01 	lds	r25, 0x0105
    304e:	6e d5       	rcall	.+2780   	; 0x3b2c <_ZN20RunFocusStackHandler19resetLastUpdateTimeEv>
    3050:	8b 81       	ldd	r24, Y+3	; 0x03
    3052:	9c 81       	ldd	r25, Y+4	; 0x04
    3054:	fc 01       	movw	r30, r24
    3056:	85 a1       	ldd	r24, Z+37	; 0x25
    3058:	96 a1       	ldd	r25, Z+38	; 0x26
    305a:	9c 01       	movw	r18, r24
    305c:	21 50       	subi	r18, 0x01	; 1
    305e:	31 09       	sbc	r19, r1
    3060:	8b 81       	ldd	r24, Y+3	; 0x03
    3062:	9c 81       	ldd	r25, Y+4	; 0x04
    3064:	fc 01       	movw	r30, r24
    3066:	36 a3       	std	Z+38, r19	; 0x26
    3068:	25 a3       	std	Z+37, r18	; 0x25
    306a:	05 c0       	rjmp	.+10     	; 0x3076 <_ZN10NikType00315startFocusStackEv+0xce>
    306c:	8b 81       	ldd	r24, Y+3	; 0x03
    306e:	9c 81       	ldd	r25, Y+4	; 0x04
    3070:	fc 01       	movw	r30, r24
    3072:	16 a2       	std	Z+38, r1	; 0x26
    3074:	15 a2       	std	Z+37, r1	; 0x25
    3076:	89 81       	ldd	r24, Y+1	; 0x01
    3078:	9a 81       	ldd	r25, Y+2	; 0x02
    307a:	0f 90       	pop	r0
    307c:	0f 90       	pop	r0
    307e:	0f 90       	pop	r0
    3080:	0f 90       	pop	r0
    3082:	df 91       	pop	r29
    3084:	cf 91       	pop	r28
    3086:	08 95       	ret

00003088 <_ZN10NikType00316prepareNextFrameEv>:
    3088:	0f 93       	push	r16
    308a:	1f 93       	push	r17
    308c:	cf 93       	push	r28
    308e:	df 93       	push	r29
    3090:	00 d0       	rcall	.+0      	; 0x3092 <_ZN10NikType00316prepareNextFrameEv+0xa>
    3092:	00 d0       	rcall	.+0      	; 0x3094 <_ZN10NikType00316prepareNextFrameEv+0xc>
    3094:	cd b7       	in	r28, 0x3d	; 61
    3096:	de b7       	in	r29, 0x3e	; 62
    3098:	9c 83       	std	Y+4, r25	; 0x04
    309a:	8b 83       	std	Y+3, r24	; 0x03
    309c:	82 e0       	ldi	r24, 0x02	; 2
    309e:	90 e2       	ldi	r25, 0x20	; 32
    30a0:	9a 83       	std	Y+2, r25	; 0x02
    30a2:	89 83       	std	Y+1, r24	; 0x01
    30a4:	8b 81       	ldd	r24, Y+3	; 0x03
    30a6:	9c 81       	ldd	r25, Y+4	; 0x04
    30a8:	fc 01       	movw	r30, r24
    30aa:	85 a1       	ldd	r24, Z+37	; 0x25
    30ac:	96 a1       	ldd	r25, Z+38	; 0x26
    30ae:	00 97       	sbiw	r24, 0x00	; 0
    30b0:	09 f4       	brne	.+2      	; 0x30b4 <_ZN10NikType00316prepareNextFrameEv+0x2c>
    30b2:	b8 c0       	rjmp	.+368    	; 0x3224 <_ZN10NikType00316prepareNextFrameEv+0x19c>
    30b4:	26 e8       	ldi	r18, 0x86	; 134
    30b6:	32 e0       	ldi	r19, 0x02	; 2
    30b8:	80 91 04 01 	lds	r24, 0x0104
    30bc:	90 91 05 01 	lds	r25, 0x0105
    30c0:	b9 01       	movw	r22, r18
    30c2:	65 d4       	rcall	.+2250   	; 0x398e <_ZN20RunFocusStackHandler12reportStatusEPK19__FlashStringHelper>
    30c4:	8b 81       	ldd	r24, Y+3	; 0x03
    30c6:	9c 81       	ldd	r25, Y+4	; 0x04
    30c8:	61 e0       	ldi	r22, 0x01	; 1
    30ca:	5b de       	rcall	.-842    	; 0x2d82 <_ZN10NikType00314enableLiveViewEb>
    30cc:	9a 83       	std	Y+2, r25	; 0x02
    30ce:	89 83       	std	Y+1, r24	; 0x01
    30d0:	21 e0       	ldi	r18, 0x01	; 1
    30d2:	89 81       	ldd	r24, Y+1	; 0x01
    30d4:	9a 81       	ldd	r25, Y+2	; 0x02
    30d6:	81 30       	cpi	r24, 0x01	; 1
    30d8:	f0 e2       	ldi	r31, 0x20	; 32
    30da:	9f 07       	cpc	r25, r31
    30dc:	09 f0       	breq	.+2      	; 0x30e0 <_ZN10NikType00316prepareNextFrameEv+0x58>
    30de:	20 e0       	ldi	r18, 0x00	; 0
    30e0:	22 23       	and	r18, r18
    30e2:	09 f4       	brne	.+2      	; 0x30e6 <_ZN10NikType00316prepareNextFrameEv+0x5e>
    30e4:	82 c0       	rjmp	.+260    	; 0x31ea <_ZN10NikType00316prepareNextFrameEv+0x162>
    30e6:	8b 81       	ldd	r24, Y+3	; 0x03
    30e8:	9c 81       	ldd	r25, Y+4	; 0x04
    30ea:	68 ee       	ldi	r22, 0xE8	; 232
    30ec:	73 e0       	ldi	r23, 0x03	; 3
    30ee:	c2 dd       	rcall	.-1148   	; 0x2c74 <_ZN10NikType00312waitForReadyEj>
    30f0:	9a 83       	std	Y+2, r25	; 0x02
    30f2:	89 83       	std	Y+1, r24	; 0x01
    30f4:	21 e0       	ldi	r18, 0x01	; 1
    30f6:	89 81       	ldd	r24, Y+1	; 0x01
    30f8:	9a 81       	ldd	r25, Y+2	; 0x02
    30fa:	81 30       	cpi	r24, 0x01	; 1
    30fc:	30 e2       	ldi	r19, 0x20	; 32
    30fe:	93 07       	cpc	r25, r19
    3100:	09 f0       	breq	.+2      	; 0x3104 <_ZN10NikType00316prepareNextFrameEv+0x7c>
    3102:	20 e0       	ldi	r18, 0x00	; 0
    3104:	22 23       	and	r18, r18
    3106:	09 f4       	brne	.+2      	; 0x310a <_ZN10NikType00316prepareNextFrameEv+0x82>
    3108:	70 c0       	rjmp	.+224    	; 0x31ea <_ZN10NikType00316prepareNextFrameEv+0x162>
    310a:	2c e8       	ldi	r18, 0x8C	; 140
    310c:	32 e0       	ldi	r19, 0x02	; 2
    310e:	80 91 04 01 	lds	r24, 0x0104
    3112:	90 91 05 01 	lds	r25, 0x0105
    3116:	b9 01       	movw	r22, r18
    3118:	3a d4       	rcall	.+2164   	; 0x398e <_ZN20RunFocusStackHandler12reportStatusEPK19__FlashStringHelper>
    311a:	80 91 02 01 	lds	r24, 0x0102
    311e:	90 91 03 01 	lds	r25, 0x0103
    3122:	6c db       	rcall	.-2344   	; 0x27fc <_ZNK12SetupHandler14getDriveAmountEv>
    3124:	dc 01       	movw	r26, r24
    3126:	cb 01       	movw	r24, r22
    3128:	eb 81       	ldd	r30, Y+3	; 0x03
    312a:	fc 81       	ldd	r31, Y+4	; 0x04
    312c:	8c 01       	movw	r16, r24
    312e:	9d 01       	movw	r18, r26
    3130:	42 e0       	ldi	r20, 0x02	; 2
    3132:	50 e0       	ldi	r21, 0x00	; 0
    3134:	60 e0       	ldi	r22, 0x00	; 0
    3136:	70 e0       	ldi	r23, 0x00	; 0
    3138:	cf 01       	movw	r24, r30
    313a:	e4 de       	rcall	.-568    	; 0x2f04 <_ZN10NikType0039moveFocusEmm>
    313c:	9a 83       	std	Y+2, r25	; 0x02
    313e:	89 83       	std	Y+1, r24	; 0x01
    3140:	21 e0       	ldi	r18, 0x01	; 1
    3142:	89 81       	ldd	r24, Y+1	; 0x01
    3144:	9a 81       	ldd	r25, Y+2	; 0x02
    3146:	81 30       	cpi	r24, 0x01	; 1
    3148:	e0 e2       	ldi	r30, 0x20	; 32
    314a:	9e 07       	cpc	r25, r30
    314c:	09 f0       	breq	.+2      	; 0x3150 <_ZN10NikType00316prepareNextFrameEv+0xc8>
    314e:	20 e0       	ldi	r18, 0x00	; 0
    3150:	22 23       	and	r18, r18
    3152:	09 f4       	brne	.+2      	; 0x3156 <_ZN10NikType00316prepareNextFrameEv+0xce>
    3154:	4a c0       	rjmp	.+148    	; 0x31ea <_ZN10NikType00316prepareNextFrameEv+0x162>
    3156:	80 91 02 01 	lds	r24, 0x0102
    315a:	90 91 03 01 	lds	r25, 0x0103
    315e:	4e db       	rcall	.-2404   	; 0x27fc <_ZNK12SetupHandler14getDriveAmountEv>
    3160:	dc 01       	movw	r26, r24
    3162:	cb 01       	movw	r24, r22
    3164:	2b 81       	ldd	r18, Y+3	; 0x03
    3166:	3c 81       	ldd	r19, Y+4	; 0x04
    3168:	f9 01       	movw	r30, r18
    316a:	27 a1       	ldd	r18, Z+39	; 0x27
    316c:	30 a5       	ldd	r19, Z+40	; 0x28
    316e:	41 a5       	ldd	r20, Z+41	; 0x29
    3170:	52 a5       	ldd	r21, Z+42	; 0x2a
    3172:	82 0f       	add	r24, r18
    3174:	93 1f       	adc	r25, r19
    3176:	a4 1f       	adc	r26, r20
    3178:	b5 1f       	adc	r27, r21
    317a:	2b 81       	ldd	r18, Y+3	; 0x03
    317c:	3c 81       	ldd	r19, Y+4	; 0x04
    317e:	f9 01       	movw	r30, r18
    3180:	87 a3       	std	Z+39, r24	; 0x27
    3182:	90 a7       	std	Z+40, r25	; 0x28
    3184:	a1 a7       	std	Z+41, r26	; 0x29
    3186:	b2 a7       	std	Z+42, r27	; 0x2a
    3188:	8b 81       	ldd	r24, Y+3	; 0x03
    318a:	9c 81       	ldd	r25, Y+4	; 0x04
    318c:	68 ee       	ldi	r22, 0xE8	; 232
    318e:	73 e0       	ldi	r23, 0x03	; 3
    3190:	71 dd       	rcall	.-1310   	; 0x2c74 <_ZN10NikType00312waitForReadyEj>
    3192:	9a 83       	std	Y+2, r25	; 0x02
    3194:	89 83       	std	Y+1, r24	; 0x01
    3196:	21 e0       	ldi	r18, 0x01	; 1
    3198:	89 81       	ldd	r24, Y+1	; 0x01
    319a:	9a 81       	ldd	r25, Y+2	; 0x02
    319c:	81 30       	cpi	r24, 0x01	; 1
    319e:	f0 e2       	ldi	r31, 0x20	; 32
    31a0:	9f 07       	cpc	r25, r31
    31a2:	09 f0       	breq	.+2      	; 0x31a6 <_ZN10NikType00316prepareNextFrameEv+0x11e>
    31a4:	20 e0       	ldi	r18, 0x00	; 0
    31a6:	22 23       	and	r18, r18
    31a8:	01 f1       	breq	.+64     	; 0x31ea <_ZN10NikType00316prepareNextFrameEv+0x162>
    31aa:	22 e9       	ldi	r18, 0x92	; 146
    31ac:	32 e0       	ldi	r19, 0x02	; 2
    31ae:	80 91 04 01 	lds	r24, 0x0104
    31b2:	90 91 05 01 	lds	r25, 0x0105
    31b6:	b9 01       	movw	r22, r18
    31b8:	ea d3       	rcall	.+2004   	; 0x398e <_ZN20RunFocusStackHandler12reportStatusEPK19__FlashStringHelper>
    31ba:	8b 81       	ldd	r24, Y+3	; 0x03
    31bc:	9c 81       	ldd	r25, Y+4	; 0x04
    31be:	60 e0       	ldi	r22, 0x00	; 0
    31c0:	e0 dd       	rcall	.-1088   	; 0x2d82 <_ZN10NikType00314enableLiveViewEb>
    31c2:	9a 83       	std	Y+2, r25	; 0x02
    31c4:	89 83       	std	Y+1, r24	; 0x01
    31c6:	8b 81       	ldd	r24, Y+3	; 0x03
    31c8:	9c 81       	ldd	r25, Y+4	; 0x04
    31ca:	fc 01       	movw	r30, r24
    31cc:	24 a1       	ldd	r18, Z+36	; 0x24
    31ce:	20 62       	ori	r18, 0x20	; 32
    31d0:	fc 01       	movw	r30, r24
    31d2:	24 a3       	std	Z+36, r18	; 0x24
    31d4:	8b 81       	ldd	r24, Y+3	; 0x03
    31d6:	9c 81       	ldd	r25, Y+4	; 0x04
    31d8:	fc 01       	movw	r30, r24
    31da:	25 a1       	ldd	r18, Z+37	; 0x25
    31dc:	36 a1       	ldd	r19, Z+38	; 0x26
    31de:	80 91 04 01 	lds	r24, 0x0104
    31e2:	90 91 05 01 	lds	r25, 0x0105
    31e6:	b9 01       	movw	r22, r18
    31e8:	05 d4       	rcall	.+2058   	; 0x39f4 <_ZN20RunFocusStackHandler11reportFrameEj>
    31ea:	89 81       	ldd	r24, Y+1	; 0x01
    31ec:	9a 81       	ldd	r25, Y+2	; 0x02
    31ee:	81 30       	cpi	r24, 0x01	; 1
    31f0:	f0 e2       	ldi	r31, 0x20	; 32
    31f2:	9f 07       	cpc	r25, r31
    31f4:	69 f0       	breq	.+26     	; 0x3210 <_ZN10NikType00316prepareNextFrameEv+0x188>
    31f6:	8e 30       	cpi	r24, 0x0E	; 14
    31f8:	20 ea       	ldi	r18, 0xA0	; 160
    31fa:	92 07       	cpc	r25, r18
    31fc:	51 f4       	brne	.+20     	; 0x3212 <_ZN10NikType00316prepareNextFrameEv+0x18a>
    31fe:	29 e9       	ldi	r18, 0x99	; 153
    3200:	32 e0       	ldi	r19, 0x02	; 2
    3202:	80 91 04 01 	lds	r24, 0x0104
    3206:	90 91 05 01 	lds	r25, 0x0105
    320a:	b9 01       	movw	r22, r18
    320c:	c0 d3       	rcall	.+1920   	; 0x398e <_ZN20RunFocusStackHandler12reportStatusEPK19__FlashStringHelper>
    320e:	01 c0       	rjmp	.+2      	; 0x3212 <_ZN10NikType00316prepareNextFrameEv+0x18a>
    3210:	00 00       	nop
    3212:	89 81       	ldd	r24, Y+1	; 0x01
    3214:	9a 81       	ldd	r25, Y+2	; 0x02
    3216:	81 30       	cpi	r24, 0x01	; 1
    3218:	30 e2       	ldi	r19, 0x20	; 32
    321a:	93 07       	cpc	r25, r19
    321c:	19 f0       	breq	.+6      	; 0x3224 <_ZN10NikType00316prepareNextFrameEv+0x19c>
    321e:	8b 81       	ldd	r24, Y+3	; 0x03
    3220:	9c 81       	ldd	r25, Y+4	; 0x04
    3222:	89 d0       	rcall	.+274    	; 0x3336 <_ZN10NikType00316cancelFocusStackEv>
    3224:	89 81       	ldd	r24, Y+1	; 0x01
    3226:	9a 81       	ldd	r25, Y+2	; 0x02
    3228:	0f 90       	pop	r0
    322a:	0f 90       	pop	r0
    322c:	0f 90       	pop	r0
    322e:	0f 90       	pop	r0
    3230:	df 91       	pop	r29
    3232:	cf 91       	pop	r28
    3234:	1f 91       	pop	r17
    3236:	0f 91       	pop	r16
    3238:	08 95       	ret

0000323a <_ZN10NikType00319focusStackNextFrameEv>:
    323a:	cf 93       	push	r28
    323c:	df 93       	push	r29
    323e:	00 d0       	rcall	.+0      	; 0x3240 <_ZN10NikType00319focusStackNextFrameEv+0x6>
    3240:	00 d0       	rcall	.+0      	; 0x3242 <_ZN10NikType00319focusStackNextFrameEv+0x8>
    3242:	cd b7       	in	r28, 0x3d	; 61
    3244:	de b7       	in	r29, 0x3e	; 62
    3246:	9c 83       	std	Y+4, r25	; 0x04
    3248:	8b 83       	std	Y+3, r24	; 0x03
    324a:	82 e0       	ldi	r24, 0x02	; 2
    324c:	90 e2       	ldi	r25, 0x20	; 32
    324e:	9a 83       	std	Y+2, r25	; 0x02
    3250:	89 83       	std	Y+1, r24	; 0x01
    3252:	8b 81       	ldd	r24, Y+3	; 0x03
    3254:	9c 81       	ldd	r25, Y+4	; 0x04
    3256:	fc 01       	movw	r30, r24
    3258:	85 a1       	ldd	r24, Z+37	; 0x25
    325a:	96 a1       	ldd	r25, Z+38	; 0x26
    325c:	00 97       	sbiw	r24, 0x00	; 0
    325e:	09 f4       	brne	.+2      	; 0x3262 <_ZN10NikType00319focusStackNextFrameEv+0x28>
    3260:	48 c0       	rjmp	.+144    	; 0x32f2 <_ZN10NikType00319focusStackNextFrameEv+0xb8>
    3262:	8b 81       	ldd	r24, Y+3	; 0x03
    3264:	9c 81       	ldd	r25, Y+4	; 0x04
    3266:	d4 dd       	rcall	.-1112   	; 0x2e10 <_ZN10NikType00313captureToCardEv>
    3268:	9a 83       	std	Y+2, r25	; 0x02
    326a:	89 83       	std	Y+1, r24	; 0x01
    326c:	21 e0       	ldi	r18, 0x01	; 1
    326e:	89 81       	ldd	r24, Y+1	; 0x01
    3270:	9a 81       	ldd	r25, Y+2	; 0x02
    3272:	81 30       	cpi	r24, 0x01	; 1
    3274:	f0 e2       	ldi	r31, 0x20	; 32
    3276:	9f 07       	cpc	r25, r31
    3278:	09 f0       	breq	.+2      	; 0x327c <_ZN10NikType00319focusStackNextFrameEv+0x42>
    327a:	20 e0       	ldi	r18, 0x00	; 0
    327c:	22 23       	and	r18, r18
    327e:	d9 f0       	breq	.+54     	; 0x32b6 <_ZN10NikType00319focusStackNextFrameEv+0x7c>
    3280:	8b 81       	ldd	r24, Y+3	; 0x03
    3282:	9c 81       	ldd	r25, Y+4	; 0x04
    3284:	fc 01       	movw	r30, r24
    3286:	85 a1       	ldd	r24, Z+37	; 0x25
    3288:	96 a1       	ldd	r25, Z+38	; 0x26
    328a:	9c 01       	movw	r18, r24
    328c:	21 50       	subi	r18, 0x01	; 1
    328e:	31 09       	sbc	r19, r1
    3290:	8b 81       	ldd	r24, Y+3	; 0x03
    3292:	9c 81       	ldd	r25, Y+4	; 0x04
    3294:	fc 01       	movw	r30, r24
    3296:	36 a3       	std	Z+38, r19	; 0x26
    3298:	25 a3       	std	Z+37, r18	; 0x25
    329a:	8b 81       	ldd	r24, Y+3	; 0x03
    329c:	9c 81       	ldd	r25, Y+4	; 0x04
    329e:	fc 01       	movw	r30, r24
    32a0:	85 a1       	ldd	r24, Z+37	; 0x25
    32a2:	96 a1       	ldd	r25, Z+38	; 0x26
    32a4:	00 97       	sbiw	r24, 0x00	; 0
    32a6:	39 f4       	brne	.+14     	; 0x32b6 <_ZN10NikType00319focusStackNextFrameEv+0x7c>
    32a8:	8b 81       	ldd	r24, Y+3	; 0x03
    32aa:	9c 81       	ldd	r25, Y+4	; 0x04
    32ac:	fc 01       	movw	r30, r24
    32ae:	24 a1       	ldd	r18, Z+36	; 0x24
    32b0:	20 61       	ori	r18, 0x10	; 16
    32b2:	fc 01       	movw	r30, r24
    32b4:	24 a3       	std	Z+36, r18	; 0x24
    32b6:	89 81       	ldd	r24, Y+1	; 0x01
    32b8:	9a 81       	ldd	r25, Y+2	; 0x02
    32ba:	81 30       	cpi	r24, 0x01	; 1
    32bc:	f0 e2       	ldi	r31, 0x20	; 32
    32be:	9f 07       	cpc	r25, r31
    32c0:	69 f0       	breq	.+26     	; 0x32dc <_ZN10NikType00319focusStackNextFrameEv+0xa2>
    32c2:	8c 30       	cpi	r24, 0x0C	; 12
    32c4:	20 e2       	ldi	r18, 0x20	; 32
    32c6:	92 07       	cpc	r25, r18
    32c8:	51 f4       	brne	.+20     	; 0x32de <_ZN10NikType00319focusStackNextFrameEv+0xa4>
    32ca:	2d e9       	ldi	r18, 0x9D	; 157
    32cc:	32 e0       	ldi	r19, 0x02	; 2
    32ce:	80 91 04 01 	lds	r24, 0x0104
    32d2:	90 91 05 01 	lds	r25, 0x0105
    32d6:	b9 01       	movw	r22, r18
    32d8:	5a d3       	rcall	.+1716   	; 0x398e <_ZN20RunFocusStackHandler12reportStatusEPK19__FlashStringHelper>
    32da:	01 c0       	rjmp	.+2      	; 0x32de <_ZN10NikType00319focusStackNextFrameEv+0xa4>
    32dc:	00 00       	nop
    32de:	89 81       	ldd	r24, Y+1	; 0x01
    32e0:	9a 81       	ldd	r25, Y+2	; 0x02
    32e2:	81 30       	cpi	r24, 0x01	; 1
    32e4:	30 e2       	ldi	r19, 0x20	; 32
    32e6:	93 07       	cpc	r25, r19
    32e8:	19 f0       	breq	.+6      	; 0x32f0 <_ZN10NikType00319focusStackNextFrameEv+0xb6>
    32ea:	8b 81       	ldd	r24, Y+3	; 0x03
    32ec:	9c 81       	ldd	r25, Y+4	; 0x04
    32ee:	23 d0       	rcall	.+70     	; 0x3336 <_ZN10NikType00316cancelFocusStackEv>
    32f0:	19 c0       	rjmp	.+50     	; 0x3324 <_ZN10NikType00319focusStackNextFrameEv+0xea>
    32f2:	8b 81       	ldd	r24, Y+3	; 0x03
    32f4:	9c 81       	ldd	r25, Y+4	; 0x04
    32f6:	fc 01       	movw	r30, r24
    32f8:	24 a1       	ldd	r18, Z+36	; 0x24
    32fa:	27 7f       	andi	r18, 0xF7	; 247
    32fc:	fc 01       	movw	r30, r24
    32fe:	24 a3       	std	Z+36, r18	; 0x24
    3300:	8b 81       	ldd	r24, Y+3	; 0x03
    3302:	9c 81       	ldd	r25, Y+4	; 0x04
    3304:	fc 01       	movw	r30, r24
    3306:	84 a1       	ldd	r24, Z+36	; 0x24
    3308:	80 71       	andi	r24, 0x10	; 16
    330a:	88 23       	and	r24, r24
    330c:	19 f0       	breq	.+6      	; 0x3314 <_ZN10NikType00319focusStackNextFrameEv+0xda>
    330e:	8b 81       	ldd	r24, Y+3	; 0x03
    3310:	9c 81       	ldd	r25, Y+4	; 0x04
    3312:	29 d0       	rcall	.+82     	; 0x3366 <_ZN10NikType00320restoreOriginalFocusEv>
    3314:	80 91 00 01 	lds	r24, 0x0100
    3318:	90 91 01 01 	lds	r25, 0x0101
    331c:	bc 01       	movw	r22, r24
    331e:	8a e6       	ldi	r24, 0x6A	; 106
    3320:	92 e0       	ldi	r25, 0x02	; 2
    3322:	b1 d8       	rcall	.-3742   	; 0x2486 <_ZN11MessagePump14setNextHandlerEP15IMessageHandler>
    3324:	89 81       	ldd	r24, Y+1	; 0x01
    3326:	9a 81       	ldd	r25, Y+2	; 0x02
    3328:	0f 90       	pop	r0
    332a:	0f 90       	pop	r0
    332c:	0f 90       	pop	r0
    332e:	0f 90       	pop	r0
    3330:	df 91       	pop	r29
    3332:	cf 91       	pop	r28
    3334:	08 95       	ret

00003336 <_ZN10NikType00316cancelFocusStackEv>:
    3336:	cf 93       	push	r28
    3338:	df 93       	push	r29
    333a:	00 d0       	rcall	.+0      	; 0x333c <_ZN10NikType00316cancelFocusStackEv+0x6>
    333c:	cd b7       	in	r28, 0x3d	; 61
    333e:	de b7       	in	r29, 0x3e	; 62
    3340:	9a 83       	std	Y+2, r25	; 0x02
    3342:	89 83       	std	Y+1, r24	; 0x01
    3344:	89 81       	ldd	r24, Y+1	; 0x01
    3346:	9a 81       	ldd	r25, Y+2	; 0x02
    3348:	fc 01       	movw	r30, r24
    334a:	16 a2       	std	Z+38, r1	; 0x26
    334c:	15 a2       	std	Z+37, r1	; 0x25
    334e:	89 81       	ldd	r24, Y+1	; 0x01
    3350:	9a 81       	ldd	r25, Y+2	; 0x02
    3352:	fc 01       	movw	r30, r24
    3354:	24 a1       	ldd	r18, Z+36	; 0x24
    3356:	27 7f       	andi	r18, 0xF7	; 247
    3358:	fc 01       	movw	r30, r24
    335a:	24 a3       	std	Z+36, r18	; 0x24
    335c:	0f 90       	pop	r0
    335e:	0f 90       	pop	r0
    3360:	df 91       	pop	r29
    3362:	cf 91       	pop	r28
    3364:	08 95       	ret

00003366 <_ZN10NikType00320restoreOriginalFocusEv>:
    3366:	0f 93       	push	r16
    3368:	1f 93       	push	r17
    336a:	cf 93       	push	r28
    336c:	df 93       	push	r29
    336e:	00 d0       	rcall	.+0      	; 0x3370 <_ZN10NikType00320restoreOriginalFocusEv+0xa>
    3370:	00 d0       	rcall	.+0      	; 0x3372 <_ZN10NikType00320restoreOriginalFocusEv+0xc>
    3372:	cd b7       	in	r28, 0x3d	; 61
    3374:	de b7       	in	r29, 0x3e	; 62
    3376:	9c 83       	std	Y+4, r25	; 0x04
    3378:	8b 83       	std	Y+3, r24	; 0x03
    337a:	82 e0       	ldi	r24, 0x02	; 2
    337c:	90 e2       	ldi	r25, 0x20	; 32
    337e:	9a 83       	std	Y+2, r25	; 0x02
    3380:	89 83       	std	Y+1, r24	; 0x01
    3382:	80 91 02 01 	lds	r24, 0x0102
    3386:	90 91 03 01 	lds	r25, 0x0103
    338a:	62 da       	rcall	.-2876   	; 0x2850 <_ZNK12SetupHandler15getRestoreFocusEv>
    338c:	88 23       	and	r24, r24
    338e:	09 f4       	brne	.+2      	; 0x3392 <_ZN10NikType00320restoreOriginalFocusEv+0x2c>
    3390:	5f c0       	rjmp	.+190    	; 0x3450 <_ZN10NikType00320restoreOriginalFocusEv+0xea>
    3392:	26 ea       	ldi	r18, 0xA6	; 166
    3394:	32 e0       	ldi	r19, 0x02	; 2
    3396:	80 91 04 01 	lds	r24, 0x0104
    339a:	90 91 05 01 	lds	r25, 0x0105
    339e:	b9 01       	movw	r22, r18
    33a0:	f6 d2       	rcall	.+1516   	; 0x398e <_ZN20RunFocusStackHandler12reportStatusEPK19__FlashStringHelper>
    33a2:	8b 81       	ldd	r24, Y+3	; 0x03
    33a4:	9c 81       	ldd	r25, Y+4	; 0x04
    33a6:	61 e0       	ldi	r22, 0x01	; 1
    33a8:	ec dc       	rcall	.-1576   	; 0x2d82 <_ZN10NikType00314enableLiveViewEb>
    33aa:	9a 83       	std	Y+2, r25	; 0x02
    33ac:	89 83       	std	Y+1, r24	; 0x01
    33ae:	21 e0       	ldi	r18, 0x01	; 1
    33b0:	89 81       	ldd	r24, Y+1	; 0x01
    33b2:	9a 81       	ldd	r25, Y+2	; 0x02
    33b4:	81 30       	cpi	r24, 0x01	; 1
    33b6:	30 e2       	ldi	r19, 0x20	; 32
    33b8:	93 07       	cpc	r25, r19
    33ba:	09 f0       	breq	.+2      	; 0x33be <_ZN10NikType00320restoreOriginalFocusEv+0x58>
    33bc:	20 e0       	ldi	r18, 0x00	; 0
    33be:	22 23       	and	r18, r18
    33c0:	09 f4       	brne	.+2      	; 0x33c4 <_ZN10NikType00320restoreOriginalFocusEv+0x5e>
    33c2:	45 c0       	rjmp	.+138    	; 0x344e <_ZN10NikType00320restoreOriginalFocusEv+0xe8>
    33c4:	8b 81       	ldd	r24, Y+3	; 0x03
    33c6:	9c 81       	ldd	r25, Y+4	; 0x04
    33c8:	68 ee       	ldi	r22, 0xE8	; 232
    33ca:	73 e0       	ldi	r23, 0x03	; 3
    33cc:	53 dc       	rcall	.-1882   	; 0x2c74 <_ZN10NikType00312waitForReadyEj>
    33ce:	9a 83       	std	Y+2, r25	; 0x02
    33d0:	89 83       	std	Y+1, r24	; 0x01
    33d2:	21 e0       	ldi	r18, 0x01	; 1
    33d4:	89 81       	ldd	r24, Y+1	; 0x01
    33d6:	9a 81       	ldd	r25, Y+2	; 0x02
    33d8:	81 30       	cpi	r24, 0x01	; 1
    33da:	e0 e2       	ldi	r30, 0x20	; 32
    33dc:	9e 07       	cpc	r25, r30
    33de:	09 f0       	breq	.+2      	; 0x33e2 <_ZN10NikType00320restoreOriginalFocusEv+0x7c>
    33e0:	20 e0       	ldi	r18, 0x00	; 0
    33e2:	22 23       	and	r18, r18
    33e4:	a1 f1       	breq	.+104    	; 0x344e <_ZN10NikType00320restoreOriginalFocusEv+0xe8>
    33e6:	8b 81       	ldd	r24, Y+3	; 0x03
    33e8:	9c 81       	ldd	r25, Y+4	; 0x04
    33ea:	fc 01       	movw	r30, r24
    33ec:	87 a1       	ldd	r24, Z+39	; 0x27
    33ee:	90 a5       	ldd	r25, Z+40	; 0x28
    33f0:	a1 a5       	ldd	r26, Z+41	; 0x29
    33f2:	b2 a5       	ldd	r27, Z+42	; 0x2a
    33f4:	eb 81       	ldd	r30, Y+3	; 0x03
    33f6:	fc 81       	ldd	r31, Y+4	; 0x04
    33f8:	8c 01       	movw	r16, r24
    33fa:	9d 01       	movw	r18, r26
    33fc:	41 e0       	ldi	r20, 0x01	; 1
    33fe:	50 e0       	ldi	r21, 0x00	; 0
    3400:	60 e0       	ldi	r22, 0x00	; 0
    3402:	70 e0       	ldi	r23, 0x00	; 0
    3404:	cf 01       	movw	r24, r30
    3406:	7e dd       	rcall	.-1284   	; 0x2f04 <_ZN10NikType0039moveFocusEmm>
    3408:	9a 83       	std	Y+2, r25	; 0x02
    340a:	89 83       	std	Y+1, r24	; 0x01
    340c:	21 e0       	ldi	r18, 0x01	; 1
    340e:	89 81       	ldd	r24, Y+1	; 0x01
    3410:	9a 81       	ldd	r25, Y+2	; 0x02
    3412:	81 30       	cpi	r24, 0x01	; 1
    3414:	f0 e2       	ldi	r31, 0x20	; 32
    3416:	9f 07       	cpc	r25, r31
    3418:	09 f0       	breq	.+2      	; 0x341c <_ZN10NikType00320restoreOriginalFocusEv+0xb6>
    341a:	20 e0       	ldi	r18, 0x00	; 0
    341c:	22 23       	and	r18, r18
    341e:	b9 f0       	breq	.+46     	; 0x344e <_ZN10NikType00320restoreOriginalFocusEv+0xe8>
    3420:	8b 81       	ldd	r24, Y+3	; 0x03
    3422:	9c 81       	ldd	r25, Y+4	; 0x04
    3424:	68 ee       	ldi	r22, 0xE8	; 232
    3426:	73 e0       	ldi	r23, 0x03	; 3
    3428:	25 dc       	rcall	.-1974   	; 0x2c74 <_ZN10NikType00312waitForReadyEj>
    342a:	9a 83       	std	Y+2, r25	; 0x02
    342c:	89 83       	std	Y+1, r24	; 0x01
    342e:	21 e0       	ldi	r18, 0x01	; 1
    3430:	89 81       	ldd	r24, Y+1	; 0x01
    3432:	9a 81       	ldd	r25, Y+2	; 0x02
    3434:	81 30       	cpi	r24, 0x01	; 1
    3436:	30 e2       	ldi	r19, 0x20	; 32
    3438:	93 07       	cpc	r25, r19
    343a:	09 f0       	breq	.+2      	; 0x343e <_ZN10NikType00320restoreOriginalFocusEv+0xd8>
    343c:	20 e0       	ldi	r18, 0x00	; 0
    343e:	22 23       	and	r18, r18
    3440:	31 f0       	breq	.+12     	; 0x344e <_ZN10NikType00320restoreOriginalFocusEv+0xe8>
    3442:	8b 81       	ldd	r24, Y+3	; 0x03
    3444:	9c 81       	ldd	r25, Y+4	; 0x04
    3446:	60 e0       	ldi	r22, 0x00	; 0
    3448:	9c dc       	rcall	.-1736   	; 0x2d82 <_ZN10NikType00314enableLiveViewEb>
    344a:	9a 83       	std	Y+2, r25	; 0x02
    344c:	89 83       	std	Y+1, r24	; 0x01
    344e:	04 c0       	rjmp	.+8      	; 0x3458 <_ZN10NikType00320restoreOriginalFocusEv+0xf2>
    3450:	81 e0       	ldi	r24, 0x01	; 1
    3452:	90 e2       	ldi	r25, 0x20	; 32
    3454:	9a 83       	std	Y+2, r25	; 0x02
    3456:	89 83       	std	Y+1, r24	; 0x01
    3458:	89 81       	ldd	r24, Y+1	; 0x01
    345a:	9a 81       	ldd	r25, Y+2	; 0x02
    345c:	0f 90       	pop	r0
    345e:	0f 90       	pop	r0
    3460:	0f 90       	pop	r0
    3462:	0f 90       	pop	r0
    3464:	df 91       	pop	r29
    3466:	cf 91       	pop	r28
    3468:	1f 91       	pop	r17
    346a:	0f 91       	pop	r16
    346c:	08 95       	ret

0000346e <_ZN10NikType00314setIsConnectedEb>:
    346e:	cf 93       	push	r28
    3470:	df 93       	push	r29
    3472:	00 d0       	rcall	.+0      	; 0x3474 <_ZN10NikType00314setIsConnectedEb+0x6>
    3474:	1f 92       	push	r1
    3476:	cd b7       	in	r28, 0x3d	; 61
    3478:	de b7       	in	r29, 0x3e	; 62
    347a:	9a 83       	std	Y+2, r25	; 0x02
    347c:	89 83       	std	Y+1, r24	; 0x01
    347e:	6b 83       	std	Y+3, r22	; 0x03
    3480:	8b 81       	ldd	r24, Y+3	; 0x03
    3482:	28 2f       	mov	r18, r24
    3484:	21 70       	andi	r18, 0x01	; 1
    3486:	89 81       	ldd	r24, Y+1	; 0x01
    3488:	9a 81       	ldd	r25, Y+2	; 0x02
    348a:	21 70       	andi	r18, 0x01	; 1
    348c:	fc 01       	movw	r30, r24
    348e:	34 a1       	ldd	r19, Z+36	; 0x24
    3490:	3e 7f       	andi	r19, 0xFE	; 254
    3492:	23 2b       	or	r18, r19
    3494:	fc 01       	movw	r30, r24
    3496:	24 a3       	std	Z+36, r18	; 0x24
    3498:	0f 90       	pop	r0
    349a:	0f 90       	pop	r0
    349c:	0f 90       	pop	r0
    349e:	df 91       	pop	r29
    34a0:	cf 91       	pop	r28
    34a2:	08 95       	ret

000034a4 <_ZNK10NikType00311isConnectedEv>:
    34a4:	cf 93       	push	r28
    34a6:	df 93       	push	r29
    34a8:	00 d0       	rcall	.+0      	; 0x34aa <_ZNK10NikType00311isConnectedEv+0x6>
    34aa:	cd b7       	in	r28, 0x3d	; 61
    34ac:	de b7       	in	r29, 0x3e	; 62
    34ae:	9a 83       	std	Y+2, r25	; 0x02
    34b0:	89 83       	std	Y+1, r24	; 0x01
    34b2:	89 81       	ldd	r24, Y+1	; 0x01
    34b4:	9a 81       	ldd	r25, Y+2	; 0x02
    34b6:	fc 01       	movw	r30, r24
    34b8:	84 a1       	ldd	r24, Z+36	; 0x24
    34ba:	98 2f       	mov	r25, r24
    34bc:	91 70       	andi	r25, 0x01	; 1
    34be:	81 e0       	ldi	r24, 0x01	; 1
    34c0:	99 23       	and	r25, r25
    34c2:	09 f4       	brne	.+2      	; 0x34c6 <_ZNK10NikType00311isConnectedEv+0x22>
    34c4:	80 e0       	ldi	r24, 0x00	; 0
    34c6:	0f 90       	pop	r0
    34c8:	0f 90       	pop	r0
    34ca:	df 91       	pop	r29
    34cc:	cf 91       	pop	r28
    34ce:	08 95       	ret

000034d0 <_ZNK10NikType00319isCaptureInProgressEv>:
    34d0:	cf 93       	push	r28
    34d2:	df 93       	push	r29
    34d4:	00 d0       	rcall	.+0      	; 0x34d6 <_ZNK10NikType00319isCaptureInProgressEv+0x6>
    34d6:	cd b7       	in	r28, 0x3d	; 61
    34d8:	de b7       	in	r29, 0x3e	; 62
    34da:	9a 83       	std	Y+2, r25	; 0x02
    34dc:	89 83       	std	Y+1, r24	; 0x01
    34de:	89 81       	ldd	r24, Y+1	; 0x01
    34e0:	9a 81       	ldd	r25, Y+2	; 0x02
    34e2:	fc 01       	movw	r30, r24
    34e4:	84 a1       	ldd	r24, Z+36	; 0x24
    34e6:	98 2f       	mov	r25, r24
    34e8:	94 70       	andi	r25, 0x04	; 4
    34ea:	81 e0       	ldi	r24, 0x01	; 1
    34ec:	99 23       	and	r25, r25
    34ee:	09 f4       	brne	.+2      	; 0x34f2 <_ZNK10NikType00319isCaptureInProgressEv+0x22>
    34f0:	80 e0       	ldi	r24, 0x00	; 0
    34f2:	0f 90       	pop	r0
    34f4:	0f 90       	pop	r0
    34f6:	df 91       	pop	r29
    34f8:	cf 91       	pop	r28
    34fa:	08 95       	ret

000034fc <_ZNK10NikType00318isFocusStackActiveEv>:
    34fc:	cf 93       	push	r28
    34fe:	df 93       	push	r29
    3500:	00 d0       	rcall	.+0      	; 0x3502 <_ZNK10NikType00318isFocusStackActiveEv+0x6>
    3502:	cd b7       	in	r28, 0x3d	; 61
    3504:	de b7       	in	r29, 0x3e	; 62
    3506:	9a 83       	std	Y+2, r25	; 0x02
    3508:	89 83       	std	Y+1, r24	; 0x01
    350a:	89 81       	ldd	r24, Y+1	; 0x01
    350c:	9a 81       	ldd	r25, Y+2	; 0x02
    350e:	fc 01       	movw	r30, r24
    3510:	84 a1       	ldd	r24, Z+36	; 0x24
    3512:	98 2f       	mov	r25, r24
    3514:	98 70       	andi	r25, 0x08	; 8
    3516:	81 e0       	ldi	r24, 0x01	; 1
    3518:	99 23       	and	r25, r25
    351a:	09 f4       	brne	.+2      	; 0x351e <_ZNK10NikType00318isFocusStackActiveEv+0x22>
    351c:	80 e0       	ldi	r24, 0x00	; 0
    351e:	0f 90       	pop	r0
    3520:	0f 90       	pop	r0
    3522:	df 91       	pop	r29
    3524:	cf 91       	pop	r28
    3526:	08 95       	ret

00003528 <_ZNK10NikType00318isNextFrameFocusedEv>:
    3528:	cf 93       	push	r28
    352a:	df 93       	push	r29
    352c:	00 d0       	rcall	.+0      	; 0x352e <_ZNK10NikType00318isNextFrameFocusedEv+0x6>
    352e:	cd b7       	in	r28, 0x3d	; 61
    3530:	de b7       	in	r29, 0x3e	; 62
    3532:	9a 83       	std	Y+2, r25	; 0x02
    3534:	89 83       	std	Y+1, r24	; 0x01
    3536:	89 81       	ldd	r24, Y+1	; 0x01
    3538:	9a 81       	ldd	r25, Y+2	; 0x02
    353a:	fc 01       	movw	r30, r24
    353c:	84 a1       	ldd	r24, Z+36	; 0x24
    353e:	98 2f       	mov	r25, r24
    3540:	90 72       	andi	r25, 0x20	; 32
    3542:	81 e0       	ldi	r24, 0x01	; 1
    3544:	99 23       	and	r25, r25
    3546:	09 f4       	brne	.+2      	; 0x354a <_ZNK10NikType00318isNextFrameFocusedEv+0x22>
    3548:	80 e0       	ldi	r24, 0x00	; 0
    354a:	0f 90       	pop	r0
    354c:	0f 90       	pop	r0
    354e:	df 91       	pop	r29
    3550:	cf 91       	pop	r28
    3552:	08 95       	ret

00003554 <_ZNK10NikType00326getTimeLastCaptureCompleteEv>:
uint32_t NikType003::getTimeLastCaptureComplete() const { return m_timeLastCapture; }
    3554:	cf 93       	push	r28
    3556:	df 93       	push	r29
    3558:	00 d0       	rcall	.+0      	; 0x355a <_ZNK10NikType00326getTimeLastCaptureCompleteEv+0x6>
    355a:	cd b7       	in	r28, 0x3d	; 61
    355c:	de b7       	in	r29, 0x3e	; 62
    355e:	9a 83       	std	Y+2, r25	; 0x02
    3560:	89 83       	std	Y+1, r24	; 0x01
    3562:	89 81       	ldd	r24, Y+1	; 0x01
    3564:	9a 81       	ldd	r25, Y+2	; 0x02
    3566:	fc 01       	movw	r30, r24
    3568:	87 a5       	ldd	r24, Z+47	; 0x2f
    356a:	90 a9       	ldd	r25, Z+48	; 0x30
    356c:	a1 a9       	ldd	r26, Z+49	; 0x31
    356e:	b2 a9       	ldd	r27, Z+50	; 0x32
    3570:	bc 01       	movw	r22, r24
    3572:	cd 01       	movw	r24, r26
    3574:	0f 90       	pop	r0
    3576:	0f 90       	pop	r0
    3578:	df 91       	pop	r29
    357a:	cf 91       	pop	r28
    357c:	08 95       	ret

0000357e <_ZThn26_N10NikType0037OnEventEPK7NKEvent>:
    357e:	cf 93       	push	r28
    3580:	df 93       	push	r29
    3582:	00 d0       	rcall	.+0      	; 0x3584 <_ZThn26_N10NikType0037OnEventEPK7NKEvent+0x6>
    3584:	00 d0       	rcall	.+0      	; 0x3586 <_ZThn26_N10NikType0037OnEventEPK7NKEvent+0x8>
    3586:	cd b7       	in	r28, 0x3d	; 61
    3588:	de b7       	in	r29, 0x3e	; 62
    358a:	9a 83       	std	Y+2, r25	; 0x02
    358c:	89 83       	std	Y+1, r24	; 0x01
    358e:	7c 83       	std	Y+4, r23	; 0x04
    3590:	6b 83       	std	Y+3, r22	; 0x03
    3592:	89 81       	ldd	r24, Y+1	; 0x01
    3594:	9a 81       	ldd	r25, Y+2	; 0x02
    3596:	4a 97       	sbiw	r24, 0x1a	; 26
    3598:	9a 83       	std	Y+2, r25	; 0x02
    359a:	89 83       	std	Y+1, r24	; 0x01
    359c:	89 81       	ldd	r24, Y+1	; 0x01
    359e:	9a 81       	ldd	r25, Y+2	; 0x02
    35a0:	2b 81       	ldd	r18, Y+3	; 0x03
    35a2:	3c 81       	ldd	r19, Y+4	; 0x04
    35a4:	b9 01       	movw	r22, r18
    35a6:	2e db       	rcall	.-2468   	; 0x2c04 <_ZN10NikType0037OnEventEPK7NKEvent>
    35a8:	0f 90       	pop	r0
    35aa:	0f 90       	pop	r0
    35ac:	0f 90       	pop	r0
    35ae:	0f 90       	pop	r0
    35b0:	df 91       	pop	r29
    35b2:	cf 91       	pop	r28
    35b4:	08 95       	ret

000035b6 <_ZN16PTPStateHandlersC1Ev>:

class PTP;
class PTPReadParser;
class PTPDataSupplier;

class PTPStateHandlers
    35b6:	cf 93       	push	r28
    35b8:	df 93       	push	r29
    35ba:	00 d0       	rcall	.+0      	; 0x35bc <_ZN16PTPStateHandlersC1Ev+0x6>
    35bc:	cd b7       	in	r28, 0x3d	; 61
    35be:	de b7       	in	r29, 0x3e	; 62
    35c0:	9a 83       	std	Y+2, r25	; 0x02
    35c2:	89 83       	std	Y+1, r24	; 0x01
    35c4:	89 81       	ldd	r24, Y+1	; 0x01
    35c6:	9a 81       	ldd	r25, Y+2	; 0x02
    35c8:	2e e3       	ldi	r18, 0x3E	; 62
    35ca:	32 e0       	ldi	r19, 0x02	; 2
    35cc:	fc 01       	movw	r30, r24
    35ce:	31 83       	std	Z+1, r19	; 0x01
    35d0:	20 83       	st	Z, r18
    35d2:	0f 90       	pop	r0
    35d4:	0f 90       	pop	r0
    35d6:	df 91       	pop	r29
    35d8:	cf 91       	pop	r28
    35da:	08 95       	ret

000035dc <_ZN22NikType003StateHandlerC1Ev>:
#include "MainMenu.h"
extern MainMenuHandler *g_pMain;
extern MessagePump g_pump;


NikType003StateHandler::NikType003StateHandler()
    35dc:	cf 93       	push	r28
    35de:	df 93       	push	r29
    35e0:	00 d0       	rcall	.+0      	; 0x35e2 <_ZN22NikType003StateHandlerC1Ev+0x6>
    35e2:	cd b7       	in	r28, 0x3d	; 61
    35e4:	de b7       	in	r29, 0x3e	; 62
    35e6:	9a 83       	std	Y+2, r25	; 0x02
    35e8:	89 83       	std	Y+1, r24	; 0x01
    : stateConnected(stInitial)
    35ea:	89 81       	ldd	r24, Y+1	; 0x01
    35ec:	9a 81       	ldd	r25, Y+2	; 0x02
    35ee:	e3 df       	rcall	.-58     	; 0x35b6 <_ZN16PTPStateHandlersC1Ev>
    35f0:	89 81       	ldd	r24, Y+1	; 0x01
    35f2:	9a 81       	ldd	r25, Y+2	; 0x02
    35f4:	28 ec       	ldi	r18, 0xC8	; 200
    35f6:	31 e0       	ldi	r19, 0x01	; 1
    35f8:	fc 01       	movw	r30, r24
    35fa:	31 83       	std	Z+1, r19	; 0x01
    35fc:	20 83       	st	Z, r18
    35fe:	89 81       	ldd	r24, Y+1	; 0x01
    3600:	9a 81       	ldd	r25, Y+2	; 0x02
    3602:	fc 01       	movw	r30, r24
    3604:	12 82       	std	Z+2, r1	; 0x02
{}
    3606:	0f 90       	pop	r0
    3608:	0f 90       	pop	r0
    360a:	df 91       	pop	r29
    360c:	cf 91       	pop	r28
    360e:	08 95       	ret

00003610 <_ZN22NikType003StateHandler25OnDeviceDisconnectedStateEP3PTP>:

// Tells NikType003 that it's disconnected.
// Setup menu will function, but stack will be unavailable.
void NikType003StateHandler::OnDeviceDisconnectedState(PTP *ptp)
{
    3610:	cf 93       	push	r28
    3612:	df 93       	push	r29
    3614:	00 d0       	rcall	.+0      	; 0x3616 <_ZN22NikType003StateHandler25OnDeviceDisconnectedStateEP3PTP+0x6>
    3616:	00 d0       	rcall	.+0      	; 0x3618 <_ZN22NikType003StateHandler25OnDeviceDisconnectedStateEP3PTP+0x8>
    3618:	00 d0       	rcall	.+0      	; 0x361a <_ZN22NikType003StateHandler25OnDeviceDisconnectedStateEP3PTP+0xa>
    361a:	cd b7       	in	r28, 0x3d	; 61
    361c:	de b7       	in	r29, 0x3e	; 62
    361e:	9c 83       	std	Y+4, r25	; 0x04
    3620:	8b 83       	std	Y+3, r24	; 0x03
    3622:	7e 83       	std	Y+6, r23	; 0x06
    3624:	6d 83       	std	Y+5, r22	; 0x05
    if ((stateConnected == stConnected || stateConnected == stInitial))
    3626:	8b 81       	ldd	r24, Y+3	; 0x03
    3628:	9c 81       	ldd	r25, Y+4	; 0x04
    362a:	fc 01       	movw	r30, r24
    362c:	82 81       	ldd	r24, Z+2	; 0x02
    362e:	82 30       	cpi	r24, 0x02	; 2
    3630:	31 f0       	breq	.+12     	; 0x363e <_ZN22NikType003StateHandler25OnDeviceDisconnectedStateEP3PTP+0x2e>
    3632:	8b 81       	ldd	r24, Y+3	; 0x03
    3634:	9c 81       	ldd	r25, Y+4	; 0x04
    3636:	fc 01       	movw	r30, r24
    3638:	82 81       	ldd	r24, Z+2	; 0x02
    363a:	88 23       	and	r24, r24
    363c:	b1 f4       	brne	.+44     	; 0x366a <_ZN22NikType003StateHandler25OnDeviceDisconnectedStateEP3PTP+0x5a>
    {
        stateConnected = stDisconnected;
    363e:	8b 81       	ldd	r24, Y+3	; 0x03
    3640:	9c 81       	ldd	r25, Y+4	; 0x04
    3642:	21 e0       	ldi	r18, 0x01	; 1
    3644:	fc 01       	movw	r30, r24
    3646:	22 83       	std	Z+2, r18	; 0x02
        NikType003 *nk3 = reinterpret_cast<NikType003*>(ptp);
    3648:	8d 81       	ldd	r24, Y+5	; 0x05
    364a:	9e 81       	ldd	r25, Y+6	; 0x06
    364c:	9a 83       	std	Y+2, r25	; 0x02
    364e:	89 83       	std	Y+1, r24	; 0x01
        nk3->setIsConnected(false);
    3650:	89 81       	ldd	r24, Y+1	; 0x01
    3652:	9a 81       	ldd	r25, Y+2	; 0x02
    3654:	60 e0       	ldi	r22, 0x00	; 0
    3656:	0b df       	rcall	.-490    	; 0x346e <_ZN10NikType00314setIsConnectedEb>
        g_pump.setNextHandler(g_pMain);
    3658:	80 91 00 01 	lds	r24, 0x0100
    365c:	90 91 01 01 	lds	r25, 0x0101
    3660:	bc 01       	movw	r22, r24
    3662:	8a e6       	ldi	r24, 0x6A	; 106
    3664:	92 e0       	ldi	r25, 0x02	; 2
    3666:	0e 94 43 12 	call	0x2486	; 0x2486 <_ZN11MessagePump14setNextHandlerEP15IMessageHandler>
    }
}
    366a:	26 96       	adiw	r28, 0x06	; 6
    366c:	0f b6       	in	r0, 0x3f	; 63
    366e:	f8 94       	cli
    3670:	de bf       	out	0x3e, r29	; 62
    3672:	0f be       	out	0x3f, r0	; 63
    3674:	cd bf       	out	0x3d, r28	; 61
    3676:	df 91       	pop	r29
    3678:	cf 91       	pop	r28
    367a:	08 95       	ret

0000367c <_ZN22NikType003StateHandler24OnDeviceInitializedStateEP3PTP>:
// Tells NikType003 that it's connected
// Both setup & stack will function.
void NikType003StateHandler::OnDeviceInitializedState(PTP *ptp)
{
    367c:	cf 93       	push	r28
    367e:	df 93       	push	r29
    3680:	00 d0       	rcall	.+0      	; 0x3682 <_ZN22NikType003StateHandler24OnDeviceInitializedStateEP3PTP+0x6>
    3682:	00 d0       	rcall	.+0      	; 0x3684 <_ZN22NikType003StateHandler24OnDeviceInitializedStateEP3PTP+0x8>
    3684:	00 d0       	rcall	.+0      	; 0x3686 <_ZN22NikType003StateHandler24OnDeviceInitializedStateEP3PTP+0xa>
    3686:	cd b7       	in	r28, 0x3d	; 61
    3688:	de b7       	in	r29, 0x3e	; 62
    368a:	9c 83       	std	Y+4, r25	; 0x04
    368c:	8b 83       	std	Y+3, r24	; 0x03
    368e:	7e 83       	std	Y+6, r23	; 0x06
    3690:	6d 83       	std	Y+5, r22	; 0x05
    if ((stateConnected == stDisconnected || stateConnected == stInitial))
    3692:	8b 81       	ldd	r24, Y+3	; 0x03
    3694:	9c 81       	ldd	r25, Y+4	; 0x04
    3696:	fc 01       	movw	r30, r24
    3698:	82 81       	ldd	r24, Z+2	; 0x02
    369a:	81 30       	cpi	r24, 0x01	; 1
    369c:	31 f0       	breq	.+12     	; 0x36aa <_ZN22NikType003StateHandler24OnDeviceInitializedStateEP3PTP+0x2e>
    369e:	8b 81       	ldd	r24, Y+3	; 0x03
    36a0:	9c 81       	ldd	r25, Y+4	; 0x04
    36a2:	fc 01       	movw	r30, r24
    36a4:	82 81       	ldd	r24, Z+2	; 0x02
    36a6:	88 23       	and	r24, r24
    36a8:	b1 f4       	brne	.+44     	; 0x36d6 <_ZN22NikType003StateHandler24OnDeviceInitializedStateEP3PTP+0x5a>
    {
        stateConnected = stConnected;
    36aa:	8b 81       	ldd	r24, Y+3	; 0x03
    36ac:	9c 81       	ldd	r25, Y+4	; 0x04
    36ae:	22 e0       	ldi	r18, 0x02	; 2
    36b0:	fc 01       	movw	r30, r24
    36b2:	22 83       	std	Z+2, r18	; 0x02
        NikType003 *nk3 = reinterpret_cast<NikType003*>(ptp);
    36b4:	8d 81       	ldd	r24, Y+5	; 0x05
    36b6:	9e 81       	ldd	r25, Y+6	; 0x06
    36b8:	9a 83       	std	Y+2, r25	; 0x02
    36ba:	89 83       	std	Y+1, r24	; 0x01
        nk3->setIsConnected(true);
    36bc:	89 81       	ldd	r24, Y+1	; 0x01
    36be:	9a 81       	ldd	r25, Y+2	; 0x02
    36c0:	61 e0       	ldi	r22, 0x01	; 1
    36c2:	d5 de       	rcall	.-598    	; 0x346e <_ZN10NikType00314setIsConnectedEb>
        g_pump.setNextHandler(g_pMain);
    36c4:	80 91 00 01 	lds	r24, 0x0100
    36c8:	90 91 01 01 	lds	r25, 0x0101
    36cc:	bc 01       	movw	r22, r24
    36ce:	8a e6       	ldi	r24, 0x6A	; 106
    36d0:	92 e0       	ldi	r25, 0x02	; 2
    36d2:	0e 94 43 12 	call	0x2486	; 0x2486 <_ZN11MessagePump14setNextHandlerEP15IMessageHandler>
    }
}
    36d6:	26 96       	adiw	r28, 0x06	; 6
    36d8:	0f b6       	in	r0, 0x3f	; 63
    36da:	f8 94       	cli
    36dc:	de bf       	out	0x3e, r29	; 62
    36de:	0f be       	out	0x3f, r0	; 63
    36e0:	cd bf       	out	0x3d, r28	; 61
    36e2:	df 91       	pop	r29
    36e4:	cf 91       	pop	r28
    36e6:	08 95       	ret

000036e8 <_ZN15ReadButtonStateD1Ev>:

// Adapt reading a button to a HW implementation
class ReadButtonState
{
public:
	virtual ~ReadButtonState() {};
    36e8:	cf 93       	push	r28
    36ea:	df 93       	push	r29
    36ec:	00 d0       	rcall	.+0      	; 0x36ee <_ZN15ReadButtonStateD1Ev+0x6>
    36ee:	cd b7       	in	r28, 0x3d	; 61
    36f0:	de b7       	in	r29, 0x3e	; 62
    36f2:	9a 83       	std	Y+2, r25	; 0x02
    36f4:	89 83       	std	Y+1, r24	; 0x01
    36f6:	89 81       	ldd	r24, Y+1	; 0x01
    36f8:	9a 81       	ldd	r25, Y+2	; 0x02
    36fa:	24 ee       	ldi	r18, 0xE4	; 228
    36fc:	31 e0       	ldi	r19, 0x01	; 1
    36fe:	fc 01       	movw	r30, r24
    3700:	31 83       	std	Z+1, r19	; 0x01
    3702:	20 83       	st	Z, r18
    3704:	80 e0       	ldi	r24, 0x00	; 0
    3706:	90 e0       	ldi	r25, 0x00	; 0
    3708:	00 97       	sbiw	r24, 0x00	; 0
    370a:	21 f0       	breq	.+8      	; 0x3714 <_ZN15ReadButtonStateD1Ev+0x2c>
    370c:	89 81       	ldd	r24, Y+1	; 0x01
    370e:	9a 81       	ldd	r25, Y+2	; 0x02
    3710:	0e 94 ec 2a 	call	0x55d8	; 0x55d8 <_ZdlPv>
    3714:	0f 90       	pop	r0
    3716:	0f 90       	pop	r0
    3718:	df 91       	pop	r29
    371a:	cf 91       	pop	r28
    371c:	08 95       	ret

0000371e <_ZN15ReadButtonStateD0Ev>:
    371e:	cf 93       	push	r28
    3720:	df 93       	push	r29
    3722:	00 d0       	rcall	.+0      	; 0x3724 <_ZN15ReadButtonStateD0Ev+0x6>
    3724:	cd b7       	in	r28, 0x3d	; 61
    3726:	de b7       	in	r29, 0x3e	; 62
    3728:	9a 83       	std	Y+2, r25	; 0x02
    372a:	89 83       	std	Y+1, r24	; 0x01
    372c:	89 81       	ldd	r24, Y+1	; 0x01
    372e:	9a 81       	ldd	r25, Y+2	; 0x02
    3730:	db df       	rcall	.-74     	; 0x36e8 <_ZN15ReadButtonStateD1Ev>
    3732:	89 81       	ldd	r24, Y+1	; 0x01
    3734:	9a 81       	ldd	r25, Y+2	; 0x02
    3736:	0e 94 ec 2a 	call	0x55d8	; 0x55d8 <_ZdlPv>
    373a:	0f 90       	pop	r0
    373c:	0f 90       	pop	r0
    373e:	df 91       	pop	r29
    3740:	cf 91       	pop	r28
    3742:	08 95       	ret

00003744 <_ZN15ReadButtonStateC1Ev>:
* along with this program.  If not, see <http://www.gnu.org/licenses/>.
*/


// Adapt reading a button to a HW implementation
class ReadButtonState
    3744:	cf 93       	push	r28
    3746:	df 93       	push	r29
    3748:	00 d0       	rcall	.+0      	; 0x374a <_ZN15ReadButtonStateC1Ev+0x6>
    374a:	cd b7       	in	r28, 0x3d	; 61
    374c:	de b7       	in	r29, 0x3e	; 62
    374e:	9a 83       	std	Y+2, r25	; 0x02
    3750:	89 83       	std	Y+1, r24	; 0x01
    3752:	89 81       	ldd	r24, Y+1	; 0x01
    3754:	9a 81       	ldd	r25, Y+2	; 0x02
    3756:	24 ee       	ldi	r18, 0xE4	; 228
    3758:	31 e0       	ldi	r19, 0x01	; 1
    375a:	fc 01       	movw	r30, r24
    375c:	31 83       	std	Z+1, r19	; 0x01
    375e:	20 83       	st	Z, r18
    3760:	0f 90       	pop	r0
    3762:	0f 90       	pop	r0
    3764:	df 91       	pop	r29
    3766:	cf 91       	pop	r28
    3768:	08 95       	ret

0000376a <_ZN26ReadAdaFruitLcdButtonStateC1EP21Adafruit_RGBLCDShield>:


#include "ReadAdaFruitLcdButtonState.h"
#include "Adafruit_RGBLCDShield.h"

ReadAdaFruitLcdButtonState::ReadAdaFruitLcdButtonState(Adafruit_RGBLCDShield *lcdShield)
    376a:	cf 93       	push	r28
    376c:	df 93       	push	r29
    376e:	00 d0       	rcall	.+0      	; 0x3770 <_ZN26ReadAdaFruitLcdButtonStateC1EP21Adafruit_RGBLCDShield+0x6>
    3770:	00 d0       	rcall	.+0      	; 0x3772 <_ZN26ReadAdaFruitLcdButtonStateC1EP21Adafruit_RGBLCDShield+0x8>
    3772:	cd b7       	in	r28, 0x3d	; 61
    3774:	de b7       	in	r29, 0x3e	; 62
    3776:	9a 83       	std	Y+2, r25	; 0x02
    3778:	89 83       	std	Y+1, r24	; 0x01
    377a:	7c 83       	std	Y+4, r23	; 0x04
    377c:	6b 83       	std	Y+3, r22	; 0x03
	:
	m_lcdShield(lcdShield)
    377e:	89 81       	ldd	r24, Y+1	; 0x01
    3780:	9a 81       	ldd	r25, Y+2	; 0x02
    3782:	e0 df       	rcall	.-64     	; 0x3744 <_ZN15ReadButtonStateC1Ev>
    3784:	89 81       	ldd	r24, Y+1	; 0x01
    3786:	9a 81       	ldd	r25, Y+2	; 0x02
    3788:	28 ed       	ldi	r18, 0xD8	; 216
    378a:	31 e0       	ldi	r19, 0x01	; 1
    378c:	fc 01       	movw	r30, r24
    378e:	31 83       	std	Z+1, r19	; 0x01
    3790:	20 83       	st	Z, r18
    3792:	89 81       	ldd	r24, Y+1	; 0x01
    3794:	9a 81       	ldd	r25, Y+2	; 0x02
    3796:	2b 81       	ldd	r18, Y+3	; 0x03
    3798:	3c 81       	ldd	r19, Y+4	; 0x04
    379a:	fc 01       	movw	r30, r24
    379c:	33 83       	std	Z+3, r19	; 0x03
    379e:	22 83       	std	Z+2, r18	; 0x02
{}
    37a0:	0f 90       	pop	r0
    37a2:	0f 90       	pop	r0
    37a4:	0f 90       	pop	r0
    37a6:	0f 90       	pop	r0
    37a8:	df 91       	pop	r29
    37aa:	cf 91       	pop	r28
    37ac:	08 95       	ret

000037ae <_ZN26ReadAdaFruitLcdButtonStateD1Ev>:
ReadAdaFruitLcdButtonState::~ReadAdaFruitLcdButtonState()
    37ae:	cf 93       	push	r28
    37b0:	df 93       	push	r29
    37b2:	00 d0       	rcall	.+0      	; 0x37b4 <_ZN26ReadAdaFruitLcdButtonStateD1Ev+0x6>
    37b4:	cd b7       	in	r28, 0x3d	; 61
    37b6:	de b7       	in	r29, 0x3e	; 62
    37b8:	9a 83       	std	Y+2, r25	; 0x02
    37ba:	89 83       	std	Y+1, r24	; 0x01
    37bc:	89 81       	ldd	r24, Y+1	; 0x01
    37be:	9a 81       	ldd	r25, Y+2	; 0x02
    37c0:	28 ed       	ldi	r18, 0xD8	; 216
    37c2:	31 e0       	ldi	r19, 0x01	; 1
    37c4:	fc 01       	movw	r30, r24
    37c6:	31 83       	std	Z+1, r19	; 0x01
    37c8:	20 83       	st	Z, r18
    37ca:	89 81       	ldd	r24, Y+1	; 0x01
    37cc:	9a 81       	ldd	r25, Y+2	; 0x02
    37ce:	8c df       	rcall	.-232    	; 0x36e8 <_ZN15ReadButtonStateD1Ev>
{}
    37d0:	80 e0       	ldi	r24, 0x00	; 0
    37d2:	90 e0       	ldi	r25, 0x00	; 0
    37d4:	00 97       	sbiw	r24, 0x00	; 0
    37d6:	21 f0       	breq	.+8      	; 0x37e0 <_ZN26ReadAdaFruitLcdButtonStateD1Ev+0x32>
    37d8:	89 81       	ldd	r24, Y+1	; 0x01
    37da:	9a 81       	ldd	r25, Y+2	; 0x02
    37dc:	0e 94 ec 2a 	call	0x55d8	; 0x55d8 <_ZdlPv>
    37e0:	0f 90       	pop	r0
    37e2:	0f 90       	pop	r0
    37e4:	df 91       	pop	r29
    37e6:	cf 91       	pop	r28
    37e8:	08 95       	ret

000037ea <_ZN26ReadAdaFruitLcdButtonStateD0Ev>:

ReadAdaFruitLcdButtonState::ReadAdaFruitLcdButtonState(Adafruit_RGBLCDShield *lcdShield)
	:
	m_lcdShield(lcdShield)
{}
ReadAdaFruitLcdButtonState::~ReadAdaFruitLcdButtonState()
    37ea:	cf 93       	push	r28
    37ec:	df 93       	push	r29
    37ee:	00 d0       	rcall	.+0      	; 0x37f0 <_ZN26ReadAdaFruitLcdButtonStateD0Ev+0x6>
    37f0:	cd b7       	in	r28, 0x3d	; 61
    37f2:	de b7       	in	r29, 0x3e	; 62
    37f4:	9a 83       	std	Y+2, r25	; 0x02
    37f6:	89 83       	std	Y+1, r24	; 0x01
{}
    37f8:	89 81       	ldd	r24, Y+1	; 0x01
    37fa:	9a 81       	ldd	r25, Y+2	; 0x02
    37fc:	d8 df       	rcall	.-80     	; 0x37ae <_ZN26ReadAdaFruitLcdButtonStateD1Ev>
    37fe:	89 81       	ldd	r24, Y+1	; 0x01
    3800:	9a 81       	ldd	r25, Y+2	; 0x02
    3802:	0e 94 ec 2a 	call	0x55d8	; 0x55d8 <_ZdlPv>
    3806:	0f 90       	pop	r0
    3808:	0f 90       	pop	r0
    380a:	df 91       	pop	r29
    380c:	cf 91       	pop	r28
    380e:	08 95       	ret

00003810 <_ZN26ReadAdaFruitLcdButtonState9isPressedEh>:
// ReadButtonState impl
bool ReadAdaFruitLcdButtonState::isPressed(uint8_t button)
{
    3810:	cf 93       	push	r28
    3812:	df 93       	push	r29
    3814:	00 d0       	rcall	.+0      	; 0x3816 <_ZN26ReadAdaFruitLcdButtonState9isPressedEh+0x6>
    3816:	1f 92       	push	r1
    3818:	cd b7       	in	r28, 0x3d	; 61
    381a:	de b7       	in	r29, 0x3e	; 62
    381c:	9a 83       	std	Y+2, r25	; 0x02
    381e:	89 83       	std	Y+1, r24	; 0x01
    3820:	6b 83       	std	Y+3, r22	; 0x03
	return 0 != (m_lcdShield->readButtons() & button);
    3822:	89 81       	ldd	r24, Y+1	; 0x01
    3824:	9a 81       	ldd	r25, Y+2	; 0x02
    3826:	fc 01       	movw	r30, r24
    3828:	82 81       	ldd	r24, Z+2	; 0x02
    382a:	93 81       	ldd	r25, Z+3	; 0x03
    382c:	0e 94 ad 09 	call	0x135a	; 0x135a <_ZN21Adafruit_RGBLCDShield11readButtonsEv>
    3830:	98 2f       	mov	r25, r24
    3832:	8b 81       	ldd	r24, Y+3	; 0x03
    3834:	98 23       	and	r25, r24
    3836:	81 e0       	ldi	r24, 0x01	; 1
    3838:	99 23       	and	r25, r25
    383a:	09 f4       	brne	.+2      	; 0x383e <_ZN26ReadAdaFruitLcdButtonState9isPressedEh+0x2e>
    383c:	80 e0       	ldi	r24, 0x00	; 0
}
    383e:	0f 90       	pop	r0
    3840:	0f 90       	pop	r0
    3842:	0f 90       	pop	r0
    3844:	df 91       	pop	r29
    3846:	cf 91       	pop	r28
    3848:	08 95       	ret

0000384a <_ZN26ReadAdaFruitLcdButtonState10setPinModeEhh>:
void ReadAdaFruitLcdButtonState::setPinMode(uint8_t button, uint8_t mode)
{
    384a:	cf 93       	push	r28
    384c:	df 93       	push	r29
    384e:	00 d0       	rcall	.+0      	; 0x3850 <_ZN26ReadAdaFruitLcdButtonState10setPinModeEhh+0x6>
    3850:	00 d0       	rcall	.+0      	; 0x3852 <_ZN26ReadAdaFruitLcdButtonState10setPinModeEhh+0x8>
    3852:	cd b7       	in	r28, 0x3d	; 61
    3854:	de b7       	in	r29, 0x3e	; 62
    3856:	9a 83       	std	Y+2, r25	; 0x02
    3858:	89 83       	std	Y+1, r24	; 0x01
    385a:	6b 83       	std	Y+3, r22	; 0x03
    385c:	4c 83       	std	Y+4, r20	; 0x04
	// nothing todo, the shield library handles this.
    385e:	0f 90       	pop	r0
    3860:	0f 90       	pop	r0
    3862:	0f 90       	pop	r0
    3864:	0f 90       	pop	r0
    3866:	df 91       	pop	r29
    3868:	cf 91       	pop	r28
    386a:	08 95       	ret

0000386c <_ZN20RunFocusStackHandlerC1EP11MessagePump>:

#define FrameNumberPos 4
#define StatusPos 8
#define DelayPos 6

RunFocusStackHandler::RunFocusStackHandler(MessagePump *_pump)
    386c:	cf 93       	push	r28
    386e:	df 93       	push	r29
    3870:	00 d0       	rcall	.+0      	; 0x3872 <_ZN20RunFocusStackHandlerC1EP11MessagePump+0x6>
    3872:	00 d0       	rcall	.+0      	; 0x3874 <_ZN20RunFocusStackHandlerC1EP11MessagePump+0x8>
    3874:	cd b7       	in	r28, 0x3d	; 61
    3876:	de b7       	in	r29, 0x3e	; 62
    3878:	9a 83       	std	Y+2, r25	; 0x02
    387a:	89 83       	std	Y+1, r24	; 0x01
    387c:	7c 83       	std	Y+4, r23	; 0x04
    387e:	6b 83       	std	Y+3, r22	; 0x03
    :
    IMessageHandler(_pump)
    3880:	89 81       	ldd	r24, Y+1	; 0x01
    3882:	9a 81       	ldd	r25, Y+2	; 0x02
    3884:	2b 81       	ldd	r18, Y+3	; 0x03
    3886:	3c 81       	ldd	r19, Y+4	; 0x04
    3888:	b9 01       	movw	r22, r18
    388a:	0e 94 f5 10 	call	0x21ea	; 0x21ea <_ZN15IMessageHandlerC1EP11MessagePump>
    388e:	89 81       	ldd	r24, Y+1	; 0x01
    3890:	9a 81       	ldd	r25, Y+2	; 0x02
    3892:	20 ef       	ldi	r18, 0xF0	; 240
    3894:	31 e0       	ldi	r19, 0x01	; 1
    3896:	fc 01       	movw	r30, r24
    3898:	31 83       	std	Z+1, r19	; 0x01
    389a:	20 83       	st	Z, r18
{
    menu[0] = "Frm";
    389c:	89 81       	ldd	r24, Y+1	; 0x01
    389e:	9a 81       	ldd	r25, Y+2	; 0x02
    38a0:	2f e3       	ldi	r18, 0x3F	; 63
    38a2:	31 e0       	ldi	r19, 0x01	; 1
    38a4:	fc 01       	movw	r30, r24
    38a6:	35 83       	std	Z+5, r19	; 0x05
    38a8:	24 83       	std	Z+4, r18	; 0x04
	menu[1] = NULL;
    38aa:	89 81       	ldd	r24, Y+1	; 0x01
    38ac:	9a 81       	ldd	r25, Y+2	; 0x02
    38ae:	fc 01       	movw	r30, r24
    38b0:	17 82       	std	Z+7, r1	; 0x07
    38b2:	16 82       	std	Z+6, r1	; 0x06
}
    38b4:	0f 90       	pop	r0
    38b6:	0f 90       	pop	r0
    38b8:	0f 90       	pop	r0
    38ba:	0f 90       	pop	r0
    38bc:	df 91       	pop	r29
    38be:	cf 91       	pop	r28
    38c0:	08 95       	ret

000038c2 <_ZN20RunFocusStackHandlerD1Ev>:

RunFocusStackHandler::~RunFocusStackHandler()
    38c2:	cf 93       	push	r28
    38c4:	df 93       	push	r29
    38c6:	00 d0       	rcall	.+0      	; 0x38c8 <_ZN20RunFocusStackHandlerD1Ev+0x6>
    38c8:	cd b7       	in	r28, 0x3d	; 61
    38ca:	de b7       	in	r29, 0x3e	; 62
    38cc:	9a 83       	std	Y+2, r25	; 0x02
    38ce:	89 83       	std	Y+1, r24	; 0x01
    38d0:	89 81       	ldd	r24, Y+1	; 0x01
    38d2:	9a 81       	ldd	r25, Y+2	; 0x02
    38d4:	20 ef       	ldi	r18, 0xF0	; 240
    38d6:	31 e0       	ldi	r19, 0x01	; 1
    38d8:	fc 01       	movw	r30, r24
    38da:	31 83       	std	Z+1, r19	; 0x01
    38dc:	20 83       	st	Z, r18
{
}
    38de:	0f 90       	pop	r0
    38e0:	0f 90       	pop	r0
    38e2:	df 91       	pop	r29
    38e4:	cf 91       	pop	r28
    38e6:	08 95       	ret

000038e8 <_ZN20RunFocusStackHandler14processMessageER3Msg>:

MsgResp RunFocusStackHandler::processMessage(Msg& msg)
{
    38e8:	cf 93       	push	r28
    38ea:	df 93       	push	r29
    38ec:	00 d0       	rcall	.+0      	; 0x38ee <_ZN20RunFocusStackHandler14processMessageER3Msg+0x6>
    38ee:	00 d0       	rcall	.+0      	; 0x38f0 <_ZN20RunFocusStackHandler14processMessageER3Msg+0x8>
    38f0:	1f 92       	push	r1
    38f2:	cd b7       	in	r28, 0x3d	; 61
    38f4:	de b7       	in	r29, 0x3e	; 62
    38f6:	9b 83       	std	Y+3, r25	; 0x03
    38f8:	8a 83       	std	Y+2, r24	; 0x02
    38fa:	7d 83       	std	Y+5, r23	; 0x05
    38fc:	6c 83       	std	Y+4, r22	; 0x04
    MsgResp rsp = eFail;
    38fe:	81 e0       	ldi	r24, 0x01	; 1
    3900:	89 83       	std	Y+1, r24	; 0x01
    if(eButtonActionPress == msg.m_type)
    3902:	8c 81       	ldd	r24, Y+4	; 0x04
    3904:	9d 81       	ldd	r25, Y+5	; 0x05
    3906:	fc 01       	movw	r30, r24
    3908:	80 81       	ld	r24, Z
    390a:	91 81       	ldd	r25, Z+1	; 0x01
    390c:	00 97       	sbiw	r24, 0x00	; 0
    390e:	69 f4       	brne	.+26     	; 0x392a <_ZN20RunFocusStackHandler14processMessageER3Msg+0x42>
    {
        nk3.cancelFocusStack();
    3910:	81 e2       	ldi	r24, 0x21	; 33
    3912:	93 e0       	ldi	r25, 0x03	; 3
    3914:	10 dd       	rcall	.-1504   	; 0x3336 <_ZN10NikType00316cancelFocusStackEv>
        msg.m_nextHandler = g_pMain;
    3916:	20 91 00 01 	lds	r18, 0x0100
    391a:	30 91 01 01 	lds	r19, 0x0101
    391e:	8c 81       	ldd	r24, Y+4	; 0x04
    3920:	9d 81       	ldd	r25, Y+5	; 0x05
    3922:	fc 01       	movw	r30, r24
    3924:	34 83       	std	Z+4, r19	; 0x04
    3926:	23 83       	std	Z+3, r18	; 0x03
        rsp = eSuccess;
    3928:	19 82       	std	Y+1, r1	; 0x01
    }
    return rsp;
    392a:	89 81       	ldd	r24, Y+1	; 0x01
}
    392c:	0f 90       	pop	r0
    392e:	0f 90       	pop	r0
    3930:	0f 90       	pop	r0
    3932:	0f 90       	pop	r0
    3934:	0f 90       	pop	r0
    3936:	df 91       	pop	r29
    3938:	cf 91       	pop	r28
    393a:	08 95       	ret

0000393c <_ZN20RunFocusStackHandler4showEv>:
void RunFocusStackHandler::show()
{
    393c:	cf 93       	push	r28
    393e:	df 93       	push	r29
    3940:	00 d0       	rcall	.+0      	; 0x3942 <_ZN20RunFocusStackHandler4showEv+0x6>
    3942:	cd b7       	in	r28, 0x3d	; 61
    3944:	de b7       	in	r29, 0x3e	; 62
    3946:	9a 83       	std	Y+2, r25	; 0x02
    3948:	89 83       	std	Y+1, r24	; 0x01
	g_print->clear();
    394a:	80 91 0a 01 	lds	r24, 0x010A
    394e:	90 91 0b 01 	lds	r25, 0x010B
    3952:	0e 94 80 06 	call	0xd00	; 0xd00 <_ZN21Adafruit_RGBLCDShield5clearEv>
	g_print->setCursor(0, 0);
    3956:	80 91 0a 01 	lds	r24, 0x010A
    395a:	90 91 0b 01 	lds	r25, 0x010B
    395e:	40 e0       	ldi	r20, 0x00	; 0
    3960:	60 e0       	ldi	r22, 0x00	; 0
    3962:	0e 94 94 06 	call	0xd28	; 0xd28 <_ZN21Adafruit_RGBLCDShield9setCursorEhh>
	g_print->print(menu[0]);
    3966:	89 81       	ldd	r24, Y+1	; 0x01
    3968:	9a 81       	ldd	r25, Y+2	; 0x02
    396a:	fc 01       	movw	r30, r24
    396c:	24 81       	ldd	r18, Z+4	; 0x04
    396e:	35 81       	ldd	r19, Z+5	; 0x05
    3970:	80 91 0a 01 	lds	r24, 0x010A
    3974:	90 91 0b 01 	lds	r25, 0x010B
    3978:	b9 01       	movw	r22, r18
    397a:	0e 94 4d 2b 	call	0x569a	; 0x569a <_ZN5Print5printEPKc>
	nk3.startFocusStack();
    397e:	81 e2       	ldi	r24, 0x21	; 33
    3980:	93 e0       	ldi	r25, 0x03	; 3
    3982:	12 db       	rcall	.-2524   	; 0x2fa8 <_ZN10NikType00315startFocusStackEv>
}
    3984:	0f 90       	pop	r0
    3986:	0f 90       	pop	r0
    3988:	df 91       	pop	r29
    398a:	cf 91       	pop	r28
    398c:	08 95       	ret

0000398e <_ZN20RunFocusStackHandler12reportStatusEPK19__FlashStringHelper>:
void RunFocusStackHandler::reportStatus(const __FlashStringHelper* msg)
{
    398e:	cf 93       	push	r28
    3990:	df 93       	push	r29
    3992:	00 d0       	rcall	.+0      	; 0x3994 <_ZN20RunFocusStackHandler12reportStatusEPK19__FlashStringHelper+0x6>
    3994:	00 d0       	rcall	.+0      	; 0x3996 <_ZN20RunFocusStackHandler12reportStatusEPK19__FlashStringHelper+0x8>
    3996:	cd b7       	in	r28, 0x3d	; 61
    3998:	de b7       	in	r29, 0x3e	; 62
    399a:	9a 83       	std	Y+2, r25	; 0x02
    399c:	89 83       	std	Y+1, r24	; 0x01
    399e:	7c 83       	std	Y+4, r23	; 0x04
    39a0:	6b 83       	std	Y+3, r22	; 0x03
	g_print->setCursor(StatusPos, 0);
    39a2:	80 91 0a 01 	lds	r24, 0x010A
    39a6:	90 91 0b 01 	lds	r25, 0x010B
    39aa:	40 e0       	ldi	r20, 0x00	; 0
    39ac:	68 e0       	ldi	r22, 0x08	; 8
    39ae:	0e 94 94 06 	call	0xd28	; 0xd28 <_ZN21Adafruit_RGBLCDShield9setCursorEhh>
	g_print->print(F("       "));
    39b2:	2e ea       	ldi	r18, 0xAE	; 174
    39b4:	32 e0       	ldi	r19, 0x02	; 2
    39b6:	80 91 0a 01 	lds	r24, 0x010A
    39ba:	90 91 0b 01 	lds	r25, 0x010B
    39be:	b9 01       	movw	r22, r18
    39c0:	0e 94 2c 2b 	call	0x5658	; 0x5658 <_ZN5Print5printEPK19__FlashStringHelper>
	g_print->setCursor(StatusPos, 0);
    39c4:	80 91 0a 01 	lds	r24, 0x010A
    39c8:	90 91 0b 01 	lds	r25, 0x010B
    39cc:	40 e0       	ldi	r20, 0x00	; 0
    39ce:	68 e0       	ldi	r22, 0x08	; 8
    39d0:	0e 94 94 06 	call	0xd28	; 0xd28 <_ZN21Adafruit_RGBLCDShield9setCursorEhh>
	g_print->print(msg);
    39d4:	80 91 0a 01 	lds	r24, 0x010A
    39d8:	90 91 0b 01 	lds	r25, 0x010B
    39dc:	2b 81       	ldd	r18, Y+3	; 0x03
    39de:	3c 81       	ldd	r19, Y+4	; 0x04
    39e0:	b9 01       	movw	r22, r18
    39e2:	0e 94 2c 2b 	call	0x5658	; 0x5658 <_ZN5Print5printEPK19__FlashStringHelper>
}
    39e6:	0f 90       	pop	r0
    39e8:	0f 90       	pop	r0
    39ea:	0f 90       	pop	r0
    39ec:	0f 90       	pop	r0
    39ee:	df 91       	pop	r29
    39f0:	cf 91       	pop	r28
    39f2:	08 95       	ret

000039f4 <_ZN20RunFocusStackHandler11reportFrameEj>:
void RunFocusStackHandler::reportFrame(uint16_t frame)
{
    39f4:	cf 93       	push	r28
    39f6:	df 93       	push	r29
    39f8:	00 d0       	rcall	.+0      	; 0x39fa <_ZN20RunFocusStackHandler11reportFrameEj+0x6>
    39fa:	00 d0       	rcall	.+0      	; 0x39fc <_ZN20RunFocusStackHandler11reportFrameEj+0x8>
    39fc:	cd b7       	in	r28, 0x3d	; 61
    39fe:	de b7       	in	r29, 0x3e	; 62
    3a00:	9a 83       	std	Y+2, r25	; 0x02
    3a02:	89 83       	std	Y+1, r24	; 0x01
    3a04:	7c 83       	std	Y+4, r23	; 0x04
    3a06:	6b 83       	std	Y+3, r22	; 0x03
	g_print->setCursor(FrameNumberPos, 0);
    3a08:	80 91 0a 01 	lds	r24, 0x010A
    3a0c:	90 91 0b 01 	lds	r25, 0x010B
    3a10:	40 e0       	ldi	r20, 0x00	; 0
    3a12:	64 e0       	ldi	r22, 0x04	; 4
    3a14:	0e 94 94 06 	call	0xd28	; 0xd28 <_ZN21Adafruit_RGBLCDShield9setCursorEhh>
	g_print->print(F("    "));
    3a18:	26 eb       	ldi	r18, 0xB6	; 182
    3a1a:	32 e0       	ldi	r19, 0x02	; 2
    3a1c:	80 91 0a 01 	lds	r24, 0x010A
    3a20:	90 91 0b 01 	lds	r25, 0x010B
    3a24:	b9 01       	movw	r22, r18
    3a26:	0e 94 2c 2b 	call	0x5658	; 0x5658 <_ZN5Print5printEPK19__FlashStringHelper>
	g_print->setCursor(FrameNumberPos, 0);
    3a2a:	80 91 0a 01 	lds	r24, 0x010A
    3a2e:	90 91 0b 01 	lds	r25, 0x010B
    3a32:	40 e0       	ldi	r20, 0x00	; 0
    3a34:	64 e0       	ldi	r22, 0x04	; 4
    3a36:	0e 94 94 06 	call	0xd28	; 0xd28 <_ZN21Adafruit_RGBLCDShield9setCursorEhh>
	g_print->print(frame);
    3a3a:	80 91 0a 01 	lds	r24, 0x010A
    3a3e:	90 91 0b 01 	lds	r25, 0x010B
    3a42:	2b 81       	ldd	r18, Y+3	; 0x03
    3a44:	3c 81       	ldd	r19, Y+4	; 0x04
    3a46:	4a e0       	ldi	r20, 0x0A	; 10
    3a48:	50 e0       	ldi	r21, 0x00	; 0
    3a4a:	b9 01       	movw	r22, r18
    3a4c:	0e 94 e2 2b 	call	0x57c4	; 0x57c4 <_ZN5Print5printEji>
}
    3a50:	0f 90       	pop	r0
    3a52:	0f 90       	pop	r0
    3a54:	0f 90       	pop	r0
    3a56:	0f 90       	pop	r0
    3a58:	df 91       	pop	r29
    3a5a:	cf 91       	pop	r28
    3a5c:	08 95       	ret

00003a5e <_ZN20RunFocusStackHandler11reportDelayEh>:
void RunFocusStackHandler::reportDelay(uint8_t seconds)
{
    3a5e:	cf 93       	push	r28
    3a60:	df 93       	push	r29
    3a62:	00 d0       	rcall	.+0      	; 0x3a64 <_ZN20RunFocusStackHandler11reportDelayEh+0x6>
    3a64:	1f 92       	push	r1
    3a66:	cd b7       	in	r28, 0x3d	; 61
    3a68:	de b7       	in	r29, 0x3e	; 62
    3a6a:	9a 83       	std	Y+2, r25	; 0x02
    3a6c:	89 83       	std	Y+1, r24	; 0x01
    3a6e:	6b 83       	std	Y+3, r22	; 0x03
	resetLastUpdateTime();
    3a70:	89 81       	ldd	r24, Y+1	; 0x01
    3a72:	9a 81       	ldd	r25, Y+2	; 0x02
    3a74:	5b d0       	rcall	.+182    	; 0x3b2c <_ZN20RunFocusStackHandler19resetLastUpdateTimeEv>
	g_print->setCursor(0, 1);
    3a76:	80 91 0a 01 	lds	r24, 0x010A
    3a7a:	90 91 0b 01 	lds	r25, 0x010B
    3a7e:	41 e0       	ldi	r20, 0x01	; 1
    3a80:	60 e0       	ldi	r22, 0x00	; 0
    3a82:	0e 94 94 06 	call	0xd28	; 0xd28 <_ZN21Adafruit_RGBLCDShield9setCursorEhh>
	if(seconds > 0)
    3a86:	8b 81       	ldd	r24, Y+3	; 0x03
    3a88:	88 23       	and	r24, r24
    3a8a:	61 f1       	breq	.+88     	; 0x3ae4 <_ZN20RunFocusStackHandler11reportDelayEh+0x86>
	{
		g_print->print(F("Delay"));
    3a8c:	2b eb       	ldi	r18, 0xBB	; 187
    3a8e:	32 e0       	ldi	r19, 0x02	; 2
    3a90:	80 91 0a 01 	lds	r24, 0x010A
    3a94:	90 91 0b 01 	lds	r25, 0x010B
    3a98:	b9 01       	movw	r22, r18
    3a9a:	0e 94 2c 2b 	call	0x5658	; 0x5658 <_ZN5Print5printEPK19__FlashStringHelper>
		g_print->setCursor(DelayPos, 1);
    3a9e:	80 91 0a 01 	lds	r24, 0x010A
    3aa2:	90 91 0b 01 	lds	r25, 0x010B
    3aa6:	41 e0       	ldi	r20, 0x01	; 1
    3aa8:	66 e0       	ldi	r22, 0x06	; 6
    3aaa:	0e 94 94 06 	call	0xd28	; 0xd28 <_ZN21Adafruit_RGBLCDShield9setCursorEhh>
		g_print->print(F("    "));
    3aae:	21 ec       	ldi	r18, 0xC1	; 193
    3ab0:	32 e0       	ldi	r19, 0x02	; 2
    3ab2:	80 91 0a 01 	lds	r24, 0x010A
    3ab6:	90 91 0b 01 	lds	r25, 0x010B
    3aba:	b9 01       	movw	r22, r18
    3abc:	0e 94 2c 2b 	call	0x5658	; 0x5658 <_ZN5Print5printEPK19__FlashStringHelper>
		g_print->setCursor(DelayPos, 1);
    3ac0:	80 91 0a 01 	lds	r24, 0x010A
    3ac4:	90 91 0b 01 	lds	r25, 0x010B
    3ac8:	41 e0       	ldi	r20, 0x01	; 1
    3aca:	66 e0       	ldi	r22, 0x06	; 6
    3acc:	0e 94 94 06 	call	0xd28	; 0xd28 <_ZN21Adafruit_RGBLCDShield9setCursorEhh>
		g_print->print(seconds);	
    3ad0:	80 91 0a 01 	lds	r24, 0x010A
    3ad4:	90 91 0b 01 	lds	r25, 0x010B
    3ad8:	4a e0       	ldi	r20, 0x0A	; 10
    3ada:	50 e0       	ldi	r21, 0x00	; 0
    3adc:	6b 81       	ldd	r22, Y+3	; 0x03
    3ade:	0e 94 e7 2b 	call	0x57ce	; 0x57ce <_ZN5Print5printEhi>
    3ae2:	09 c0       	rjmp	.+18     	; 0x3af6 <_ZN20RunFocusStackHandler11reportDelayEh+0x98>
	}
	else
	{
		g_print->print(F("        "));
    3ae4:	26 ec       	ldi	r18, 0xC6	; 198
    3ae6:	32 e0       	ldi	r19, 0x02	; 2
    3ae8:	80 91 0a 01 	lds	r24, 0x010A
    3aec:	90 91 0b 01 	lds	r25, 0x010B
    3af0:	b9 01       	movw	r22, r18
    3af2:	0e 94 2c 2b 	call	0x5658	; 0x5658 <_ZN5Print5printEPK19__FlashStringHelper>
	}
}
    3af6:	0f 90       	pop	r0
    3af8:	0f 90       	pop	r0
    3afa:	0f 90       	pop	r0
    3afc:	df 91       	pop	r29
    3afe:	cf 91       	pop	r28
    3b00:	08 95       	ret

00003b02 <_ZNK20RunFocusStackHandler17getLastUpdateTimeEv>:
unsigned long RunFocusStackHandler::getLastUpdateTime() const { return m_lastUpdateTime;}
    3b02:	cf 93       	push	r28
    3b04:	df 93       	push	r29
    3b06:	00 d0       	rcall	.+0      	; 0x3b08 <_ZNK20RunFocusStackHandler17getLastUpdateTimeEv+0x6>
    3b08:	cd b7       	in	r28, 0x3d	; 61
    3b0a:	de b7       	in	r29, 0x3e	; 62
    3b0c:	9a 83       	std	Y+2, r25	; 0x02
    3b0e:	89 83       	std	Y+1, r24	; 0x01
    3b10:	89 81       	ldd	r24, Y+1	; 0x01
    3b12:	9a 81       	ldd	r25, Y+2	; 0x02
    3b14:	fc 01       	movw	r30, r24
    3b16:	86 85       	ldd	r24, Z+14	; 0x0e
    3b18:	97 85       	ldd	r25, Z+15	; 0x0f
    3b1a:	a0 89       	ldd	r26, Z+16	; 0x10
    3b1c:	b1 89       	ldd	r27, Z+17	; 0x11
    3b1e:	bc 01       	movw	r22, r24
    3b20:	cd 01       	movw	r24, r26
    3b22:	0f 90       	pop	r0
    3b24:	0f 90       	pop	r0
    3b26:	df 91       	pop	r29
    3b28:	cf 91       	pop	r28
    3b2a:	08 95       	ret

00003b2c <_ZN20RunFocusStackHandler19resetLastUpdateTimeEv>:
    3b2c:	cf 93       	push	r28
    3b2e:	df 93       	push	r29
    3b30:	00 d0       	rcall	.+0      	; 0x3b32 <_ZN20RunFocusStackHandler19resetLastUpdateTimeEv+0x6>
    3b32:	cd b7       	in	r28, 0x3d	; 61
    3b34:	de b7       	in	r29, 0x3e	; 62
    3b36:	9a 83       	std	Y+2, r25	; 0x02
    3b38:	89 83       	std	Y+1, r24	; 0x01
    3b3a:	0e 94 96 2c 	call	0x592c	; 0x592c <millis>
    3b3e:	dc 01       	movw	r26, r24
    3b40:	cb 01       	movw	r24, r22
    3b42:	29 81       	ldd	r18, Y+1	; 0x01
    3b44:	3a 81       	ldd	r19, Y+2	; 0x02
    3b46:	f9 01       	movw	r30, r18
    3b48:	86 87       	std	Z+14, r24	; 0x0e
    3b4a:	97 87       	std	Z+15, r25	; 0x0f
    3b4c:	a0 8b       	std	Z+16, r26	; 0x10
    3b4e:	b1 8b       	std	Z+17, r27	; 0x11
    3b50:	0f 90       	pop	r0
    3b52:	0f 90       	pop	r0
    3b54:	df 91       	pop	r29
    3b56:	cf 91       	pop	r28
    3b58:	08 95       	ret

00003b5a <_ZN15IMessageHandler11setCaretColEh>:
    // Moves the caret row location.
    void setCaretCol(unsigned char col) { m_caretCol = col;}
    3b5a:	cf 93       	push	r28
    3b5c:	df 93       	push	r29
    3b5e:	00 d0       	rcall	.+0      	; 0x3b60 <_ZN15IMessageHandler11setCaretColEh+0x6>
    3b60:	1f 92       	push	r1
    3b62:	cd b7       	in	r28, 0x3d	; 61
    3b64:	de b7       	in	r29, 0x3e	; 62
    3b66:	9a 83       	std	Y+2, r25	; 0x02
    3b68:	89 83       	std	Y+1, r24	; 0x01
    3b6a:	6b 83       	std	Y+3, r22	; 0x03
    3b6c:	89 81       	ldd	r24, Y+1	; 0x01
    3b6e:	9a 81       	ldd	r25, Y+2	; 0x02
    3b70:	2b 81       	ldd	r18, Y+3	; 0x03
    3b72:	fc 01       	movw	r30, r24
    3b74:	24 87       	std	Z+12, r18	; 0x0c
    3b76:	0f 90       	pop	r0
    3b78:	0f 90       	pop	r0
    3b7a:	0f 90       	pop	r0
    3b7c:	df 91       	pop	r29
    3b7e:	cf 91       	pop	r28
    3b80:	08 95       	ret

00003b82 <_ZN12SetupHandlerC1EP11MessagePumpmm>:
#define RestoreFocusFieldStart 13
#define RestoreFocusFieldEnd 13



SetupHandler::SetupHandler(MessagePump *_pump, uint32_t driveAmount, uint32_t frames)
    3b82:	ef 92       	push	r14
    3b84:	ff 92       	push	r15
    3b86:	0f 93       	push	r16
    3b88:	1f 93       	push	r17
    3b8a:	cf 93       	push	r28
    3b8c:	df 93       	push	r29
    3b8e:	cd b7       	in	r28, 0x3d	; 61
    3b90:	de b7       	in	r29, 0x3e	; 62
    3b92:	2c 97       	sbiw	r28, 0x0c	; 12
    3b94:	0f b6       	in	r0, 0x3f	; 63
    3b96:	f8 94       	cli
    3b98:	de bf       	out	0x3e, r29	; 62
    3b9a:	0f be       	out	0x3f, r0	; 63
    3b9c:	cd bf       	out	0x3d, r28	; 61
    3b9e:	9a 83       	std	Y+2, r25	; 0x02
    3ba0:	89 83       	std	Y+1, r24	; 0x01
    3ba2:	7c 83       	std	Y+4, r23	; 0x04
    3ba4:	6b 83       	std	Y+3, r22	; 0x03
    3ba6:	2d 83       	std	Y+5, r18	; 0x05
    3ba8:	3e 83       	std	Y+6, r19	; 0x06
    3baa:	4f 83       	std	Y+7, r20	; 0x07
    3bac:	58 87       	std	Y+8, r21	; 0x08
    3bae:	e9 86       	std	Y+9, r14	; 0x09
    3bb0:	fa 86       	std	Y+10, r15	; 0x0a
    3bb2:	0b 87       	std	Y+11, r16	; 0x0b
    3bb4:	1c 87       	std	Y+12, r17	; 0x0c
    :
    IMessageHandler(_pump),
    m_driveAmount(driveAmount),
    m_numFrames(frames),
	m_frameDelaySeconds(0),
	m_restoreFocus(false)
    3bb6:	89 81       	ldd	r24, Y+1	; 0x01
    3bb8:	9a 81       	ldd	r25, Y+2	; 0x02
    3bba:	2b 81       	ldd	r18, Y+3	; 0x03
    3bbc:	3c 81       	ldd	r19, Y+4	; 0x04
    3bbe:	b9 01       	movw	r22, r18
    3bc0:	0e 94 f5 10 	call	0x21ea	; 0x21ea <_ZN15IMessageHandlerC1EP11MessagePump>
    3bc4:	89 81       	ldd	r24, Y+1	; 0x01
    3bc6:	9a 81       	ldd	r25, Y+2	; 0x02
    3bc8:	28 ef       	ldi	r18, 0xF8	; 248
    3bca:	31 e0       	ldi	r19, 0x01	; 1
    3bcc:	fc 01       	movw	r30, r24
    3bce:	31 83       	std	Z+1, r19	; 0x01
    3bd0:	20 83       	st	Z, r18
    3bd2:	8d 81       	ldd	r24, Y+5	; 0x05
    3bd4:	9e 81       	ldd	r25, Y+6	; 0x06
    3bd6:	af 81       	ldd	r26, Y+7	; 0x07
    3bd8:	b8 85       	ldd	r27, Y+8	; 0x08
    3bda:	29 81       	ldd	r18, Y+1	; 0x01
    3bdc:	3a 81       	ldd	r19, Y+2	; 0x02
    3bde:	f9 01       	movw	r30, r18
    3be0:	86 87       	std	Z+14, r24	; 0x0e
    3be2:	97 87       	std	Z+15, r25	; 0x0f
    3be4:	a0 8b       	std	Z+16, r26	; 0x10
    3be6:	b1 8b       	std	Z+17, r27	; 0x11
    3be8:	89 85       	ldd	r24, Y+9	; 0x09
    3bea:	9a 85       	ldd	r25, Y+10	; 0x0a
    3bec:	ab 85       	ldd	r26, Y+11	; 0x0b
    3bee:	bc 85       	ldd	r27, Y+12	; 0x0c
    3bf0:	29 81       	ldd	r18, Y+1	; 0x01
    3bf2:	3a 81       	ldd	r19, Y+2	; 0x02
    3bf4:	f9 01       	movw	r30, r18
    3bf6:	82 8b       	std	Z+18, r24	; 0x12
    3bf8:	93 8b       	std	Z+19, r25	; 0x13
    3bfa:	a4 8b       	std	Z+20, r26	; 0x14
    3bfc:	b5 8b       	std	Z+21, r27	; 0x15
    3bfe:	89 81       	ldd	r24, Y+1	; 0x01
    3c00:	9a 81       	ldd	r25, Y+2	; 0x02
    3c02:	fc 01       	movw	r30, r24
    3c04:	16 8a       	std	Z+22, r1	; 0x16
    3c06:	17 8a       	std	Z+23, r1	; 0x17
    3c08:	10 8e       	std	Z+24, r1	; 0x18
    3c0a:	11 8e       	std	Z+25, r1	; 0x19
    3c0c:	89 81       	ldd	r24, Y+1	; 0x01
    3c0e:	9a 81       	ldd	r25, Y+2	; 0x02
    3c10:	fc 01       	movw	r30, r24
    3c12:	12 8e       	std	Z+26, r1	; 0x1a
{
    menu[0] = "Amt";
    3c14:	89 81       	ldd	r24, Y+1	; 0x01
    3c16:	9a 81       	ldd	r25, Y+2	; 0x02
    3c18:	23 e4       	ldi	r18, 0x43	; 67
    3c1a:	31 e0       	ldi	r19, 0x01	; 1
    3c1c:	fc 01       	movw	r30, r24
    3c1e:	35 83       	std	Z+5, r19	; 0x05
    3c20:	24 83       	std	Z+4, r18	; 0x04
    menu[1] = "Frm";
    3c22:	89 81       	ldd	r24, Y+1	; 0x01
    3c24:	9a 81       	ldd	r25, Y+2	; 0x02
    3c26:	27 e4       	ldi	r18, 0x47	; 71
    3c28:	31 e0       	ldi	r19, 0x01	; 1
    3c2a:	fc 01       	movw	r30, r24
    3c2c:	37 83       	std	Z+7, r19	; 0x07
    3c2e:	26 83       	std	Z+6, r18	; 0x06
	menu[2] = "Dly";
    3c30:	89 81       	ldd	r24, Y+1	; 0x01
    3c32:	9a 81       	ldd	r25, Y+2	; 0x02
    3c34:	2b e4       	ldi	r18, 0x4B	; 75
    3c36:	31 e0       	ldi	r19, 0x01	; 1
    3c38:	fc 01       	movw	r30, r24
    3c3a:	31 87       	std	Z+9, r19	; 0x09
    3c3c:	20 87       	std	Z+8, r18	; 0x08
	menu[3] = "Rst";
    3c3e:	89 81       	ldd	r24, Y+1	; 0x01
    3c40:	9a 81       	ldd	r25, Y+2	; 0x02
    3c42:	2f e4       	ldi	r18, 0x4F	; 79
    3c44:	31 e0       	ldi	r19, 0x01	; 1
    3c46:	fc 01       	movw	r30, r24
    3c48:	33 87       	std	Z+11, r19	; 0x0b
    3c4a:	22 87       	std	Z+10, r18	; 0x0a
};
    3c4c:	2c 96       	adiw	r28, 0x0c	; 12
    3c4e:	0f b6       	in	r0, 0x3f	; 63
    3c50:	f8 94       	cli
    3c52:	de bf       	out	0x3e, r29	; 62
    3c54:	0f be       	out	0x3f, r0	; 63
    3c56:	cd bf       	out	0x3d, r28	; 61
    3c58:	df 91       	pop	r29
    3c5a:	cf 91       	pop	r28
    3c5c:	1f 91       	pop	r17
    3c5e:	0f 91       	pop	r16
    3c60:	ff 90       	pop	r15
    3c62:	ef 90       	pop	r14
    3c64:	08 95       	ret

00003c66 <_ZN12SetupHandlerD1Ev>:
SetupHandler::~SetupHandler()
    3c66:	cf 93       	push	r28
    3c68:	df 93       	push	r29
    3c6a:	00 d0       	rcall	.+0      	; 0x3c6c <_ZN12SetupHandlerD1Ev+0x6>
    3c6c:	cd b7       	in	r28, 0x3d	; 61
    3c6e:	de b7       	in	r29, 0x3e	; 62
    3c70:	9a 83       	std	Y+2, r25	; 0x02
    3c72:	89 83       	std	Y+1, r24	; 0x01
    3c74:	89 81       	ldd	r24, Y+1	; 0x01
    3c76:	9a 81       	ldd	r25, Y+2	; 0x02
    3c78:	28 ef       	ldi	r18, 0xF8	; 248
    3c7a:	31 e0       	ldi	r19, 0x01	; 1
    3c7c:	fc 01       	movw	r30, r24
    3c7e:	31 83       	std	Z+1, r19	; 0x01
    3c80:	20 83       	st	Z, r18
{}
    3c82:	0f 90       	pop	r0
    3c84:	0f 90       	pop	r0
    3c86:	df 91       	pop	r29
    3c88:	cf 91       	pop	r28
    3c8a:	08 95       	ret

00003c8c <_ZN12SetupHandler12advanceCaretEh>:

void SetupHandler::advanceCaret(uint8_t dir) // -1 = left, 1 right. All other values ignored
{
    3c8c:	cf 93       	push	r28
    3c8e:	df 93       	push	r29
    3c90:	00 d0       	rcall	.+0      	; 0x3c92 <_ZN12SetupHandler12advanceCaretEh+0x6>
    3c92:	00 d0       	rcall	.+0      	; 0x3c94 <_ZN12SetupHandler12advanceCaretEh+0x8>
    3c94:	cd b7       	in	r28, 0x3d	; 61
    3c96:	de b7       	in	r29, 0x3e	; 62
    3c98:	9b 83       	std	Y+3, r25	; 0x03
    3c9a:	8a 83       	std	Y+2, r24	; 0x02
    3c9c:	6c 83       	std	Y+4, r22	; 0x04
	unsigned char caretColumn = getCaretCol();
    3c9e:	8a 81       	ldd	r24, Y+2	; 0x02
    3ca0:	9b 81       	ldd	r25, Y+3	; 0x03
    3ca2:	0e 94 03 10 	call	0x2006	; 0x2006 <_ZNK15IMessageHandler11getCaretColEv>
    3ca6:	89 83       	std	Y+1, r24	; 0x01
	Serial.print("advanceCaret dir: "); Serial.print(dir); Serial.print(" from Column: "); Serial.print(caretColumn);
    3ca8:	63 e5       	ldi	r22, 0x53	; 83
    3caa:	71 e0       	ldi	r23, 0x01	; 1
    3cac:	84 e7       	ldi	r24, 0x74	; 116
    3cae:	94 e0       	ldi	r25, 0x04	; 4
    3cb0:	0e 94 4d 2b 	call	0x569a	; 0x569a <_ZN5Print5printEPKc>
    3cb4:	4a e0       	ldi	r20, 0x0A	; 10
    3cb6:	50 e0       	ldi	r21, 0x00	; 0
    3cb8:	6c 81       	ldd	r22, Y+4	; 0x04
    3cba:	84 e7       	ldi	r24, 0x74	; 116
    3cbc:	94 e0       	ldi	r25, 0x04	; 4
    3cbe:	0e 94 e7 2b 	call	0x57ce	; 0x57ce <_ZN5Print5printEhi>
    3cc2:	66 e6       	ldi	r22, 0x66	; 102
    3cc4:	71 e0       	ldi	r23, 0x01	; 1
    3cc6:	84 e7       	ldi	r24, 0x74	; 116
    3cc8:	94 e0       	ldi	r25, 0x04	; 4
    3cca:	0e 94 4d 2b 	call	0x569a	; 0x569a <_ZN5Print5printEPKc>
    3cce:	4a e0       	ldi	r20, 0x0A	; 10
    3cd0:	50 e0       	ldi	r21, 0x00	; 0
    3cd2:	69 81       	ldd	r22, Y+1	; 0x01
    3cd4:	84 e7       	ldi	r24, 0x74	; 116
    3cd6:	94 e0       	ldi	r25, 0x04	; 4
    3cd8:	0e 94 e7 2b 	call	0x57ce	; 0x57ce <_ZN5Print5printEhi>
	if(dir == 0xff)
    3cdc:	8c 81       	ldd	r24, Y+4	; 0x04
    3cde:	8f 3f       	cpi	r24, 0xFF	; 255
    3ce0:	21 f5       	brne	.+72     	; 0x3d2a <_ZN12SetupHandler12advanceCaretEh+0x9e>
	{
		switch(caretColumn)
    3ce2:	89 81       	ldd	r24, Y+1	; 0x01
    3ce4:	88 2f       	mov	r24, r24
    3ce6:	90 e0       	ldi	r25, 0x00	; 0
    3ce8:	85 30       	cpi	r24, 0x05	; 5
    3cea:	91 05       	cpc	r25, r1
    3cec:	81 f0       	breq	.+32     	; 0x3d0e <_ZN12SetupHandler12advanceCaretEh+0x82>
    3cee:	86 30       	cpi	r24, 0x06	; 6
    3cf0:	91 05       	cpc	r25, r1
    3cf2:	1c f4       	brge	.+6      	; 0x3cfa <_ZN12SetupHandler12advanceCaretEh+0x6e>
    3cf4:	00 97       	sbiw	r24, 0x00	; 0
    3cf6:	41 f0       	breq	.+16     	; 0x3d08 <_ZN12SetupHandler12advanceCaretEh+0x7c>
    3cf8:	13 c0       	rjmp	.+38     	; 0x3d20 <_ZN12SetupHandler12advanceCaretEh+0x94>
    3cfa:	89 30       	cpi	r24, 0x09	; 9
    3cfc:	91 05       	cpc	r25, r1
    3cfe:	51 f0       	breq	.+20     	; 0x3d14 <_ZN12SetupHandler12advanceCaretEh+0x88>
    3d00:	8d 30       	cpi	r24, 0x0D	; 13
    3d02:	91 05       	cpc	r25, r1
    3d04:	51 f0       	breq	.+20     	; 0x3d1a <_ZN12SetupHandler12advanceCaretEh+0x8e>
    3d06:	0c c0       	rjmp	.+24     	; 0x3d20 <_ZN12SetupHandler12advanceCaretEh+0x94>
		{
			case AmountFieldStart:			{ caretColumn = RestoreFocusFieldEnd; break;}
    3d08:	8d e0       	ldi	r24, 0x0D	; 13
    3d0a:	89 83       	std	Y+1, r24	; 0x01
    3d0c:	0d c0       	rjmp	.+26     	; 0x3d28 <_ZN12SetupHandler12advanceCaretEh+0x9c>
			case FrameFieldStart:			{ caretColumn = AmountFieldEnd; break;}
    3d0e:	83 e0       	ldi	r24, 0x03	; 3
    3d10:	89 83       	std	Y+1, r24	; 0x01
    3d12:	0a c0       	rjmp	.+20     	; 0x3d28 <_ZN12SetupHandler12advanceCaretEh+0x9c>
			case DelayFieldStart:			{ caretColumn = FrameFieldEnd; break;}
    3d14:	87 e0       	ldi	r24, 0x07	; 7
    3d16:	89 83       	std	Y+1, r24	; 0x01
    3d18:	07 c0       	rjmp	.+14     	; 0x3d28 <_ZN12SetupHandler12advanceCaretEh+0x9c>
			case RestoreFocusFieldStart:	{ caretColumn = DelayFieldEnd; break;}
    3d1a:	8b e0       	ldi	r24, 0x0B	; 11
    3d1c:	89 83       	std	Y+1, r24	; 0x01
    3d1e:	04 c0       	rjmp	.+8      	; 0x3d28 <_ZN12SetupHandler12advanceCaretEh+0x9c>
			default:						{ --caretColumn; break;}				
    3d20:	89 81       	ldd	r24, Y+1	; 0x01
    3d22:	81 50       	subi	r24, 0x01	; 1
    3d24:	89 83       	std	Y+1, r24	; 0x01
    3d26:	00 00       	nop
    3d28:	26 c0       	rjmp	.+76     	; 0x3d76 <_ZN12SetupHandler12advanceCaretEh+0xea>
		}
	}
	else if(dir == 1)
    3d2a:	8c 81       	ldd	r24, Y+4	; 0x04
    3d2c:	81 30       	cpi	r24, 0x01	; 1
    3d2e:	19 f5       	brne	.+70     	; 0x3d76 <_ZN12SetupHandler12advanceCaretEh+0xea>
	{
		switch(caretColumn)
    3d30:	89 81       	ldd	r24, Y+1	; 0x01
    3d32:	88 2f       	mov	r24, r24
    3d34:	90 e0       	ldi	r25, 0x00	; 0
    3d36:	87 30       	cpi	r24, 0x07	; 7
    3d38:	91 05       	cpc	r25, r1
    3d3a:	89 f0       	breq	.+34     	; 0x3d5e <_ZN12SetupHandler12advanceCaretEh+0xd2>
    3d3c:	88 30       	cpi	r24, 0x08	; 8
    3d3e:	91 05       	cpc	r25, r1
    3d40:	24 f4       	brge	.+8      	; 0x3d4a <_ZN12SetupHandler12advanceCaretEh+0xbe>
    3d42:	83 30       	cpi	r24, 0x03	; 3
    3d44:	91 05       	cpc	r25, r1
    3d46:	41 f0       	breq	.+16     	; 0x3d58 <_ZN12SetupHandler12advanceCaretEh+0xcc>
    3d48:	12 c0       	rjmp	.+36     	; 0x3d6e <_ZN12SetupHandler12advanceCaretEh+0xe2>
    3d4a:	8b 30       	cpi	r24, 0x0B	; 11
    3d4c:	91 05       	cpc	r25, r1
    3d4e:	51 f0       	breq	.+20     	; 0x3d64 <_ZN12SetupHandler12advanceCaretEh+0xd8>
    3d50:	8d 30       	cpi	r24, 0x0D	; 13
    3d52:	91 05       	cpc	r25, r1
    3d54:	51 f0       	breq	.+20     	; 0x3d6a <_ZN12SetupHandler12advanceCaretEh+0xde>
    3d56:	0b c0       	rjmp	.+22     	; 0x3d6e <_ZN12SetupHandler12advanceCaretEh+0xe2>
		{
			case AmountFieldEnd:			{ caretColumn = FrameFieldStart; break;}
    3d58:	85 e0       	ldi	r24, 0x05	; 5
    3d5a:	89 83       	std	Y+1, r24	; 0x01
    3d5c:	0c c0       	rjmp	.+24     	; 0x3d76 <_ZN12SetupHandler12advanceCaretEh+0xea>
			case FrameFieldEnd:				{ caretColumn = DelayFieldStart; break;}
    3d5e:	89 e0       	ldi	r24, 0x09	; 9
    3d60:	89 83       	std	Y+1, r24	; 0x01
    3d62:	09 c0       	rjmp	.+18     	; 0x3d76 <_ZN12SetupHandler12advanceCaretEh+0xea>
			case DelayFieldEnd:				{ caretColumn = RestoreFocusFieldStart; break;}
    3d64:	8d e0       	ldi	r24, 0x0D	; 13
    3d66:	89 83       	std	Y+1, r24	; 0x01
    3d68:	06 c0       	rjmp	.+12     	; 0x3d76 <_ZN12SetupHandler12advanceCaretEh+0xea>
			case RestoreFocusFieldEnd:		{ caretColumn = AmountFieldStart; break;}
    3d6a:	19 82       	std	Y+1, r1	; 0x01
    3d6c:	04 c0       	rjmp	.+8      	; 0x3d76 <_ZN12SetupHandler12advanceCaretEh+0xea>
			default:						{ ++caretColumn; break;}
    3d6e:	89 81       	ldd	r24, Y+1	; 0x01
    3d70:	8f 5f       	subi	r24, 0xFF	; 255
    3d72:	89 83       	std	Y+1, r24	; 0x01
    3d74:	00 00       	nop
		}
	}
	moveCaret(caretColumn, 1);
    3d76:	8a 81       	ldd	r24, Y+2	; 0x02
    3d78:	9b 81       	ldd	r25, Y+3	; 0x03
    3d7a:	41 e0       	ldi	r20, 0x01	; 1
    3d7c:	69 81       	ldd	r22, Y+1	; 0x01
    3d7e:	0e 94 08 12 	call	0x2410	; 0x2410 <_ZN15IMessageHandler9moveCaretEhh>
	Serial.print(" to Column: "); Serial.print(caretColumn); Serial.println();
    3d82:	65 e7       	ldi	r22, 0x75	; 117
    3d84:	71 e0       	ldi	r23, 0x01	; 1
    3d86:	84 e7       	ldi	r24, 0x74	; 116
    3d88:	94 e0       	ldi	r25, 0x04	; 4
    3d8a:	0e 94 4d 2b 	call	0x569a	; 0x569a <_ZN5Print5printEPKc>
    3d8e:	4a e0       	ldi	r20, 0x0A	; 10
    3d90:	50 e0       	ldi	r21, 0x00	; 0
    3d92:	69 81       	ldd	r22, Y+1	; 0x01
    3d94:	84 e7       	ldi	r24, 0x74	; 116
    3d96:	94 e0       	ldi	r25, 0x04	; 4
    3d98:	0e 94 e7 2b 	call	0x57ce	; 0x57ce <_ZN5Print5printEhi>
    3d9c:	84 e7       	ldi	r24, 0x74	; 116
    3d9e:	94 e0       	ldi	r25, 0x04	; 4
    3da0:	0e 94 55 2b 	call	0x56aa	; 0x56aa <_ZN5Print7printlnEv>
}
    3da4:	0f 90       	pop	r0
    3da6:	0f 90       	pop	r0
    3da8:	0f 90       	pop	r0
    3daa:	0f 90       	pop	r0
    3dac:	df 91       	pop	r29
    3dae:	cf 91       	pop	r28
    3db0:	08 95       	ret

00003db2 <_ZN12SetupHandler14processMessageER3Msg>:

MsgResp SetupHandler::processMessage(Msg& msg)
{
    3db2:	cf 93       	push	r28
    3db4:	df 93       	push	r29
    3db6:	cd b7       	in	r28, 0x3d	; 61
    3db8:	de b7       	in	r29, 0x3e	; 62
    3dba:	6a 97       	sbiw	r28, 0x1a	; 26
    3dbc:	0f b6       	in	r0, 0x3f	; 63
    3dbe:	f8 94       	cli
    3dc0:	de bf       	out	0x3e, r29	; 62
    3dc2:	0f be       	out	0x3f, r0	; 63
    3dc4:	cd bf       	out	0x3d, r28	; 61
    3dc6:	9c 87       	std	Y+12, r25	; 0x0c
    3dc8:	8b 87       	std	Y+11, r24	; 0x0b
    3dca:	7e 87       	std	Y+14, r23	; 0x0e
    3dcc:	6d 87       	std	Y+13, r22	; 0x0d
    MsgResp rsp = eFail;
    3dce:	81 e0       	ldi	r24, 0x01	; 1
    3dd0:	89 83       	std	Y+1, r24	; 0x01
	if(eButtonActionPress != msg.m_type) return rsp;
    3dd2:	8d 85       	ldd	r24, Y+13	; 0x0d
    3dd4:	9e 85       	ldd	r25, Y+14	; 0x0e
    3dd6:	fc 01       	movw	r30, r24
    3dd8:	80 81       	ld	r24, Z
    3dda:	91 81       	ldd	r25, Z+1	; 0x01
    3ddc:	00 97       	sbiw	r24, 0x00	; 0
    3dde:	11 f0       	breq	.+4      	; 0x3de4 <_ZN12SetupHandler14processMessageER3Msg+0x32>
    3de0:	89 81       	ldd	r24, Y+1	; 0x01
    3de2:	c4 c1       	rjmp	.+904    	; 0x416c <_ZN12SetupHandler14processMessageER3Msg+0x3ba>
	// the amount up or down some parameter will be changed
	unsigned char caretColumn = getCaretCol();
    3de4:	8b 85       	ldd	r24, Y+11	; 0x0b
    3de6:	9c 85       	ldd	r25, Y+12	; 0x0c
    3de8:	0e 94 03 10 	call	0x2006	; 0x2006 <_ZNK15IMessageHandler11getCaretColEv>
    3dec:	8a 83       	std	Y+2, r24	; 0x02
	int change = 0;
    3dee:	1c 82       	std	Y+4, r1	; 0x04
    3df0:	1b 82       	std	Y+3, r1	; 0x03
    // which button?
    switch(msg.m_code)
    3df2:	8d 85       	ldd	r24, Y+13	; 0x0d
    3df4:	9e 85       	ldd	r25, Y+14	; 0x0e
    3df6:	fc 01       	movw	r30, r24
    3df8:	82 81       	ldd	r24, Z+2	; 0x02
    3dfa:	88 2f       	mov	r24, r24
    3dfc:	90 e0       	ldi	r25, 0x00	; 0
    3dfe:	82 30       	cpi	r24, 0x02	; 2
    3e00:	91 05       	cpc	r25, r1
    3e02:	09 f4       	brne	.+2      	; 0x3e06 <_ZN12SetupHandler14processMessageER3Msg+0x54>
    3e04:	95 c0       	rjmp	.+298    	; 0x3f30 <_ZN12SetupHandler14processMessageER3Msg+0x17e>
    3e06:	83 30       	cpi	r24, 0x03	; 3
    3e08:	91 05       	cpc	r25, r1
    3e0a:	44 f4       	brge	.+16     	; 0x3e1c <_ZN12SetupHandler14processMessageER3Msg+0x6a>
    3e0c:	00 97       	sbiw	r24, 0x00	; 0
    3e0e:	09 f4       	brne	.+2      	; 0x3e12 <_ZN12SetupHandler14processMessageER3Msg+0x60>
    3e10:	11 c1       	rjmp	.+546    	; 0x4034 <_ZN12SetupHandler14processMessageER3Msg+0x282>
    3e12:	81 30       	cpi	r24, 0x01	; 1
    3e14:	91 05       	cpc	r25, r1
    3e16:	09 f4       	brne	.+2      	; 0x3e1a <_ZN12SetupHandler14processMessageER3Msg+0x68>
    3e18:	12 c1       	rjmp	.+548    	; 0x403e <_ZN12SetupHandler14processMessageER3Msg+0x28c>
	            msg.m_nextHandler = g_pMain;
	            rsp = eSuccess;
            }
            break;
        } // eSelect handler
        default: break;
    3e1a:	a7 c1       	rjmp	.+846    	; 0x416a <_ZN12SetupHandler14processMessageER3Msg+0x3b8>
	if(eButtonActionPress != msg.m_type) return rsp;
	// the amount up or down some parameter will be changed
	unsigned char caretColumn = getCaretCol();
	int change = 0;
    // which button?
    switch(msg.m_code)
    3e1c:	83 30       	cpi	r24, 0x03	; 3
    3e1e:	91 05       	cpc	r25, r1
    3e20:	29 f0       	breq	.+10     	; 0x3e2c <_ZN12SetupHandler14processMessageER3Msg+0x7a>
    3e22:	84 30       	cpi	r24, 0x04	; 4
    3e24:	91 05       	cpc	r25, r1
    3e26:	09 f4       	brne	.+2      	; 0x3e2a <_ZN12SetupHandler14processMessageER3Msg+0x78>
    3e28:	0f c1       	rjmp	.+542    	; 0x4048 <_ZN12SetupHandler14processMessageER3Msg+0x296>
	            msg.m_nextHandler = g_pMain;
	            rsp = eSuccess;
            }
            break;
        } // eSelect handler
        default: break;
    3e2a:	9f c1       	rjmp	.+830    	; 0x416a <_ZN12SetupHandler14processMessageER3Msg+0x3b8>
    // which button?
    switch(msg.m_code)
    {
        case eDown:
        {
			if((caretColumn <= AmountFieldEnd) && (msg.m_type == eButtonActionPress))
    3e2c:	8a 81       	ldd	r24, Y+2	; 0x02
    3e2e:	84 30       	cpi	r24, 0x04	; 4
    3e30:	38 f5       	brcc	.+78     	; 0x3e80 <_ZN12SetupHandler14processMessageER3Msg+0xce>
    3e32:	8d 85       	ldd	r24, Y+13	; 0x0d
    3e34:	9e 85       	ldd	r25, Y+14	; 0x0e
    3e36:	fc 01       	movw	r30, r24
    3e38:	80 81       	ld	r24, Z
    3e3a:	91 81       	ldd	r25, Z+1	; 0x01
    3e3c:	00 97       	sbiw	r24, 0x00	; 0
    3e3e:	01 f5       	brne	.+64     	; 0x3e80 <_ZN12SetupHandler14processMessageER3Msg+0xce>
			{
				// change amount entry
				change = -1000; // todo: consider a power of ten == AmountFieldEnd - AmountFieldStart + 1
    3e40:	88 e1       	ldi	r24, 0x18	; 24
    3e42:	9c ef       	ldi	r25, 0xFC	; 252
    3e44:	9c 83       	std	Y+4, r25	; 0x04
    3e46:	8b 83       	std	Y+3, r24	; 0x03
				while(caretColumn-- != AmountFieldStart)
    3e48:	0a c0       	rjmp	.+20     	; 0x3e5e <_ZN12SetupHandler14processMessageER3Msg+0xac>
				{
					change /= 10;
    3e4a:	8b 81       	ldd	r24, Y+3	; 0x03
    3e4c:	9c 81       	ldd	r25, Y+4	; 0x04
    3e4e:	2a e0       	ldi	r18, 0x0A	; 10
    3e50:	30 e0       	ldi	r19, 0x00	; 0
    3e52:	b9 01       	movw	r22, r18
    3e54:	0e 94 84 3e 	call	0x7d08	; 0x7d08 <__divmodhi4>
    3e58:	cb 01       	movw	r24, r22
    3e5a:	9c 83       	std	Y+4, r25	; 0x04
    3e5c:	8b 83       	std	Y+3, r24	; 0x03
        {
			if((caretColumn <= AmountFieldEnd) && (msg.m_type == eButtonActionPress))
			{
				// change amount entry
				change = -1000; // todo: consider a power of ten == AmountFieldEnd - AmountFieldStart + 1
				while(caretColumn-- != AmountFieldStart)
    3e5e:	9a 81       	ldd	r25, Y+2	; 0x02
    3e60:	8f ef       	ldi	r24, 0xFF	; 255
    3e62:	89 0f       	add	r24, r25
    3e64:	8a 83       	std	Y+2, r24	; 0x02
    3e66:	81 e0       	ldi	r24, 0x01	; 1
    3e68:	99 23       	and	r25, r25
    3e6a:	09 f4       	brne	.+2      	; 0x3e6e <_ZN12SetupHandler14processMessageER3Msg+0xbc>
    3e6c:	80 e0       	ldi	r24, 0x00	; 0
    3e6e:	88 23       	and	r24, r24
    3e70:	61 f7       	brne	.-40     	; 0x3e4a <_ZN12SetupHandler14processMessageER3Msg+0x98>
				{
					change /= 10;
				}
				updateDriveAmountUI(change);
    3e72:	2b 81       	ldd	r18, Y+3	; 0x03
    3e74:	3c 81       	ldd	r19, Y+4	; 0x04
    3e76:	8b 85       	ldd	r24, Y+11	; 0x0b
    3e78:	9c 85       	ldd	r25, Y+12	; 0x0c
    3e7a:	b9 01       	movw	r22, r18
    3e7c:	cb d1       	rcall	.+918    	; 0x4214 <_ZN12SetupHandler19updateDriveAmountUIEi>
    3e7e:	57 c0       	rjmp	.+174    	; 0x3f2e <_ZN12SetupHandler14processMessageER3Msg+0x17c>
			}
			else if((caretColumn >= FrameFieldStart) && (caretColumn <= FrameFieldEnd))
    3e80:	8a 81       	ldd	r24, Y+2	; 0x02
    3e82:	85 30       	cpi	r24, 0x05	; 5
    3e84:	18 f1       	brcs	.+70     	; 0x3ecc <_ZN12SetupHandler14processMessageER3Msg+0x11a>
    3e86:	8a 81       	ldd	r24, Y+2	; 0x02
    3e88:	88 30       	cpi	r24, 0x08	; 8
    3e8a:	00 f5       	brcc	.+64     	; 0x3ecc <_ZN12SetupHandler14processMessageER3Msg+0x11a>
			{
				change = -100;// todo: consider a power of ten == FrameFieldEnd - FrameFieldStart + 1
    3e8c:	8c e9       	ldi	r24, 0x9C	; 156
    3e8e:	9f ef       	ldi	r25, 0xFF	; 255
    3e90:	9c 83       	std	Y+4, r25	; 0x04
    3e92:	8b 83       	std	Y+3, r24	; 0x03
				while(caretColumn-- != FrameFieldStart)
    3e94:	0a c0       	rjmp	.+20     	; 0x3eaa <_ZN12SetupHandler14processMessageER3Msg+0xf8>
				{
					change /= 10;
    3e96:	8b 81       	ldd	r24, Y+3	; 0x03
    3e98:	9c 81       	ldd	r25, Y+4	; 0x04
    3e9a:	2a e0       	ldi	r18, 0x0A	; 10
    3e9c:	30 e0       	ldi	r19, 0x00	; 0
    3e9e:	b9 01       	movw	r22, r18
    3ea0:	0e 94 84 3e 	call	0x7d08	; 0x7d08 <__divmodhi4>
    3ea4:	cb 01       	movw	r24, r22
    3ea6:	9c 83       	std	Y+4, r25	; 0x04
    3ea8:	8b 83       	std	Y+3, r24	; 0x03
				updateDriveAmountUI(change);
			}
			else if((caretColumn >= FrameFieldStart) && (caretColumn <= FrameFieldEnd))
			{
				change = -100;// todo: consider a power of ten == FrameFieldEnd - FrameFieldStart + 1
				while(caretColumn-- != FrameFieldStart)
    3eaa:	9a 81       	ldd	r25, Y+2	; 0x02
    3eac:	8f ef       	ldi	r24, 0xFF	; 255
    3eae:	89 0f       	add	r24, r25
    3eb0:	8a 83       	std	Y+2, r24	; 0x02
    3eb2:	81 e0       	ldi	r24, 0x01	; 1
    3eb4:	95 30       	cpi	r25, 0x05	; 5
    3eb6:	09 f4       	brne	.+2      	; 0x3eba <_ZN12SetupHandler14processMessageER3Msg+0x108>
    3eb8:	80 e0       	ldi	r24, 0x00	; 0
    3eba:	88 23       	and	r24, r24
    3ebc:	61 f7       	brne	.-40     	; 0x3e96 <_ZN12SetupHandler14processMessageER3Msg+0xe4>
				{
					change /= 10;
				}
				updateFramesUI(change);
    3ebe:	2b 81       	ldd	r18, Y+3	; 0x03
    3ec0:	3c 81       	ldd	r19, Y+4	; 0x04
    3ec2:	8b 85       	ldd	r24, Y+11	; 0x0b
    3ec4:	9c 85       	ldd	r25, Y+12	; 0x0c
    3ec6:	b9 01       	movw	r22, r18
    3ec8:	72 d2       	rcall	.+1252   	; 0x43ae <_ZN12SetupHandler14updateFramesUIEi>
    3eca:	31 c0       	rjmp	.+98     	; 0x3f2e <_ZN12SetupHandler14processMessageER3Msg+0x17c>
			}
			else if((caretColumn >= DelayFieldStart) && (caretColumn <= DelayFieldEnd))
    3ecc:	8a 81       	ldd	r24, Y+2	; 0x02
    3ece:	89 30       	cpi	r24, 0x09	; 9
    3ed0:	18 f1       	brcs	.+70     	; 0x3f18 <_ZN12SetupHandler14processMessageER3Msg+0x166>
    3ed2:	8a 81       	ldd	r24, Y+2	; 0x02
    3ed4:	8c 30       	cpi	r24, 0x0C	; 12
    3ed6:	00 f5       	brcc	.+64     	; 0x3f18 <_ZN12SetupHandler14processMessageER3Msg+0x166>
			{
				// todo: consider a power of ten == DelayFieldEnd - DelayFieldStart + 1
				change = -100;
    3ed8:	8c e9       	ldi	r24, 0x9C	; 156
    3eda:	9f ef       	ldi	r25, 0xFF	; 255
    3edc:	9c 83       	std	Y+4, r25	; 0x04
    3ede:	8b 83       	std	Y+3, r24	; 0x03
				while(caretColumn-- != DelayFieldStart)
    3ee0:	0a c0       	rjmp	.+20     	; 0x3ef6 <_ZN12SetupHandler14processMessageER3Msg+0x144>
				{
					change /= 10;
    3ee2:	8b 81       	ldd	r24, Y+3	; 0x03
    3ee4:	9c 81       	ldd	r25, Y+4	; 0x04
    3ee6:	2a e0       	ldi	r18, 0x0A	; 10
    3ee8:	30 e0       	ldi	r19, 0x00	; 0
    3eea:	b9 01       	movw	r22, r18
    3eec:	0e 94 84 3e 	call	0x7d08	; 0x7d08 <__divmodhi4>
    3ef0:	cb 01       	movw	r24, r22
    3ef2:	9c 83       	std	Y+4, r25	; 0x04
    3ef4:	8b 83       	std	Y+3, r24	; 0x03
			}
			else if((caretColumn >= DelayFieldStart) && (caretColumn <= DelayFieldEnd))
			{
				// todo: consider a power of ten == DelayFieldEnd - DelayFieldStart + 1
				change = -100;
				while(caretColumn-- != DelayFieldStart)
    3ef6:	9a 81       	ldd	r25, Y+2	; 0x02
    3ef8:	8f ef       	ldi	r24, 0xFF	; 255
    3efa:	89 0f       	add	r24, r25
    3efc:	8a 83       	std	Y+2, r24	; 0x02
    3efe:	81 e0       	ldi	r24, 0x01	; 1
    3f00:	99 30       	cpi	r25, 0x09	; 9
    3f02:	09 f4       	brne	.+2      	; 0x3f06 <_ZN12SetupHandler14processMessageER3Msg+0x154>
    3f04:	80 e0       	ldi	r24, 0x00	; 0
    3f06:	88 23       	and	r24, r24
    3f08:	61 f7       	brne	.-40     	; 0x3ee2 <_ZN12SetupHandler14processMessageER3Msg+0x130>
				{
					change /= 10;
				}
				updateFrameDelayUI(change);
    3f0a:	2b 81       	ldd	r18, Y+3	; 0x03
    3f0c:	3c 81       	ldd	r19, Y+4	; 0x04
    3f0e:	8b 85       	ldd	r24, Y+11	; 0x0b
    3f10:	9c 85       	ldd	r25, Y+12	; 0x0c
    3f12:	b9 01       	movw	r22, r18
    3f14:	19 d3       	rcall	.+1586   	; 0x4548 <_ZN12SetupHandler18updateFrameDelayUIEi>
    3f16:	0b c0       	rjmp	.+22     	; 0x3f2e <_ZN12SetupHandler14processMessageER3Msg+0x17c>
			}
			else if((caretColumn >= RestoreFocusFieldStart) && (caretColumn <= RestoreFocusFieldEnd))
    3f18:	8a 81       	ldd	r24, Y+2	; 0x02
    3f1a:	8d 30       	cpi	r24, 0x0D	; 13
    3f1c:	40 f0       	brcs	.+16     	; 0x3f2e <_ZN12SetupHandler14processMessageER3Msg+0x17c>
    3f1e:	8a 81       	ldd	r24, Y+2	; 0x02
    3f20:	8e 30       	cpi	r24, 0x0E	; 14
    3f22:	28 f4       	brcc	.+10     	; 0x3f2e <_ZN12SetupHandler14processMessageER3Msg+0x17c>
			{
				updateRestoreFocusUI(-1);
    3f24:	8b 85       	ldd	r24, Y+11	; 0x0b
    3f26:	9c 85       	ldd	r25, Y+12	; 0x0c
    3f28:	6f ef       	ldi	r22, 0xFF	; 255
    3f2a:	7f ef       	ldi	r23, 0xFF	; 255
    3f2c:	dd d3       	rcall	.+1978   	; 0x46e8 <_ZN12SetupHandler20updateRestoreFocusUIEi>
			}
            break;
    3f2e:	1d c1       	rjmp	.+570    	; 0x416a <_ZN12SetupHandler14processMessageER3Msg+0x3b8>
        }
        case eUp:
        {
			if((caretColumn <= AmountFieldEnd) && (msg.m_type == eButtonActionPress))
    3f30:	8a 81       	ldd	r24, Y+2	; 0x02
    3f32:	84 30       	cpi	r24, 0x04	; 4
    3f34:	38 f5       	brcc	.+78     	; 0x3f84 <_ZN12SetupHandler14processMessageER3Msg+0x1d2>
    3f36:	8d 85       	ldd	r24, Y+13	; 0x0d
    3f38:	9e 85       	ldd	r25, Y+14	; 0x0e
    3f3a:	fc 01       	movw	r30, r24
    3f3c:	80 81       	ld	r24, Z
    3f3e:	91 81       	ldd	r25, Z+1	; 0x01
    3f40:	00 97       	sbiw	r24, 0x00	; 0
    3f42:	01 f5       	brne	.+64     	; 0x3f84 <_ZN12SetupHandler14processMessageER3Msg+0x1d2>
			{
				// change amount entry
				change = 1000; // todo: consider a power of ten == AmountFieldEnd - AmountFieldStart + 1
    3f44:	88 ee       	ldi	r24, 0xE8	; 232
    3f46:	93 e0       	ldi	r25, 0x03	; 3
    3f48:	9c 83       	std	Y+4, r25	; 0x04
    3f4a:	8b 83       	std	Y+3, r24	; 0x03
				while(caretColumn-- != AmountFieldStart)
    3f4c:	0a c0       	rjmp	.+20     	; 0x3f62 <_ZN12SetupHandler14processMessageER3Msg+0x1b0>
				{
					change /= 10;
    3f4e:	8b 81       	ldd	r24, Y+3	; 0x03
    3f50:	9c 81       	ldd	r25, Y+4	; 0x04
    3f52:	2a e0       	ldi	r18, 0x0A	; 10
    3f54:	30 e0       	ldi	r19, 0x00	; 0
    3f56:	b9 01       	movw	r22, r18
    3f58:	0e 94 84 3e 	call	0x7d08	; 0x7d08 <__divmodhi4>
    3f5c:	cb 01       	movw	r24, r22
    3f5e:	9c 83       	std	Y+4, r25	; 0x04
    3f60:	8b 83       	std	Y+3, r24	; 0x03
        {
			if((caretColumn <= AmountFieldEnd) && (msg.m_type == eButtonActionPress))
			{
				// change amount entry
				change = 1000; // todo: consider a power of ten == AmountFieldEnd - AmountFieldStart + 1
				while(caretColumn-- != AmountFieldStart)
    3f62:	9a 81       	ldd	r25, Y+2	; 0x02
    3f64:	8f ef       	ldi	r24, 0xFF	; 255
    3f66:	89 0f       	add	r24, r25
    3f68:	8a 83       	std	Y+2, r24	; 0x02
    3f6a:	81 e0       	ldi	r24, 0x01	; 1
    3f6c:	99 23       	and	r25, r25
    3f6e:	09 f4       	brne	.+2      	; 0x3f72 <_ZN12SetupHandler14processMessageER3Msg+0x1c0>
    3f70:	80 e0       	ldi	r24, 0x00	; 0
    3f72:	88 23       	and	r24, r24
    3f74:	61 f7       	brne	.-40     	; 0x3f4e <_ZN12SetupHandler14processMessageER3Msg+0x19c>
				{
					change /= 10;
				}
				updateDriveAmountUI(change);
    3f76:	2b 81       	ldd	r18, Y+3	; 0x03
    3f78:	3c 81       	ldd	r19, Y+4	; 0x04
    3f7a:	8b 85       	ldd	r24, Y+11	; 0x0b
    3f7c:	9c 85       	ldd	r25, Y+12	; 0x0c
    3f7e:	b9 01       	movw	r22, r18
    3f80:	49 d1       	rcall	.+658    	; 0x4214 <_ZN12SetupHandler19updateDriveAmountUIEi>
    3f82:	57 c0       	rjmp	.+174    	; 0x4032 <_ZN12SetupHandler14processMessageER3Msg+0x280>
			}
			else if((caretColumn >= FrameFieldStart) && (caretColumn <= FrameFieldEnd))
    3f84:	8a 81       	ldd	r24, Y+2	; 0x02
    3f86:	85 30       	cpi	r24, 0x05	; 5
    3f88:	18 f1       	brcs	.+70     	; 0x3fd0 <_ZN12SetupHandler14processMessageER3Msg+0x21e>
    3f8a:	8a 81       	ldd	r24, Y+2	; 0x02
    3f8c:	88 30       	cpi	r24, 0x08	; 8
    3f8e:	00 f5       	brcc	.+64     	; 0x3fd0 <_ZN12SetupHandler14processMessageER3Msg+0x21e>
			{
				change = 100;// todo: consider a power of ten == FrameFieldEnd - FrameFieldStart + 1
    3f90:	84 e6       	ldi	r24, 0x64	; 100
    3f92:	90 e0       	ldi	r25, 0x00	; 0
    3f94:	9c 83       	std	Y+4, r25	; 0x04
    3f96:	8b 83       	std	Y+3, r24	; 0x03
				while(caretColumn-- != FrameFieldStart)
    3f98:	0a c0       	rjmp	.+20     	; 0x3fae <_ZN12SetupHandler14processMessageER3Msg+0x1fc>
				{
					change /= 10;
    3f9a:	8b 81       	ldd	r24, Y+3	; 0x03
    3f9c:	9c 81       	ldd	r25, Y+4	; 0x04
    3f9e:	2a e0       	ldi	r18, 0x0A	; 10
    3fa0:	30 e0       	ldi	r19, 0x00	; 0
    3fa2:	b9 01       	movw	r22, r18
    3fa4:	0e 94 84 3e 	call	0x7d08	; 0x7d08 <__divmodhi4>
    3fa8:	cb 01       	movw	r24, r22
    3faa:	9c 83       	std	Y+4, r25	; 0x04
    3fac:	8b 83       	std	Y+3, r24	; 0x03
				updateDriveAmountUI(change);
			}
			else if((caretColumn >= FrameFieldStart) && (caretColumn <= FrameFieldEnd))
			{
				change = 100;// todo: consider a power of ten == FrameFieldEnd - FrameFieldStart + 1
				while(caretColumn-- != FrameFieldStart)
    3fae:	9a 81       	ldd	r25, Y+2	; 0x02
    3fb0:	8f ef       	ldi	r24, 0xFF	; 255
    3fb2:	89 0f       	add	r24, r25
    3fb4:	8a 83       	std	Y+2, r24	; 0x02
    3fb6:	81 e0       	ldi	r24, 0x01	; 1
    3fb8:	95 30       	cpi	r25, 0x05	; 5
    3fba:	09 f4       	brne	.+2      	; 0x3fbe <_ZN12SetupHandler14processMessageER3Msg+0x20c>
    3fbc:	80 e0       	ldi	r24, 0x00	; 0
    3fbe:	88 23       	and	r24, r24
    3fc0:	61 f7       	brne	.-40     	; 0x3f9a <_ZN12SetupHandler14processMessageER3Msg+0x1e8>
				{
					change /= 10;
				}
				updateFramesUI(change);
    3fc2:	2b 81       	ldd	r18, Y+3	; 0x03
    3fc4:	3c 81       	ldd	r19, Y+4	; 0x04
    3fc6:	8b 85       	ldd	r24, Y+11	; 0x0b
    3fc8:	9c 85       	ldd	r25, Y+12	; 0x0c
    3fca:	b9 01       	movw	r22, r18
    3fcc:	f0 d1       	rcall	.+992    	; 0x43ae <_ZN12SetupHandler14updateFramesUIEi>
    3fce:	31 c0       	rjmp	.+98     	; 0x4032 <_ZN12SetupHandler14processMessageER3Msg+0x280>
			}
			else if((caretColumn >= DelayFieldStart) && (caretColumn <= DelayFieldEnd))
    3fd0:	8a 81       	ldd	r24, Y+2	; 0x02
    3fd2:	89 30       	cpi	r24, 0x09	; 9
    3fd4:	18 f1       	brcs	.+70     	; 0x401c <_ZN12SetupHandler14processMessageER3Msg+0x26a>
    3fd6:	8a 81       	ldd	r24, Y+2	; 0x02
    3fd8:	8c 30       	cpi	r24, 0x0C	; 12
    3fda:	00 f5       	brcc	.+64     	; 0x401c <_ZN12SetupHandler14processMessageER3Msg+0x26a>
			{
				// todo: consider a power of ten == DelayFieldEnd - DelayFieldStart + 1
				change = 100;
    3fdc:	84 e6       	ldi	r24, 0x64	; 100
    3fde:	90 e0       	ldi	r25, 0x00	; 0
    3fe0:	9c 83       	std	Y+4, r25	; 0x04
    3fe2:	8b 83       	std	Y+3, r24	; 0x03
				while(caretColumn-- != DelayFieldStart)
    3fe4:	0a c0       	rjmp	.+20     	; 0x3ffa <_ZN12SetupHandler14processMessageER3Msg+0x248>
				{
					change /= 10;
    3fe6:	8b 81       	ldd	r24, Y+3	; 0x03
    3fe8:	9c 81       	ldd	r25, Y+4	; 0x04
    3fea:	2a e0       	ldi	r18, 0x0A	; 10
    3fec:	30 e0       	ldi	r19, 0x00	; 0
    3fee:	b9 01       	movw	r22, r18
    3ff0:	0e 94 84 3e 	call	0x7d08	; 0x7d08 <__divmodhi4>
    3ff4:	cb 01       	movw	r24, r22
    3ff6:	9c 83       	std	Y+4, r25	; 0x04
    3ff8:	8b 83       	std	Y+3, r24	; 0x03
			}
			else if((caretColumn >= DelayFieldStart) && (caretColumn <= DelayFieldEnd))
			{
				// todo: consider a power of ten == DelayFieldEnd - DelayFieldStart + 1
				change = 100;
				while(caretColumn-- != DelayFieldStart)
    3ffa:	9a 81       	ldd	r25, Y+2	; 0x02
    3ffc:	8f ef       	ldi	r24, 0xFF	; 255
    3ffe:	89 0f       	add	r24, r25
    4000:	8a 83       	std	Y+2, r24	; 0x02
    4002:	81 e0       	ldi	r24, 0x01	; 1
    4004:	99 30       	cpi	r25, 0x09	; 9
    4006:	09 f4       	brne	.+2      	; 0x400a <_ZN12SetupHandler14processMessageER3Msg+0x258>
    4008:	80 e0       	ldi	r24, 0x00	; 0
    400a:	88 23       	and	r24, r24
    400c:	61 f7       	brne	.-40     	; 0x3fe6 <_ZN12SetupHandler14processMessageER3Msg+0x234>
				{
					change /= 10;
				}
				updateFrameDelayUI(change);
    400e:	2b 81       	ldd	r18, Y+3	; 0x03
    4010:	3c 81       	ldd	r19, Y+4	; 0x04
    4012:	8b 85       	ldd	r24, Y+11	; 0x0b
    4014:	9c 85       	ldd	r25, Y+12	; 0x0c
    4016:	b9 01       	movw	r22, r18
    4018:	97 d2       	rcall	.+1326   	; 0x4548 <_ZN12SetupHandler18updateFrameDelayUIEi>
    401a:	0b c0       	rjmp	.+22     	; 0x4032 <_ZN12SetupHandler14processMessageER3Msg+0x280>
			}
			else if((caretColumn >= RestoreFocusFieldStart) && (caretColumn <= RestoreFocusFieldEnd))
    401c:	8a 81       	ldd	r24, Y+2	; 0x02
    401e:	8d 30       	cpi	r24, 0x0D	; 13
    4020:	40 f0       	brcs	.+16     	; 0x4032 <_ZN12SetupHandler14processMessageER3Msg+0x280>
    4022:	8a 81       	ldd	r24, Y+2	; 0x02
    4024:	8e 30       	cpi	r24, 0x0E	; 14
    4026:	28 f4       	brcc	.+10     	; 0x4032 <_ZN12SetupHandler14processMessageER3Msg+0x280>
			{
				updateRestoreFocusUI(1);
    4028:	8b 85       	ldd	r24, Y+11	; 0x0b
    402a:	9c 85       	ldd	r25, Y+12	; 0x0c
    402c:	61 e0       	ldi	r22, 0x01	; 1
    402e:	70 e0       	ldi	r23, 0x00	; 0
    4030:	5b d3       	rcall	.+1718   	; 0x46e8 <_ZN12SetupHandler20updateRestoreFocusUIEi>
			}
			break;
    4032:	9b c0       	rjmp	.+310    	; 0x416a <_ZN12SetupHandler14processMessageER3Msg+0x3b8>
		}
        case eLeft:
        {
			advanceCaret(-1);
    4034:	8b 85       	ldd	r24, Y+11	; 0x0b
    4036:	9c 85       	ldd	r25, Y+12	; 0x0c
    4038:	6f ef       	ldi	r22, 0xFF	; 255
    403a:	28 de       	rcall	.-944    	; 0x3c8c <_ZN12SetupHandler12advanceCaretEh>
			break; 
    403c:	96 c0       	rjmp	.+300    	; 0x416a <_ZN12SetupHandler14processMessageER3Msg+0x3b8>
		
        }
        case eRight:
        {
            advanceCaret(1);
    403e:	8b 85       	ldd	r24, Y+11	; 0x0b
    4040:	9c 85       	ldd	r25, Y+12	; 0x0c
    4042:	61 e0       	ldi	r22, 0x01	; 1
    4044:	23 de       	rcall	.-954    	; 0x3c8c <_ZN12SetupHandler12advanceCaretEh>
			break;
    4046:	91 c0       	rjmp	.+290    	; 0x416a <_ZN12SetupHandler14processMessageER3Msg+0x3b8>
        }
        case eSelect:
        {
            if(eButtonActionPress == msg.m_type)
    4048:	8d 85       	ldd	r24, Y+13	; 0x0d
    404a:	9e 85       	ldd	r25, Y+14	; 0x0e
    404c:	fc 01       	movw	r30, r24
    404e:	80 81       	ld	r24, Z
    4050:	91 81       	ldd	r25, Z+1	; 0x01
    4052:	00 97       	sbiw	r24, 0x00	; 0
    4054:	09 f0       	breq	.+2      	; 0x4058 <_ZN12SetupHandler14processMessageER3Msg+0x2a6>
    4056:	88 c0       	rjmp	.+272    	; 0x4168 <_ZN12SetupHandler14processMessageER3Msg+0x3b6>
            {
	            // write any settings to the eprom that have changed.
	            uint16_t savedFocusAmt = eeprom_read_word(&ePromFocusAmount);
    4058:	80 e0       	ldi	r24, 0x00	; 0
    405a:	90 e0       	ldi	r25, 0x00	; 0
    405c:	0e 94 04 3f 	call	0x7e08	; 0x7e08 <__eerd_word_m328p>
    4060:	9e 83       	std	Y+6, r25	; 0x06
    4062:	8d 83       	std	Y+5, r24	; 0x05
	            if(savedFocusAmt != m_driveAmount)
    4064:	8d 81       	ldd	r24, Y+5	; 0x05
    4066:	9e 81       	ldd	r25, Y+6	; 0x06
    4068:	9c 01       	movw	r18, r24
    406a:	40 e0       	ldi	r20, 0x00	; 0
    406c:	50 e0       	ldi	r21, 0x00	; 0
    406e:	8b 85       	ldd	r24, Y+11	; 0x0b
    4070:	9c 85       	ldd	r25, Y+12	; 0x0c
    4072:	fc 01       	movw	r30, r24
    4074:	86 85       	ldd	r24, Z+14	; 0x0e
    4076:	97 85       	ldd	r25, Z+15	; 0x0f
    4078:	a0 89       	ldd	r26, Z+16	; 0x10
    407a:	b1 89       	ldd	r27, Z+17	; 0x11
    407c:	28 17       	cp	r18, r24
    407e:	39 07       	cpc	r19, r25
    4080:	4a 07       	cpc	r20, r26
    4082:	5b 07       	cpc	r21, r27
    4084:	61 f0       	breq	.+24     	; 0x409e <_ZN12SetupHandler14processMessageER3Msg+0x2ec>
	            {
		            eeprom_write_word(&ePromFocusAmount, m_driveAmount);
    4086:	8b 85       	ldd	r24, Y+11	; 0x0b
    4088:	9c 85       	ldd	r25, Y+12	; 0x0c
    408a:	fc 01       	movw	r30, r24
    408c:	86 85       	ldd	r24, Z+14	; 0x0e
    408e:	97 85       	ldd	r25, Z+15	; 0x0f
    4090:	a0 89       	ldd	r26, Z+16	; 0x10
    4092:	b1 89       	ldd	r27, Z+17	; 0x11
    4094:	bc 01       	movw	r22, r24
    4096:	80 e0       	ldi	r24, 0x00	; 0
    4098:	90 e0       	ldi	r25, 0x00	; 0
    409a:	0e 94 17 3f 	call	0x7e2e	; 0x7e2e <__eewr_word_m328p>
	            }
				uint16_t savedFrameDelay = eeprom_read_word(&ePromFrameDelay);
    409e:	82 e0       	ldi	r24, 0x02	; 2
    40a0:	90 e0       	ldi	r25, 0x00	; 0
    40a2:	0e 94 04 3f 	call	0x7e08	; 0x7e08 <__eerd_word_m328p>
    40a6:	98 87       	std	Y+8, r25	; 0x08
    40a8:	8f 83       	std	Y+7, r24	; 0x07
				if(savedFrameDelay != m_frameDelaySeconds)
    40aa:	8f 81       	ldd	r24, Y+7	; 0x07
    40ac:	98 85       	ldd	r25, Y+8	; 0x08
    40ae:	9c 01       	movw	r18, r24
    40b0:	40 e0       	ldi	r20, 0x00	; 0
    40b2:	50 e0       	ldi	r21, 0x00	; 0
    40b4:	8b 85       	ldd	r24, Y+11	; 0x0b
    40b6:	9c 85       	ldd	r25, Y+12	; 0x0c
    40b8:	fc 01       	movw	r30, r24
    40ba:	86 89       	ldd	r24, Z+22	; 0x16
    40bc:	97 89       	ldd	r25, Z+23	; 0x17
    40be:	a0 8d       	ldd	r26, Z+24	; 0x18
    40c0:	b1 8d       	ldd	r27, Z+25	; 0x19
    40c2:	28 17       	cp	r18, r24
    40c4:	39 07       	cpc	r19, r25
    40c6:	4a 07       	cpc	r20, r26
    40c8:	5b 07       	cpc	r21, r27
    40ca:	61 f0       	breq	.+24     	; 0x40e4 <_ZN12SetupHandler14processMessageER3Msg+0x332>
				{
					eeprom_write_word(&ePromFrameDelay, m_frameDelaySeconds);
    40cc:	8b 85       	ldd	r24, Y+11	; 0x0b
    40ce:	9c 85       	ldd	r25, Y+12	; 0x0c
    40d0:	fc 01       	movw	r30, r24
    40d2:	86 89       	ldd	r24, Z+22	; 0x16
    40d4:	97 89       	ldd	r25, Z+23	; 0x17
    40d6:	a0 8d       	ldd	r26, Z+24	; 0x18
    40d8:	b1 8d       	ldd	r27, Z+25	; 0x19
    40da:	bc 01       	movw	r22, r24
    40dc:	82 e0       	ldi	r24, 0x02	; 2
    40de:	90 e0       	ldi	r25, 0x00	; 0
    40e0:	0e 94 17 3f 	call	0x7e2e	; 0x7e2e <__eewr_word_m328p>
				}
	            uint8_t savedNumFrames = eeprom_read_byte(&ePromNumFrames);
    40e4:	84 e0       	ldi	r24, 0x04	; 4
    40e6:	90 e0       	ldi	r25, 0x00	; 0
    40e8:	0e 94 fc 3e 	call	0x7df8	; 0x7df8 <__eerd_byte_m328p>
    40ec:	89 87       	std	Y+9, r24	; 0x09
	            if(savedNumFrames != m_numFrames)
    40ee:	89 85       	ldd	r24, Y+9	; 0x09
    40f0:	28 2f       	mov	r18, r24
    40f2:	30 e0       	ldi	r19, 0x00	; 0
    40f4:	40 e0       	ldi	r20, 0x00	; 0
    40f6:	50 e0       	ldi	r21, 0x00	; 0
    40f8:	8b 85       	ldd	r24, Y+11	; 0x0b
    40fa:	9c 85       	ldd	r25, Y+12	; 0x0c
    40fc:	fc 01       	movw	r30, r24
    40fe:	82 89       	ldd	r24, Z+18	; 0x12
    4100:	93 89       	ldd	r25, Z+19	; 0x13
    4102:	a4 89       	ldd	r26, Z+20	; 0x14
    4104:	b5 89       	ldd	r27, Z+21	; 0x15
    4106:	28 17       	cp	r18, r24
    4108:	39 07       	cpc	r19, r25
    410a:	4a 07       	cpc	r20, r26
    410c:	5b 07       	cpc	r21, r27
    410e:	61 f0       	breq	.+24     	; 0x4128 <_ZN12SetupHandler14processMessageER3Msg+0x376>
	            {
		            eeprom_write_byte(&ePromNumFrames, m_numFrames);
    4110:	8b 85       	ldd	r24, Y+11	; 0x0b
    4112:	9c 85       	ldd	r25, Y+12	; 0x0c
    4114:	fc 01       	movw	r30, r24
    4116:	82 89       	ldd	r24, Z+18	; 0x12
    4118:	93 89       	ldd	r25, Z+19	; 0x13
    411a:	a4 89       	ldd	r26, Z+20	; 0x14
    411c:	b5 89       	ldd	r27, Z+21	; 0x15
    411e:	68 2f       	mov	r22, r24
    4120:	84 e0       	ldi	r24, 0x04	; 4
    4122:	90 e0       	ldi	r25, 0x00	; 0
    4124:	0e 94 09 3f 	call	0x7e12	; 0x7e12 <__eewr_byte_m328p>
	            }
				uint8_t savedRestoreFocus = eeprom_read_byte(&ePromRestoreFocus);
    4128:	85 e0       	ldi	r24, 0x05	; 5
    412a:	90 e0       	ldi	r25, 0x00	; 0
    412c:	0e 94 fc 3e 	call	0x7df8	; 0x7df8 <__eerd_byte_m328p>
    4130:	8a 87       	std	Y+10, r24	; 0x0a
				if(savedRestoreFocus != m_restoreFocus)
    4132:	8b 85       	ldd	r24, Y+11	; 0x0b
    4134:	9c 85       	ldd	r25, Y+12	; 0x0c
    4136:	fc 01       	movw	r30, r24
    4138:	82 8d       	ldd	r24, Z+26	; 0x1a
    413a:	98 2f       	mov	r25, r24
    413c:	8a 85       	ldd	r24, Y+10	; 0x0a
    413e:	98 17       	cp	r25, r24
    4140:	49 f0       	breq	.+18     	; 0x4154 <_ZN12SetupHandler14processMessageER3Msg+0x3a2>
				{
					eeprom_write_byte(&ePromRestoreFocus, m_restoreFocus);
    4142:	8b 85       	ldd	r24, Y+11	; 0x0b
    4144:	9c 85       	ldd	r25, Y+12	; 0x0c
    4146:	fc 01       	movw	r30, r24
    4148:	82 8d       	ldd	r24, Z+26	; 0x1a
    414a:	68 2f       	mov	r22, r24
    414c:	85 e0       	ldi	r24, 0x05	; 5
    414e:	90 e0       	ldi	r25, 0x00	; 0
    4150:	0e 94 09 3f 	call	0x7e12	; 0x7e12 <__eewr_byte_m328p>
				}
	            msg.m_nextHandler = g_pMain;
    4154:	20 91 00 01 	lds	r18, 0x0100
    4158:	30 91 01 01 	lds	r19, 0x0101
    415c:	8d 85       	ldd	r24, Y+13	; 0x0d
    415e:	9e 85       	ldd	r25, Y+14	; 0x0e
    4160:	fc 01       	movw	r30, r24
    4162:	34 83       	std	Z+4, r19	; 0x04
    4164:	23 83       	std	Z+3, r18	; 0x03
	            rsp = eSuccess;
    4166:	19 82       	std	Y+1, r1	; 0x01
            }
            break;
    4168:	00 00       	nop
        } // eSelect handler
        default: break;
    }
    return rsp;
    416a:	89 81       	ldd	r24, Y+1	; 0x01
}
    416c:	6a 96       	adiw	r28, 0x1a	; 26
    416e:	0f b6       	in	r0, 0x3f	; 63
    4170:	f8 94       	cli
    4172:	de bf       	out	0x3e, r29	; 62
    4174:	0f be       	out	0x3f, r0	; 63
    4176:	cd bf       	out	0x3d, r28	; 61
    4178:	df 91       	pop	r29
    417a:	cf 91       	pop	r28
    417c:	08 95       	ret

0000417e <_ZN12SetupHandler4showEv>:

void SetupHandler::show()
{
    417e:	cf 93       	push	r28
    4180:	df 93       	push	r29
    4182:	00 d0       	rcall	.+0      	; 0x4184 <_ZN12SetupHandler4showEv+0x6>
    4184:	cd b7       	in	r28, 0x3d	; 61
    4186:	de b7       	in	r29, 0x3e	; 62
    4188:	9a 83       	std	Y+2, r25	; 0x02
    418a:	89 83       	std	Y+1, r24	; 0x01
	g_print->clear();
    418c:	80 91 0a 01 	lds	r24, 0x010A
    4190:	90 91 0b 01 	lds	r25, 0x010B
    4194:	0e 94 80 06 	call	0xd00	; 0xd00 <_ZN21Adafruit_RGBLCDShield5clearEv>
	printMenuItem(AmountFieldStart, 0);
    4198:	89 81       	ldd	r24, Y+1	; 0x01
    419a:	9a 81       	ldd	r25, Y+2	; 0x02
    419c:	40 e0       	ldi	r20, 0x00	; 0
    419e:	60 e0       	ldi	r22, 0x00	; 0
    41a0:	0e 94 26 11 	call	0x224c	; 0x224c <_ZN15IMessageHandler13printMenuItemEhh>
	printMenuItem(FrameFieldStart, 1);
    41a4:	89 81       	ldd	r24, Y+1	; 0x01
    41a6:	9a 81       	ldd	r25, Y+2	; 0x02
    41a8:	41 e0       	ldi	r20, 0x01	; 1
    41aa:	65 e0       	ldi	r22, 0x05	; 5
    41ac:	0e 94 26 11 	call	0x224c	; 0x224c <_ZN15IMessageHandler13printMenuItemEhh>
	printMenuItem(DelayFieldStart, 2);
    41b0:	89 81       	ldd	r24, Y+1	; 0x01
    41b2:	9a 81       	ldd	r25, Y+2	; 0x02
    41b4:	42 e0       	ldi	r20, 0x02	; 2
    41b6:	69 e0       	ldi	r22, 0x09	; 9
    41b8:	0e 94 26 11 	call	0x224c	; 0x224c <_ZN15IMessageHandler13printMenuItemEhh>
	printMenuItem(RestoreFocusFieldStart, 3);
    41bc:	89 81       	ldd	r24, Y+1	; 0x01
    41be:	9a 81       	ldd	r25, Y+2	; 0x02
    41c0:	43 e0       	ldi	r20, 0x03	; 3
    41c2:	6d e0       	ldi	r22, 0x0D	; 13
    41c4:	0e 94 26 11 	call	0x224c	; 0x224c <_ZN15IMessageHandler13printMenuItemEhh>
	m_caretCol = 0;
    41c8:	89 81       	ldd	r24, Y+1	; 0x01
    41ca:	9a 81       	ldd	r25, Y+2	; 0x02
    41cc:	fc 01       	movw	r30, r24
    41ce:	14 86       	std	Z+12, r1	; 0x0c
    updateDriveAmountUI(0); // 0: don't change, just show the current value
    41d0:	89 81       	ldd	r24, Y+1	; 0x01
    41d2:	9a 81       	ldd	r25, Y+2	; 0x02
    41d4:	60 e0       	ldi	r22, 0x00	; 0
    41d6:	70 e0       	ldi	r23, 0x00	; 0
    41d8:	1d d0       	rcall	.+58     	; 0x4214 <_ZN12SetupHandler19updateDriveAmountUIEi>
    updateFramesUI(0);      // 0: don't change, just show the current value
    41da:	89 81       	ldd	r24, Y+1	; 0x01
    41dc:	9a 81       	ldd	r25, Y+2	; 0x02
    41de:	60 e0       	ldi	r22, 0x00	; 0
    41e0:	70 e0       	ldi	r23, 0x00	; 0
    41e2:	e5 d0       	rcall	.+458    	; 0x43ae <_ZN12SetupHandler14updateFramesUIEi>
	updateFrameDelayUI(0);  // 0: don't change, just show the current value
    41e4:	89 81       	ldd	r24, Y+1	; 0x01
    41e6:	9a 81       	ldd	r25, Y+2	; 0x02
    41e8:	60 e0       	ldi	r22, 0x00	; 0
    41ea:	70 e0       	ldi	r23, 0x00	; 0
    41ec:	ad d1       	rcall	.+858    	; 0x4548 <_ZN12SetupHandler18updateFrameDelayUIEi>
	updateRestoreFocusUI(0);
    41ee:	89 81       	ldd	r24, Y+1	; 0x01
    41f0:	9a 81       	ldd	r25, Y+2	; 0x02
    41f2:	60 e0       	ldi	r22, 0x00	; 0
    41f4:	70 e0       	ldi	r23, 0x00	; 0
    41f6:	78 d2       	rcall	.+1264   	; 0x46e8 <_ZN12SetupHandler20updateRestoreFocusUIEi>
    setCaretCol(0);
    41f8:	89 81       	ldd	r24, Y+1	; 0x01
    41fa:	9a 81       	ldd	r25, Y+2	; 0x02
    41fc:	60 e0       	ldi	r22, 0x00	; 0
    41fe:	ad dc       	rcall	.-1702   	; 0x3b5a <_ZN15IMessageHandler11setCaretColEh>
    showCaret(true);
    4200:	89 81       	ldd	r24, Y+1	; 0x01
    4202:	9a 81       	ldd	r25, Y+2	; 0x02
    4204:	61 e0       	ldi	r22, 0x01	; 1
    4206:	0e 94 d9 11 	call	0x23b2	; 0x23b2 <_ZN15IMessageHandler9showCaretEb>
}
    420a:	0f 90       	pop	r0
    420c:	0f 90       	pop	r0
    420e:	df 91       	pop	r29
    4210:	cf 91       	pop	r28
    4212:	08 95       	ret

00004214 <_ZN12SetupHandler19updateDriveAmountUIEi>:
void SetupHandler::updateDriveAmountUI(int change)
{
    4214:	cf 93       	push	r28
    4216:	df 93       	push	r29
    4218:	cd b7       	in	r28, 0x3d	; 61
    421a:	de b7       	in	r29, 0x3e	; 62
    421c:	2e 97       	sbiw	r28, 0x0e	; 14
    421e:	0f b6       	in	r0, 0x3f	; 63
    4220:	f8 94       	cli
    4222:	de bf       	out	0x3e, r29	; 62
    4224:	0f be       	out	0x3f, r0	; 63
    4226:	cd bf       	out	0x3d, r28	; 61
    4228:	98 87       	std	Y+8, r25	; 0x08
    422a:	8f 83       	std	Y+7, r24	; 0x07
    422c:	7a 87       	std	Y+10, r23	; 0x0a
    422e:	69 87       	std	Y+9, r22	; 0x09
	m_driveAmount += change;
    4230:	8f 81       	ldd	r24, Y+7	; 0x07
    4232:	98 85       	ldd	r25, Y+8	; 0x08
    4234:	fc 01       	movw	r30, r24
    4236:	26 85       	ldd	r18, Z+14	; 0x0e
    4238:	37 85       	ldd	r19, Z+15	; 0x0f
    423a:	40 89       	ldd	r20, Z+16	; 0x10
    423c:	51 89       	ldd	r21, Z+17	; 0x11
    423e:	89 85       	ldd	r24, Y+9	; 0x09
    4240:	9a 85       	ldd	r25, Y+10	; 0x0a
    4242:	aa 27       	eor	r26, r26
    4244:	97 fd       	sbrc	r25, 7
    4246:	a0 95       	com	r26
    4248:	ba 2f       	mov	r27, r26
    424a:	82 0f       	add	r24, r18
    424c:	93 1f       	adc	r25, r19
    424e:	a4 1f       	adc	r26, r20
    4250:	b5 1f       	adc	r27, r21
    4252:	2f 81       	ldd	r18, Y+7	; 0x07
    4254:	38 85       	ldd	r19, Y+8	; 0x08
    4256:	f9 01       	movw	r30, r18
    4258:	86 87       	std	Z+14, r24	; 0x0e
    425a:	97 87       	std	Z+15, r25	; 0x0f
    425c:	a0 8b       	std	Z+16, r26	; 0x10
    425e:	b1 8b       	std	Z+17, r27	; 0x11
	if(m_driveAmount < 1 ) m_driveAmount = 1;
    4260:	8f 81       	ldd	r24, Y+7	; 0x07
    4262:	98 85       	ldd	r25, Y+8	; 0x08
    4264:	fc 01       	movw	r30, r24
    4266:	86 85       	ldd	r24, Z+14	; 0x0e
    4268:	97 85       	ldd	r25, Z+15	; 0x0f
    426a:	a0 89       	ldd	r26, Z+16	; 0x10
    426c:	b1 89       	ldd	r27, Z+17	; 0x11
    426e:	18 16       	cp	r1, r24
    4270:	19 06       	cpc	r1, r25
    4272:	1a 06       	cpc	r1, r26
    4274:	1b 06       	cpc	r1, r27
    4276:	5c f0       	brlt	.+22     	; 0x428e <_ZN12SetupHandler19updateDriveAmountUIEi+0x7a>
    4278:	2f 81       	ldd	r18, Y+7	; 0x07
    427a:	38 85       	ldd	r19, Y+8	; 0x08
    427c:	81 e0       	ldi	r24, 0x01	; 1
    427e:	90 e0       	ldi	r25, 0x00	; 0
    4280:	a0 e0       	ldi	r26, 0x00	; 0
    4282:	b0 e0       	ldi	r27, 0x00	; 0
    4284:	f9 01       	movw	r30, r18
    4286:	86 87       	std	Z+14, r24	; 0x0e
    4288:	97 87       	std	Z+15, r25	; 0x0f
    428a:	a0 8b       	std	Z+16, r26	; 0x10
    428c:	b1 8b       	std	Z+17, r27	; 0x11
    if(m_driveAmount > 9999) m_driveAmount = 9999;
    428e:	8f 81       	ldd	r24, Y+7	; 0x07
    4290:	98 85       	ldd	r25, Y+8	; 0x08
    4292:	fc 01       	movw	r30, r24
    4294:	86 85       	ldd	r24, Z+14	; 0x0e
    4296:	97 85       	ldd	r25, Z+15	; 0x0f
    4298:	a0 89       	ldd	r26, Z+16	; 0x10
    429a:	b1 89       	ldd	r27, Z+17	; 0x11
    429c:	80 31       	cpi	r24, 0x10	; 16
    429e:	f7 e2       	ldi	r31, 0x27	; 39
    42a0:	9f 07       	cpc	r25, r31
    42a2:	a1 05       	cpc	r26, r1
    42a4:	b1 05       	cpc	r27, r1
    42a6:	5c f0       	brlt	.+22     	; 0x42be <_ZN12SetupHandler19updateDriveAmountUIEi+0xaa>
    42a8:	2f 81       	ldd	r18, Y+7	; 0x07
    42aa:	38 85       	ldd	r19, Y+8	; 0x08
    42ac:	8f e0       	ldi	r24, 0x0F	; 15
    42ae:	97 e2       	ldi	r25, 0x27	; 39
    42b0:	a0 e0       	ldi	r26, 0x00	; 0
    42b2:	b0 e0       	ldi	r27, 0x00	; 0
    42b4:	f9 01       	movw	r30, r18
    42b6:	86 87       	std	Z+14, r24	; 0x0e
    42b8:	97 87       	std	Z+15, r25	; 0x0f
    42ba:	a0 8b       	std	Z+16, r26	; 0x10
    42bc:	b1 8b       	std	Z+17, r27	; 0x11
	// set cursor based on how many digits are shown
	unsigned char digits = 0; 
    42be:	19 82       	std	Y+1, r1	; 0x01
	uint32_t val = m_driveAmount;
    42c0:	8f 81       	ldd	r24, Y+7	; 0x07
    42c2:	98 85       	ldd	r25, Y+8	; 0x08
    42c4:	fc 01       	movw	r30, r24
    42c6:	86 85       	ldd	r24, Z+14	; 0x0e
    42c8:	97 85       	ldd	r25, Z+15	; 0x0f
    42ca:	a0 89       	ldd	r26, Z+16	; 0x10
    42cc:	b1 89       	ldd	r27, Z+17	; 0x11
    42ce:	8a 83       	std	Y+2, r24	; 0x02
    42d0:	9b 83       	std	Y+3, r25	; 0x03
    42d2:	ac 83       	std	Y+4, r26	; 0x04
    42d4:	bd 83       	std	Y+5, r27	; 0x05
	while(val > 0) 
    42d6:	15 c0       	rjmp	.+42     	; 0x4302 <_ZN12SetupHandler19updateDriveAmountUIEi+0xee>
	{
		val /= 10;
    42d8:	8a 81       	ldd	r24, Y+2	; 0x02
    42da:	9b 81       	ldd	r25, Y+3	; 0x03
    42dc:	ac 81       	ldd	r26, Y+4	; 0x04
    42de:	bd 81       	ldd	r27, Y+5	; 0x05
    42e0:	2a e0       	ldi	r18, 0x0A	; 10
    42e2:	30 e0       	ldi	r19, 0x00	; 0
    42e4:	40 e0       	ldi	r20, 0x00	; 0
    42e6:	50 e0       	ldi	r21, 0x00	; 0
    42e8:	bc 01       	movw	r22, r24
    42ea:	cd 01       	movw	r24, r26
    42ec:	0e 94 97 3e 	call	0x7d2e	; 0x7d2e <__udivmodsi4>
    42f0:	da 01       	movw	r26, r20
    42f2:	c9 01       	movw	r24, r18
    42f4:	8a 83       	std	Y+2, r24	; 0x02
    42f6:	9b 83       	std	Y+3, r25	; 0x03
    42f8:	ac 83       	std	Y+4, r26	; 0x04
    42fa:	bd 83       	std	Y+5, r27	; 0x05
		++digits;
    42fc:	89 81       	ldd	r24, Y+1	; 0x01
    42fe:	8f 5f       	subi	r24, 0xFF	; 255
    4300:	89 83       	std	Y+1, r24	; 0x01
	if(m_driveAmount < 1 ) m_driveAmount = 1;
    if(m_driveAmount > 9999) m_driveAmount = 9999;
	// set cursor based on how many digits are shown
	unsigned char digits = 0; 
	uint32_t val = m_driveAmount;
	while(val > 0) 
    4302:	8a 81       	ldd	r24, Y+2	; 0x02
    4304:	9b 81       	ldd	r25, Y+3	; 0x03
    4306:	ac 81       	ldd	r26, Y+4	; 0x04
    4308:	bd 81       	ldd	r27, Y+5	; 0x05
    430a:	00 97       	sbiw	r24, 0x00	; 0
    430c:	a1 05       	cpc	r26, r1
    430e:	b1 05       	cpc	r27, r1
    4310:	19 f7       	brne	.-58     	; 0x42d8 <_ZN12SetupHandler19updateDriveAmountUIEi+0xc4>
	{
		val /= 10;
		++digits;
	}
    g_print->setCursor(AmountFieldStart, 1);
    4312:	80 91 0a 01 	lds	r24, 0x010A
    4316:	90 91 0b 01 	lds	r25, 0x010B
    431a:	41 e0       	ldi	r20, 0x01	; 1
    431c:	60 e0       	ldi	r22, 0x00	; 0
    431e:	0e 94 94 06 	call	0xd28	; 0xd28 <_ZN21Adafruit_RGBLCDShield9setCursorEhh>
	for(unsigned char z = 0; z < 4 - digits; z++) g_print->print(F("0"));
    4322:	1e 82       	std	Y+6, r1	; 0x06
    4324:	0c c0       	rjmp	.+24     	; 0x433e <_ZN12SetupHandler19updateDriveAmountUIEi+0x12a>
    4326:	2f ec       	ldi	r18, 0xCF	; 207
    4328:	32 e0       	ldi	r19, 0x02	; 2
    432a:	80 91 0a 01 	lds	r24, 0x010A
    432e:	90 91 0b 01 	lds	r25, 0x010B
    4332:	b9 01       	movw	r22, r18
    4334:	0e 94 2c 2b 	call	0x5658	; 0x5658 <_ZN5Print5printEPK19__FlashStringHelper>
    4338:	8e 81       	ldd	r24, Y+6	; 0x06
    433a:	8f 5f       	subi	r24, 0xFF	; 255
    433c:	8e 83       	std	Y+6, r24	; 0x06
    433e:	8e 81       	ldd	r24, Y+6	; 0x06
    4340:	28 2f       	mov	r18, r24
    4342:	30 e0       	ldi	r19, 0x00	; 0
    4344:	89 81       	ldd	r24, Y+1	; 0x01
    4346:	88 2f       	mov	r24, r24
    4348:	90 e0       	ldi	r25, 0x00	; 0
    434a:	44 e0       	ldi	r20, 0x04	; 4
    434c:	50 e0       	ldi	r21, 0x00	; 0
    434e:	ba 01       	movw	r22, r20
    4350:	68 1b       	sub	r22, r24
    4352:	79 0b       	sbc	r23, r25
    4354:	cb 01       	movw	r24, r22
    4356:	28 17       	cp	r18, r24
    4358:	39 07       	cpc	r19, r25
    435a:	2c f3       	brlt	.-54     	; 0x4326 <_ZN12SetupHandler19updateDriveAmountUIEi+0x112>
    //g_print->print(F("0000"));
    
    g_print->print(m_driveAmount);
    435c:	8f 81       	ldd	r24, Y+7	; 0x07
    435e:	98 85       	ldd	r25, Y+8	; 0x08
    4360:	fc 01       	movw	r30, r24
    4362:	86 85       	ldd	r24, Z+14	; 0x0e
    4364:	97 85       	ldd	r25, Z+15	; 0x0f
    4366:	a0 89       	ldd	r26, Z+16	; 0x10
    4368:	b1 89       	ldd	r27, Z+17	; 0x11
    436a:	20 91 0a 01 	lds	r18, 0x010A
    436e:	30 91 0b 01 	lds	r19, 0x010B
    4372:	f9 01       	movw	r30, r18
    4374:	2a e0       	ldi	r18, 0x0A	; 10
    4376:	30 e0       	ldi	r19, 0x00	; 0
    4378:	ac 01       	movw	r20, r24
    437a:	bd 01       	movw	r22, r26
    437c:	cf 01       	movw	r24, r30
    437e:	0e 94 04 2c 	call	0x5808	; 0x5808 <_ZN5Print5printEli>
	g_print->setCursor(getCaretCol(), 1);
    4382:	8f 81       	ldd	r24, Y+7	; 0x07
    4384:	98 85       	ldd	r25, Y+8	; 0x08
    4386:	0e 94 03 10 	call	0x2006	; 0x2006 <_ZNK15IMessageHandler11getCaretColEv>
    438a:	28 2f       	mov	r18, r24
    438c:	80 91 0a 01 	lds	r24, 0x010A
    4390:	90 91 0b 01 	lds	r25, 0x010B
    4394:	41 e0       	ldi	r20, 0x01	; 1
    4396:	62 2f       	mov	r22, r18
    4398:	0e 94 94 06 	call	0xd28	; 0xd28 <_ZN21Adafruit_RGBLCDShield9setCursorEhh>
}
    439c:	2e 96       	adiw	r28, 0x0e	; 14
    439e:	0f b6       	in	r0, 0x3f	; 63
    43a0:	f8 94       	cli
    43a2:	de bf       	out	0x3e, r29	; 62
    43a4:	0f be       	out	0x3f, r0	; 63
    43a6:	cd bf       	out	0x3d, r28	; 61
    43a8:	df 91       	pop	r29
    43aa:	cf 91       	pop	r28
    43ac:	08 95       	ret

000043ae <_ZN12SetupHandler14updateFramesUIEi>:
void SetupHandler::updateFramesUI(int change)
{
    43ae:	cf 93       	push	r28
    43b0:	df 93       	push	r29
    43b2:	cd b7       	in	r28, 0x3d	; 61
    43b4:	de b7       	in	r29, 0x3e	; 62
    43b6:	2e 97       	sbiw	r28, 0x0e	; 14
    43b8:	0f b6       	in	r0, 0x3f	; 63
    43ba:	f8 94       	cli
    43bc:	de bf       	out	0x3e, r29	; 62
    43be:	0f be       	out	0x3f, r0	; 63
    43c0:	cd bf       	out	0x3d, r28	; 61
    43c2:	98 87       	std	Y+8, r25	; 0x08
    43c4:	8f 83       	std	Y+7, r24	; 0x07
    43c6:	7a 87       	std	Y+10, r23	; 0x0a
    43c8:	69 87       	std	Y+9, r22	; 0x09
    m_numFrames += change;
    43ca:	8f 81       	ldd	r24, Y+7	; 0x07
    43cc:	98 85       	ldd	r25, Y+8	; 0x08
    43ce:	fc 01       	movw	r30, r24
    43d0:	22 89       	ldd	r18, Z+18	; 0x12
    43d2:	33 89       	ldd	r19, Z+19	; 0x13
    43d4:	44 89       	ldd	r20, Z+20	; 0x14
    43d6:	55 89       	ldd	r21, Z+21	; 0x15
    43d8:	89 85       	ldd	r24, Y+9	; 0x09
    43da:	9a 85       	ldd	r25, Y+10	; 0x0a
    43dc:	aa 27       	eor	r26, r26
    43de:	97 fd       	sbrc	r25, 7
    43e0:	a0 95       	com	r26
    43e2:	ba 2f       	mov	r27, r26
    43e4:	82 0f       	add	r24, r18
    43e6:	93 1f       	adc	r25, r19
    43e8:	a4 1f       	adc	r26, r20
    43ea:	b5 1f       	adc	r27, r21
    43ec:	2f 81       	ldd	r18, Y+7	; 0x07
    43ee:	38 85       	ldd	r19, Y+8	; 0x08
    43f0:	f9 01       	movw	r30, r18
    43f2:	82 8b       	std	Z+18, r24	; 0x12
    43f4:	93 8b       	std	Z+19, r25	; 0x13
    43f6:	a4 8b       	std	Z+20, r26	; 0x14
    43f8:	b5 8b       	std	Z+21, r27	; 0x15
    if(m_numFrames < 1 ) m_numFrames = 1;
    43fa:	8f 81       	ldd	r24, Y+7	; 0x07
    43fc:	98 85       	ldd	r25, Y+8	; 0x08
    43fe:	fc 01       	movw	r30, r24
    4400:	82 89       	ldd	r24, Z+18	; 0x12
    4402:	93 89       	ldd	r25, Z+19	; 0x13
    4404:	a4 89       	ldd	r26, Z+20	; 0x14
    4406:	b5 89       	ldd	r27, Z+21	; 0x15
    4408:	18 16       	cp	r1, r24
    440a:	19 06       	cpc	r1, r25
    440c:	1a 06       	cpc	r1, r26
    440e:	1b 06       	cpc	r1, r27
    4410:	5c f0       	brlt	.+22     	; 0x4428 <_ZN12SetupHandler14updateFramesUIEi+0x7a>
    4412:	2f 81       	ldd	r18, Y+7	; 0x07
    4414:	38 85       	ldd	r19, Y+8	; 0x08
    4416:	81 e0       	ldi	r24, 0x01	; 1
    4418:	90 e0       	ldi	r25, 0x00	; 0
    441a:	a0 e0       	ldi	r26, 0x00	; 0
    441c:	b0 e0       	ldi	r27, 0x00	; 0
    441e:	f9 01       	movw	r30, r18
    4420:	82 8b       	std	Z+18, r24	; 0x12
    4422:	93 8b       	std	Z+19, r25	; 0x13
    4424:	a4 8b       	std	Z+20, r26	; 0x14
    4426:	b5 8b       	std	Z+21, r27	; 0x15
    if(m_numFrames > 999) m_numFrames = 999;
    4428:	8f 81       	ldd	r24, Y+7	; 0x07
    442a:	98 85       	ldd	r25, Y+8	; 0x08
    442c:	fc 01       	movw	r30, r24
    442e:	82 89       	ldd	r24, Z+18	; 0x12
    4430:	93 89       	ldd	r25, Z+19	; 0x13
    4432:	a4 89       	ldd	r26, Z+20	; 0x14
    4434:	b5 89       	ldd	r27, Z+21	; 0x15
    4436:	88 3e       	cpi	r24, 0xE8	; 232
    4438:	f3 e0       	ldi	r31, 0x03	; 3
    443a:	9f 07       	cpc	r25, r31
    443c:	a1 05       	cpc	r26, r1
    443e:	b1 05       	cpc	r27, r1
    4440:	5c f0       	brlt	.+22     	; 0x4458 <_ZN12SetupHandler14updateFramesUIEi+0xaa>
    4442:	2f 81       	ldd	r18, Y+7	; 0x07
    4444:	38 85       	ldd	r19, Y+8	; 0x08
    4446:	87 ee       	ldi	r24, 0xE7	; 231
    4448:	93 e0       	ldi	r25, 0x03	; 3
    444a:	a0 e0       	ldi	r26, 0x00	; 0
    444c:	b0 e0       	ldi	r27, 0x00	; 0
    444e:	f9 01       	movw	r30, r18
    4450:	82 8b       	std	Z+18, r24	; 0x12
    4452:	93 8b       	std	Z+19, r25	; 0x13
    4454:	a4 8b       	std	Z+20, r26	; 0x14
    4456:	b5 8b       	std	Z+21, r27	; 0x15
	// set cursor based on how many digits are shown
	unsigned char digits = 0;
    4458:	19 82       	std	Y+1, r1	; 0x01
	uint32_t val = m_numFrames;
    445a:	8f 81       	ldd	r24, Y+7	; 0x07
    445c:	98 85       	ldd	r25, Y+8	; 0x08
    445e:	fc 01       	movw	r30, r24
    4460:	82 89       	ldd	r24, Z+18	; 0x12
    4462:	93 89       	ldd	r25, Z+19	; 0x13
    4464:	a4 89       	ldd	r26, Z+20	; 0x14
    4466:	b5 89       	ldd	r27, Z+21	; 0x15
    4468:	8a 83       	std	Y+2, r24	; 0x02
    446a:	9b 83       	std	Y+3, r25	; 0x03
    446c:	ac 83       	std	Y+4, r26	; 0x04
    446e:	bd 83       	std	Y+5, r27	; 0x05
	
	while(val > 0)
    4470:	15 c0       	rjmp	.+42     	; 0x449c <_ZN12SetupHandler14updateFramesUIEi+0xee>
	{
		val /= 10;
    4472:	8a 81       	ldd	r24, Y+2	; 0x02
    4474:	9b 81       	ldd	r25, Y+3	; 0x03
    4476:	ac 81       	ldd	r26, Y+4	; 0x04
    4478:	bd 81       	ldd	r27, Y+5	; 0x05
    447a:	2a e0       	ldi	r18, 0x0A	; 10
    447c:	30 e0       	ldi	r19, 0x00	; 0
    447e:	40 e0       	ldi	r20, 0x00	; 0
    4480:	50 e0       	ldi	r21, 0x00	; 0
    4482:	bc 01       	movw	r22, r24
    4484:	cd 01       	movw	r24, r26
    4486:	0e 94 97 3e 	call	0x7d2e	; 0x7d2e <__udivmodsi4>
    448a:	da 01       	movw	r26, r20
    448c:	c9 01       	movw	r24, r18
    448e:	8a 83       	std	Y+2, r24	; 0x02
    4490:	9b 83       	std	Y+3, r25	; 0x03
    4492:	ac 83       	std	Y+4, r26	; 0x04
    4494:	bd 83       	std	Y+5, r27	; 0x05
		++digits;
    4496:	89 81       	ldd	r24, Y+1	; 0x01
    4498:	8f 5f       	subi	r24, 0xFF	; 255
    449a:	89 83       	std	Y+1, r24	; 0x01
    if(m_numFrames > 999) m_numFrames = 999;
	// set cursor based on how many digits are shown
	unsigned char digits = 0;
	uint32_t val = m_numFrames;
	
	while(val > 0)
    449c:	8a 81       	ldd	r24, Y+2	; 0x02
    449e:	9b 81       	ldd	r25, Y+3	; 0x03
    44a0:	ac 81       	ldd	r26, Y+4	; 0x04
    44a2:	bd 81       	ldd	r27, Y+5	; 0x05
    44a4:	00 97       	sbiw	r24, 0x00	; 0
    44a6:	a1 05       	cpc	r26, r1
    44a8:	b1 05       	cpc	r27, r1
    44aa:	19 f7       	brne	.-58     	; 0x4472 <_ZN12SetupHandler14updateFramesUIEi+0xc4>
	{
		val /= 10;
		++digits;
	}
	g_print->setCursor(FrameFieldStart, 1);
    44ac:	80 91 0a 01 	lds	r24, 0x010A
    44b0:	90 91 0b 01 	lds	r25, 0x010B
    44b4:	41 e0       	ldi	r20, 0x01	; 1
    44b6:	65 e0       	ldi	r22, 0x05	; 5
    44b8:	0e 94 94 06 	call	0xd28	; 0xd28 <_ZN21Adafruit_RGBLCDShield9setCursorEhh>
    for(unsigned char z = 0; z < 3 - digits; z++) g_print->print(F("0"));
    44bc:	1e 82       	std	Y+6, r1	; 0x06
    44be:	0c c0       	rjmp	.+24     	; 0x44d8 <_ZN12SetupHandler14updateFramesUIEi+0x12a>
    44c0:	21 ed       	ldi	r18, 0xD1	; 209
    44c2:	32 e0       	ldi	r19, 0x02	; 2
    44c4:	80 91 0a 01 	lds	r24, 0x010A
    44c8:	90 91 0b 01 	lds	r25, 0x010B
    44cc:	b9 01       	movw	r22, r18
    44ce:	0e 94 2c 2b 	call	0x5658	; 0x5658 <_ZN5Print5printEPK19__FlashStringHelper>
    44d2:	8e 81       	ldd	r24, Y+6	; 0x06
    44d4:	8f 5f       	subi	r24, 0xFF	; 255
    44d6:	8e 83       	std	Y+6, r24	; 0x06
    44d8:	8e 81       	ldd	r24, Y+6	; 0x06
    44da:	28 2f       	mov	r18, r24
    44dc:	30 e0       	ldi	r19, 0x00	; 0
    44de:	89 81       	ldd	r24, Y+1	; 0x01
    44e0:	88 2f       	mov	r24, r24
    44e2:	90 e0       	ldi	r25, 0x00	; 0
    44e4:	43 e0       	ldi	r20, 0x03	; 3
    44e6:	50 e0       	ldi	r21, 0x00	; 0
    44e8:	ba 01       	movw	r22, r20
    44ea:	68 1b       	sub	r22, r24
    44ec:	79 0b       	sbc	r23, r25
    44ee:	cb 01       	movw	r24, r22
    44f0:	28 17       	cp	r18, r24
    44f2:	39 07       	cpc	r19, r25
    44f4:	2c f3       	brlt	.-54     	; 0x44c0 <_ZN12SetupHandler14updateFramesUIEi+0x112>
  //  g_print->setCursor(FrameFieldStart + 3 - digits, 1);
    g_print->print(m_numFrames);
    44f6:	8f 81       	ldd	r24, Y+7	; 0x07
    44f8:	98 85       	ldd	r25, Y+8	; 0x08
    44fa:	fc 01       	movw	r30, r24
    44fc:	82 89       	ldd	r24, Z+18	; 0x12
    44fe:	93 89       	ldd	r25, Z+19	; 0x13
    4500:	a4 89       	ldd	r26, Z+20	; 0x14
    4502:	b5 89       	ldd	r27, Z+21	; 0x15
    4504:	20 91 0a 01 	lds	r18, 0x010A
    4508:	30 91 0b 01 	lds	r19, 0x010B
    450c:	f9 01       	movw	r30, r18
    450e:	2a e0       	ldi	r18, 0x0A	; 10
    4510:	30 e0       	ldi	r19, 0x00	; 0
    4512:	ac 01       	movw	r20, r24
    4514:	bd 01       	movw	r22, r26
    4516:	cf 01       	movw	r24, r30
    4518:	0e 94 04 2c 	call	0x5808	; 0x5808 <_ZN5Print5printEli>
	g_print->setCursor(getCaretCol(), 1);
    451c:	8f 81       	ldd	r24, Y+7	; 0x07
    451e:	98 85       	ldd	r25, Y+8	; 0x08
    4520:	0e 94 03 10 	call	0x2006	; 0x2006 <_ZNK15IMessageHandler11getCaretColEv>
    4524:	28 2f       	mov	r18, r24
    4526:	80 91 0a 01 	lds	r24, 0x010A
    452a:	90 91 0b 01 	lds	r25, 0x010B
    452e:	41 e0       	ldi	r20, 0x01	; 1
    4530:	62 2f       	mov	r22, r18
    4532:	0e 94 94 06 	call	0xd28	; 0xd28 <_ZN21Adafruit_RGBLCDShield9setCursorEhh>
}
    4536:	2e 96       	adiw	r28, 0x0e	; 14
    4538:	0f b6       	in	r0, 0x3f	; 63
    453a:	f8 94       	cli
    453c:	de bf       	out	0x3e, r29	; 62
    453e:	0f be       	out	0x3f, r0	; 63
    4540:	cd bf       	out	0x3d, r28	; 61
    4542:	df 91       	pop	r29
    4544:	cf 91       	pop	r28
    4546:	08 95       	ret

00004548 <_ZN12SetupHandler18updateFrameDelayUIEi>:

void SetupHandler::updateFrameDelayUI(int change)
{
    4548:	cf 93       	push	r28
    454a:	df 93       	push	r29
    454c:	cd b7       	in	r28, 0x3d	; 61
    454e:	de b7       	in	r29, 0x3e	; 62
    4550:	2e 97       	sbiw	r28, 0x0e	; 14
    4552:	0f b6       	in	r0, 0x3f	; 63
    4554:	f8 94       	cli
    4556:	de bf       	out	0x3e, r29	; 62
    4558:	0f be       	out	0x3f, r0	; 63
    455a:	cd bf       	out	0x3d, r28	; 61
    455c:	98 87       	std	Y+8, r25	; 0x08
    455e:	8f 83       	std	Y+7, r24	; 0x07
    4560:	7a 87       	std	Y+10, r23	; 0x0a
    4562:	69 87       	std	Y+9, r22	; 0x09
	
	m_frameDelaySeconds += change;
    4564:	8f 81       	ldd	r24, Y+7	; 0x07
    4566:	98 85       	ldd	r25, Y+8	; 0x08
    4568:	fc 01       	movw	r30, r24
    456a:	26 89       	ldd	r18, Z+22	; 0x16
    456c:	37 89       	ldd	r19, Z+23	; 0x17
    456e:	40 8d       	ldd	r20, Z+24	; 0x18
    4570:	51 8d       	ldd	r21, Z+25	; 0x19
    4572:	89 85       	ldd	r24, Y+9	; 0x09
    4574:	9a 85       	ldd	r25, Y+10	; 0x0a
    4576:	aa 27       	eor	r26, r26
    4578:	97 fd       	sbrc	r25, 7
    457a:	a0 95       	com	r26
    457c:	ba 2f       	mov	r27, r26
    457e:	82 0f       	add	r24, r18
    4580:	93 1f       	adc	r25, r19
    4582:	a4 1f       	adc	r26, r20
    4584:	b5 1f       	adc	r27, r21
    4586:	2f 81       	ldd	r18, Y+7	; 0x07
    4588:	38 85       	ldd	r19, Y+8	; 0x08
    458a:	f9 01       	movw	r30, r18
    458c:	86 8b       	std	Z+22, r24	; 0x16
    458e:	97 8b       	std	Z+23, r25	; 0x17
    4590:	a0 8f       	std	Z+24, r26	; 0x18
    4592:	b1 8f       	std	Z+25, r27	; 0x19
	if(m_frameDelaySeconds < 0 ) m_frameDelaySeconds = 0;
    4594:	8f 81       	ldd	r24, Y+7	; 0x07
    4596:	98 85       	ldd	r25, Y+8	; 0x08
    4598:	fc 01       	movw	r30, r24
    459a:	86 89       	ldd	r24, Z+22	; 0x16
    459c:	97 89       	ldd	r25, Z+23	; 0x17
    459e:	a0 8d       	ldd	r26, Z+24	; 0x18
    45a0:	b1 8d       	ldd	r27, Z+25	; 0x19
    45a2:	bb 23       	and	r27, r27
    45a4:	3c f4       	brge	.+14     	; 0x45b4 <_ZN12SetupHandler18updateFrameDelayUIEi+0x6c>
    45a6:	8f 81       	ldd	r24, Y+7	; 0x07
    45a8:	98 85       	ldd	r25, Y+8	; 0x08
    45aa:	fc 01       	movw	r30, r24
    45ac:	16 8a       	std	Z+22, r1	; 0x16
    45ae:	17 8a       	std	Z+23, r1	; 0x17
    45b0:	10 8e       	std	Z+24, r1	; 0x18
    45b2:	11 8e       	std	Z+25, r1	; 0x19
    if(m_frameDelaySeconds > 999) m_frameDelaySeconds = 999;
    45b4:	8f 81       	ldd	r24, Y+7	; 0x07
    45b6:	98 85       	ldd	r25, Y+8	; 0x08
    45b8:	fc 01       	movw	r30, r24
    45ba:	86 89       	ldd	r24, Z+22	; 0x16
    45bc:	97 89       	ldd	r25, Z+23	; 0x17
    45be:	a0 8d       	ldd	r26, Z+24	; 0x18
    45c0:	b1 8d       	ldd	r27, Z+25	; 0x19
    45c2:	88 3e       	cpi	r24, 0xE8	; 232
    45c4:	f3 e0       	ldi	r31, 0x03	; 3
    45c6:	9f 07       	cpc	r25, r31
    45c8:	a1 05       	cpc	r26, r1
    45ca:	b1 05       	cpc	r27, r1
    45cc:	5c f0       	brlt	.+22     	; 0x45e4 <_ZN12SetupHandler18updateFrameDelayUIEi+0x9c>
    45ce:	2f 81       	ldd	r18, Y+7	; 0x07
    45d0:	38 85       	ldd	r19, Y+8	; 0x08
    45d2:	87 ee       	ldi	r24, 0xE7	; 231
    45d4:	93 e0       	ldi	r25, 0x03	; 3
    45d6:	a0 e0       	ldi	r26, 0x00	; 0
    45d8:	b0 e0       	ldi	r27, 0x00	; 0
    45da:	f9 01       	movw	r30, r18
    45dc:	86 8b       	std	Z+22, r24	; 0x16
    45de:	97 8b       	std	Z+23, r25	; 0x17
    45e0:	a0 8f       	std	Z+24, r26	; 0x18
    45e2:	b1 8f       	std	Z+25, r27	; 0x19
	unsigned char digits = 0;
    45e4:	19 82       	std	Y+1, r1	; 0x01
	uint32_t val = m_frameDelaySeconds;
    45e6:	8f 81       	ldd	r24, Y+7	; 0x07
    45e8:	98 85       	ldd	r25, Y+8	; 0x08
    45ea:	fc 01       	movw	r30, r24
    45ec:	86 89       	ldd	r24, Z+22	; 0x16
    45ee:	97 89       	ldd	r25, Z+23	; 0x17
    45f0:	a0 8d       	ldd	r26, Z+24	; 0x18
    45f2:	b1 8d       	ldd	r27, Z+25	; 0x19
    45f4:	8a 83       	std	Y+2, r24	; 0x02
    45f6:	9b 83       	std	Y+3, r25	; 0x03
    45f8:	ac 83       	std	Y+4, r26	; 0x04
    45fa:	bd 83       	std	Y+5, r27	; 0x05
	
	while(val > 0)
    45fc:	15 c0       	rjmp	.+42     	; 0x4628 <_ZN12SetupHandler18updateFrameDelayUIEi+0xe0>
	{
		val /= 10;
    45fe:	8a 81       	ldd	r24, Y+2	; 0x02
    4600:	9b 81       	ldd	r25, Y+3	; 0x03
    4602:	ac 81       	ldd	r26, Y+4	; 0x04
    4604:	bd 81       	ldd	r27, Y+5	; 0x05
    4606:	2a e0       	ldi	r18, 0x0A	; 10
    4608:	30 e0       	ldi	r19, 0x00	; 0
    460a:	40 e0       	ldi	r20, 0x00	; 0
    460c:	50 e0       	ldi	r21, 0x00	; 0
    460e:	bc 01       	movw	r22, r24
    4610:	cd 01       	movw	r24, r26
    4612:	0e 94 97 3e 	call	0x7d2e	; 0x7d2e <__udivmodsi4>
    4616:	da 01       	movw	r26, r20
    4618:	c9 01       	movw	r24, r18
    461a:	8a 83       	std	Y+2, r24	; 0x02
    461c:	9b 83       	std	Y+3, r25	; 0x03
    461e:	ac 83       	std	Y+4, r26	; 0x04
    4620:	bd 83       	std	Y+5, r27	; 0x05
		++digits;
    4622:	89 81       	ldd	r24, Y+1	; 0x01
    4624:	8f 5f       	subi	r24, 0xFF	; 255
    4626:	89 83       	std	Y+1, r24	; 0x01
	if(m_frameDelaySeconds < 0 ) m_frameDelaySeconds = 0;
    if(m_frameDelaySeconds > 999) m_frameDelaySeconds = 999;
	unsigned char digits = 0;
	uint32_t val = m_frameDelaySeconds;
	
	while(val > 0)
    4628:	8a 81       	ldd	r24, Y+2	; 0x02
    462a:	9b 81       	ldd	r25, Y+3	; 0x03
    462c:	ac 81       	ldd	r26, Y+4	; 0x04
    462e:	bd 81       	ldd	r27, Y+5	; 0x05
    4630:	00 97       	sbiw	r24, 0x00	; 0
    4632:	a1 05       	cpc	r26, r1
    4634:	b1 05       	cpc	r27, r1
    4636:	19 f7       	brne	.-58     	; 0x45fe <_ZN12SetupHandler18updateFrameDelayUIEi+0xb6>
	{
		val /= 10;
		++digits;
	}
    g_print->setCursor(DelayFieldStart, 1);
    4638:	80 91 0a 01 	lds	r24, 0x010A
    463c:	90 91 0b 01 	lds	r25, 0x010B
    4640:	41 e0       	ldi	r20, 0x01	; 1
    4642:	69 e0       	ldi	r22, 0x09	; 9
    4644:	0e 94 94 06 	call	0xd28	; 0xd28 <_ZN21Adafruit_RGBLCDShield9setCursorEhh>
	for(unsigned char z = 0; z < 3 - digits; z++) g_print->print(F("0"));
    4648:	1e 82       	std	Y+6, r1	; 0x06
    464a:	0b c0       	rjmp	.+22     	; 0x4662 <_ZN12SetupHandler18updateFrameDelayUIEi+0x11a>
    464c:	23 ed       	ldi	r18, 0xD3	; 211
    464e:	32 e0       	ldi	r19, 0x02	; 2
    4650:	80 91 0a 01 	lds	r24, 0x010A
    4654:	90 91 0b 01 	lds	r25, 0x010B
    4658:	b9 01       	movw	r22, r18
    465a:	fe d7       	rcall	.+4092   	; 0x5658 <_ZN5Print5printEPK19__FlashStringHelper>
    465c:	8e 81       	ldd	r24, Y+6	; 0x06
    465e:	8f 5f       	subi	r24, 0xFF	; 255
    4660:	8e 83       	std	Y+6, r24	; 0x06
    4662:	8e 81       	ldd	r24, Y+6	; 0x06
    4664:	28 2f       	mov	r18, r24
    4666:	30 e0       	ldi	r19, 0x00	; 0
    4668:	89 81       	ldd	r24, Y+1	; 0x01
    466a:	88 2f       	mov	r24, r24
    466c:	90 e0       	ldi	r25, 0x00	; 0
    466e:	43 e0       	ldi	r20, 0x03	; 3
    4670:	50 e0       	ldi	r21, 0x00	; 0
    4672:	ba 01       	movw	r22, r20
    4674:	68 1b       	sub	r22, r24
    4676:	79 0b       	sbc	r23, r25
    4678:	cb 01       	movw	r24, r22
    467a:	28 17       	cp	r18, r24
    467c:	39 07       	cpc	r19, r25
    467e:	34 f3       	brlt	.-52     	; 0x464c <_ZN12SetupHandler18updateFrameDelayUIEi+0x104>
    if(0 != m_frameDelaySeconds) g_print->print(m_frameDelaySeconds);
    4680:	8f 81       	ldd	r24, Y+7	; 0x07
    4682:	98 85       	ldd	r25, Y+8	; 0x08
    4684:	fc 01       	movw	r30, r24
    4686:	86 89       	ldd	r24, Z+22	; 0x16
    4688:	97 89       	ldd	r25, Z+23	; 0x17
    468a:	a0 8d       	ldd	r26, Z+24	; 0x18
    468c:	b1 8d       	ldd	r27, Z+25	; 0x19
    468e:	00 97       	sbiw	r24, 0x00	; 0
    4690:	a1 05       	cpc	r26, r1
    4692:	b1 05       	cpc	r27, r1
    4694:	99 f0       	breq	.+38     	; 0x46bc <_ZN12SetupHandler18updateFrameDelayUIEi+0x174>
    4696:	8f 81       	ldd	r24, Y+7	; 0x07
    4698:	98 85       	ldd	r25, Y+8	; 0x08
    469a:	fc 01       	movw	r30, r24
    469c:	86 89       	ldd	r24, Z+22	; 0x16
    469e:	97 89       	ldd	r25, Z+23	; 0x17
    46a0:	a0 8d       	ldd	r26, Z+24	; 0x18
    46a2:	b1 8d       	ldd	r27, Z+25	; 0x19
    46a4:	20 91 0a 01 	lds	r18, 0x010A
    46a8:	30 91 0b 01 	lds	r19, 0x010B
    46ac:	f9 01       	movw	r30, r18
    46ae:	2a e0       	ldi	r18, 0x0A	; 10
    46b0:	30 e0       	ldi	r19, 0x00	; 0
    46b2:	ac 01       	movw	r20, r24
    46b4:	bd 01       	movw	r22, r26
    46b6:	cf 01       	movw	r24, r30
    46b8:	0e 94 04 2c 	call	0x5808	; 0x5808 <_ZN5Print5printEli>
	g_print->setCursor(getCaretCol(), 1);
    46bc:	8f 81       	ldd	r24, Y+7	; 0x07
    46be:	98 85       	ldd	r25, Y+8	; 0x08
    46c0:	0e 94 03 10 	call	0x2006	; 0x2006 <_ZNK15IMessageHandler11getCaretColEv>
    46c4:	28 2f       	mov	r18, r24
    46c6:	80 91 0a 01 	lds	r24, 0x010A
    46ca:	90 91 0b 01 	lds	r25, 0x010B
    46ce:	41 e0       	ldi	r20, 0x01	; 1
    46d0:	62 2f       	mov	r22, r18
    46d2:	0e 94 94 06 	call	0xd28	; 0xd28 <_ZN21Adafruit_RGBLCDShield9setCursorEhh>
}
    46d6:	2e 96       	adiw	r28, 0x0e	; 14
    46d8:	0f b6       	in	r0, 0x3f	; 63
    46da:	f8 94       	cli
    46dc:	de bf       	out	0x3e, r29	; 62
    46de:	0f be       	out	0x3f, r0	; 63
    46e0:	cd bf       	out	0x3d, r28	; 61
    46e2:	df 91       	pop	r29
    46e4:	cf 91       	pop	r28
    46e6:	08 95       	ret

000046e8 <_ZN12SetupHandler20updateRestoreFocusUIEi>:

void SetupHandler::updateRestoreFocusUI(int change)
{
    46e8:	cf 93       	push	r28
    46ea:	df 93       	push	r29
    46ec:	00 d0       	rcall	.+0      	; 0x46ee <_ZN12SetupHandler20updateRestoreFocusUIEi+0x6>
    46ee:	00 d0       	rcall	.+0      	; 0x46f0 <_ZN12SetupHandler20updateRestoreFocusUIEi+0x8>
    46f0:	cd b7       	in	r28, 0x3d	; 61
    46f2:	de b7       	in	r29, 0x3e	; 62
    46f4:	9a 83       	std	Y+2, r25	; 0x02
    46f6:	89 83       	std	Y+1, r24	; 0x01
    46f8:	7c 83       	std	Y+4, r23	; 0x04
    46fa:	6b 83       	std	Y+3, r22	; 0x03
	g_print->setCursor(RestoreFocusFieldStart, 1);
    46fc:	80 91 0a 01 	lds	r24, 0x010A
    4700:	90 91 0b 01 	lds	r25, 0x010B
    4704:	41 e0       	ldi	r20, 0x01	; 1
    4706:	6d e0       	ldi	r22, 0x0D	; 13
    4708:	0e 94 94 06 	call	0xd28	; 0xd28 <_ZN21Adafruit_RGBLCDShield9setCursorEhh>
	g_print->print(F("   "));		
    470c:	25 ed       	ldi	r18, 0xD5	; 213
    470e:	32 e0       	ldi	r19, 0x02	; 2
    4710:	80 91 0a 01 	lds	r24, 0x010A
    4714:	90 91 0b 01 	lds	r25, 0x010B
    4718:	b9 01       	movw	r22, r18
    471a:	9e d7       	rcall	.+3900   	; 0x5658 <_ZN5Print5printEPK19__FlashStringHelper>
	g_print->setCursor(RestoreFocusFieldStart, 1);
    471c:	80 91 0a 01 	lds	r24, 0x010A
    4720:	90 91 0b 01 	lds	r25, 0x010B
    4724:	41 e0       	ldi	r20, 0x01	; 1
    4726:	6d e0       	ldi	r22, 0x0D	; 13
    4728:	0e 94 94 06 	call	0xd28	; 0xd28 <_ZN21Adafruit_RGBLCDShield9setCursorEhh>
	if(0 != change) m_restoreFocus = !m_restoreFocus;
    472c:	8b 81       	ldd	r24, Y+3	; 0x03
    472e:	9c 81       	ldd	r25, Y+4	; 0x04
    4730:	00 97       	sbiw	r24, 0x00	; 0
    4732:	59 f0       	breq	.+22     	; 0x474a <_ZN12SetupHandler20updateRestoreFocusUIEi+0x62>
    4734:	89 81       	ldd	r24, Y+1	; 0x01
    4736:	9a 81       	ldd	r25, Y+2	; 0x02
    4738:	fc 01       	movw	r30, r24
    473a:	92 8d       	ldd	r25, Z+26	; 0x1a
    473c:	81 e0       	ldi	r24, 0x01	; 1
    473e:	29 2f       	mov	r18, r25
    4740:	28 27       	eor	r18, r24
    4742:	89 81       	ldd	r24, Y+1	; 0x01
    4744:	9a 81       	ldd	r25, Y+2	; 0x02
    4746:	fc 01       	movw	r30, r24
    4748:	22 8f       	std	Z+26, r18	; 0x1a
	g_print->print( m_restoreFocus ? F("Yes") : F("No"));
    474a:	89 81       	ldd	r24, Y+1	; 0x01
    474c:	9a 81       	ldd	r25, Y+2	; 0x02
    474e:	fc 01       	movw	r30, r24
    4750:	82 8d       	ldd	r24, Z+26	; 0x1a
    4752:	88 23       	and	r24, r24
    4754:	19 f0       	breq	.+6      	; 0x475c <_ZN12SetupHandler20updateRestoreFocusUIEi+0x74>
    4756:	89 ed       	ldi	r24, 0xD9	; 217
    4758:	92 e0       	ldi	r25, 0x02	; 2
    475a:	02 c0       	rjmp	.+4      	; 0x4760 <_ZN12SetupHandler20updateRestoreFocusUIEi+0x78>
    475c:	8d ed       	ldi	r24, 0xDD	; 221
    475e:	92 e0       	ldi	r25, 0x02	; 2
    4760:	20 91 0a 01 	lds	r18, 0x010A
    4764:	30 91 0b 01 	lds	r19, 0x010B
    4768:	bc 01       	movw	r22, r24
    476a:	c9 01       	movw	r24, r18
    476c:	75 d7       	rcall	.+3818   	; 0x5658 <_ZN5Print5printEPK19__FlashStringHelper>
	g_print->setCursor(getCaretCol(), 1);
    476e:	89 81       	ldd	r24, Y+1	; 0x01
    4770:	9a 81       	ldd	r25, Y+2	; 0x02
    4772:	0e 94 03 10 	call	0x2006	; 0x2006 <_ZNK15IMessageHandler11getCaretColEv>
    4776:	28 2f       	mov	r18, r24
    4778:	80 91 0a 01 	lds	r24, 0x010A
    477c:	90 91 0b 01 	lds	r25, 0x010B
    4780:	41 e0       	ldi	r20, 0x01	; 1
    4782:	62 2f       	mov	r22, r18
    4784:	0e 94 94 06 	call	0xd28	; 0xd28 <_ZN21Adafruit_RGBLCDShield9setCursorEhh>
}
    4788:	0f 90       	pop	r0
    478a:	0f 90       	pop	r0
    478c:	0f 90       	pop	r0
    478e:	0f 90       	pop	r0
    4790:	df 91       	pop	r29
    4792:	cf 91       	pop	r28
    4794:	08 95       	ret

00004796 <twi_init>:
 * Output   none
 */
void twi_attachSlaveTxEvent( void (*function)(void) )
{
  twi_onSlaveTransmit = function;
}
    4796:	cf 93       	push	r28
    4798:	df 93       	push	r29
    479a:	cd b7       	in	r28, 0x3d	; 61
    479c:	de b7       	in	r29, 0x3e	; 62
    479e:	10 92 b4 03 	sts	0x03B4, r1
    47a2:	81 e0       	ldi	r24, 0x01	; 1
    47a4:	80 93 b6 03 	sts	0x03B6, r24
    47a8:	10 92 b7 03 	sts	0x03B7, r1
    47ac:	82 e1       	ldi	r24, 0x12	; 18
    47ae:	61 e0       	ldi	r22, 0x01	; 1
    47b0:	0e 94 9d 2d 	call	0x5b3a	; 0x5b3a <digitalWrite>
    47b4:	83 e1       	ldi	r24, 0x13	; 19
    47b6:	61 e0       	ldi	r22, 0x01	; 1
    47b8:	0e 94 9d 2d 	call	0x5b3a	; 0x5b3a <digitalWrite>
    47bc:	89 eb       	ldi	r24, 0xB9	; 185
    47be:	90 e0       	ldi	r25, 0x00	; 0
    47c0:	29 eb       	ldi	r18, 0xB9	; 185
    47c2:	30 e0       	ldi	r19, 0x00	; 0
    47c4:	f9 01       	movw	r30, r18
    47c6:	20 81       	ld	r18, Z
    47c8:	2e 7f       	andi	r18, 0xFE	; 254
    47ca:	fc 01       	movw	r30, r24
    47cc:	20 83       	st	Z, r18
    47ce:	89 eb       	ldi	r24, 0xB9	; 185
    47d0:	90 e0       	ldi	r25, 0x00	; 0
    47d2:	29 eb       	ldi	r18, 0xB9	; 185
    47d4:	30 e0       	ldi	r19, 0x00	; 0
    47d6:	f9 01       	movw	r30, r18
    47d8:	20 81       	ld	r18, Z
    47da:	2d 7f       	andi	r18, 0xFD	; 253
    47dc:	fc 01       	movw	r30, r24
    47de:	20 83       	st	Z, r18
    47e0:	88 eb       	ldi	r24, 0xB8	; 184
    47e2:	90 e0       	ldi	r25, 0x00	; 0
    47e4:	28 e4       	ldi	r18, 0x48	; 72
    47e6:	fc 01       	movw	r30, r24
    47e8:	20 83       	st	Z, r18
    47ea:	8c eb       	ldi	r24, 0xBC	; 188
    47ec:	90 e0       	ldi	r25, 0x00	; 0
    47ee:	25 e4       	ldi	r18, 0x45	; 69
    47f0:	fc 01       	movw	r30, r24
    47f2:	20 83       	st	Z, r18
    47f4:	df 91       	pop	r29
    47f6:	cf 91       	pop	r28
    47f8:	08 95       	ret

000047fa <twi_readFrom>:
    47fa:	cf 93       	push	r28
    47fc:	df 93       	push	r29
    47fe:	00 d0       	rcall	.+0      	; 0x4800 <twi_readFrom+0x6>
    4800:	00 d0       	rcall	.+0      	; 0x4802 <twi_readFrom+0x8>
    4802:	00 d0       	rcall	.+0      	; 0x4804 <twi_readFrom+0xa>
    4804:	cd b7       	in	r28, 0x3d	; 61
    4806:	de b7       	in	r29, 0x3e	; 62
    4808:	8a 83       	std	Y+2, r24	; 0x02
    480a:	7c 83       	std	Y+4, r23	; 0x04
    480c:	6b 83       	std	Y+3, r22	; 0x03
    480e:	4d 83       	std	Y+5, r20	; 0x05
    4810:	2e 83       	std	Y+6, r18	; 0x06
    4812:	8d 81       	ldd	r24, Y+5	; 0x05
    4814:	81 32       	cpi	r24, 0x21	; 33
    4816:	10 f0       	brcs	.+4      	; 0x481c <twi_readFrom+0x22>
    4818:	80 e0       	ldi	r24, 0x00	; 0
    481a:	62 c0       	rjmp	.+196    	; 0x48e0 <twi_readFrom+0xe6>
    481c:	01 c0       	rjmp	.+2      	; 0x4820 <twi_readFrom+0x26>
    481e:	00 00       	nop
    4820:	80 91 b4 03 	lds	r24, 0x03B4
    4824:	88 23       	and	r24, r24
    4826:	d9 f7       	brne	.-10     	; 0x481e <twi_readFrom+0x24>
    4828:	81 e0       	ldi	r24, 0x01	; 1
    482a:	80 93 b4 03 	sts	0x03B4, r24
    482e:	8e 81       	ldd	r24, Y+6	; 0x06
    4830:	80 93 b6 03 	sts	0x03B6, r24
    4834:	8f ef       	ldi	r24, 0xFF	; 255
    4836:	80 93 21 04 	sts	0x0421, r24
    483a:	10 92 dc 03 	sts	0x03DC, r1
    483e:	8d 81       	ldd	r24, Y+5	; 0x05
    4840:	81 50       	subi	r24, 0x01	; 1
    4842:	80 93 dd 03 	sts	0x03DD, r24
    4846:	81 e0       	ldi	r24, 0x01	; 1
    4848:	80 93 b5 03 	sts	0x03B5, r24
    484c:	8a 81       	ldd	r24, Y+2	; 0x02
    484e:	88 2f       	mov	r24, r24
    4850:	90 e0       	ldi	r25, 0x00	; 0
    4852:	88 0f       	add	r24, r24
    4854:	99 1f       	adc	r25, r25
    4856:	98 2f       	mov	r25, r24
    4858:	80 91 b5 03 	lds	r24, 0x03B5
    485c:	89 2b       	or	r24, r25
    485e:	80 93 b5 03 	sts	0x03B5, r24
    4862:	80 91 b7 03 	lds	r24, 0x03B7
    4866:	81 30       	cpi	r24, 0x01	; 1
    4868:	71 f4       	brne	.+28     	; 0x4886 <twi_readFrom+0x8c>
    486a:	10 92 b7 03 	sts	0x03B7, r1
    486e:	8b eb       	ldi	r24, 0xBB	; 187
    4870:	90 e0       	ldi	r25, 0x00	; 0
    4872:	20 91 b5 03 	lds	r18, 0x03B5
    4876:	fc 01       	movw	r30, r24
    4878:	20 83       	st	Z, r18
    487a:	8c eb       	ldi	r24, 0xBC	; 188
    487c:	90 e0       	ldi	r25, 0x00	; 0
    487e:	25 ec       	ldi	r18, 0xC5	; 197
    4880:	fc 01       	movw	r30, r24
    4882:	20 83       	st	Z, r18
    4884:	07 c0       	rjmp	.+14     	; 0x4894 <twi_readFrom+0x9a>
    4886:	8c eb       	ldi	r24, 0xBC	; 188
    4888:	90 e0       	ldi	r25, 0x00	; 0
    488a:	25 ee       	ldi	r18, 0xE5	; 229
    488c:	fc 01       	movw	r30, r24
    488e:	20 83       	st	Z, r18
    4890:	01 c0       	rjmp	.+2      	; 0x4894 <twi_readFrom+0x9a>
    4892:	00 00       	nop
    4894:	80 91 b4 03 	lds	r24, 0x03B4
    4898:	81 30       	cpi	r24, 0x01	; 1
    489a:	d9 f3       	breq	.-10     	; 0x4892 <twi_readFrom+0x98>
    489c:	90 91 dc 03 	lds	r25, 0x03DC
    48a0:	8d 81       	ldd	r24, Y+5	; 0x05
    48a2:	98 17       	cp	r25, r24
    48a4:	18 f4       	brcc	.+6      	; 0x48ac <twi_readFrom+0xb2>
    48a6:	80 91 dc 03 	lds	r24, 0x03DC
    48aa:	8d 83       	std	Y+5, r24	; 0x05
    48ac:	19 82       	std	Y+1, r1	; 0x01
    48ae:	13 c0       	rjmp	.+38     	; 0x48d6 <twi_readFrom+0xdc>
    48b0:	89 81       	ldd	r24, Y+1	; 0x01
    48b2:	88 2f       	mov	r24, r24
    48b4:	90 e0       	ldi	r25, 0x00	; 0
    48b6:	2b 81       	ldd	r18, Y+3	; 0x03
    48b8:	3c 81       	ldd	r19, Y+4	; 0x04
    48ba:	82 0f       	add	r24, r18
    48bc:	93 1f       	adc	r25, r19
    48be:	29 81       	ldd	r18, Y+1	; 0x01
    48c0:	22 2f       	mov	r18, r18
    48c2:	30 e0       	ldi	r19, 0x00	; 0
    48c4:	24 54       	subi	r18, 0x44	; 68
    48c6:	3c 4f       	sbci	r19, 0xFC	; 252
    48c8:	f9 01       	movw	r30, r18
    48ca:	20 81       	ld	r18, Z
    48cc:	fc 01       	movw	r30, r24
    48ce:	20 83       	st	Z, r18
    48d0:	89 81       	ldd	r24, Y+1	; 0x01
    48d2:	8f 5f       	subi	r24, 0xFF	; 255
    48d4:	89 83       	std	Y+1, r24	; 0x01
    48d6:	99 81       	ldd	r25, Y+1	; 0x01
    48d8:	8d 81       	ldd	r24, Y+5	; 0x05
    48da:	98 17       	cp	r25, r24
    48dc:	48 f3       	brcs	.-46     	; 0x48b0 <twi_readFrom+0xb6>
    48de:	8d 81       	ldd	r24, Y+5	; 0x05
    48e0:	26 96       	adiw	r28, 0x06	; 6
    48e2:	0f b6       	in	r0, 0x3f	; 63
    48e4:	f8 94       	cli
    48e6:	de bf       	out	0x3e, r29	; 62
    48e8:	0f be       	out	0x3f, r0	; 63
    48ea:	cd bf       	out	0x3d, r28	; 61
    48ec:	df 91       	pop	r29
    48ee:	cf 91       	pop	r28
    48f0:	08 95       	ret

000048f2 <twi_writeTo>:
    48f2:	0f 93       	push	r16
    48f4:	cf 93       	push	r28
    48f6:	df 93       	push	r29
    48f8:	cd b7       	in	r28, 0x3d	; 61
    48fa:	de b7       	in	r29, 0x3e	; 62
    48fc:	27 97       	sbiw	r28, 0x07	; 7
    48fe:	0f b6       	in	r0, 0x3f	; 63
    4900:	f8 94       	cli
    4902:	de bf       	out	0x3e, r29	; 62
    4904:	0f be       	out	0x3f, r0	; 63
    4906:	cd bf       	out	0x3d, r28	; 61
    4908:	8a 83       	std	Y+2, r24	; 0x02
    490a:	7c 83       	std	Y+4, r23	; 0x04
    490c:	6b 83       	std	Y+3, r22	; 0x03
    490e:	4d 83       	std	Y+5, r20	; 0x05
    4910:	2e 83       	std	Y+6, r18	; 0x06
    4912:	0f 83       	std	Y+7, r16	; 0x07
    4914:	8d 81       	ldd	r24, Y+5	; 0x05
    4916:	81 32       	cpi	r24, 0x21	; 33
    4918:	10 f0       	brcs	.+4      	; 0x491e <twi_writeTo+0x2c>
    491a:	81 e0       	ldi	r24, 0x01	; 1
    491c:	6d c0       	rjmp	.+218    	; 0x49f8 <twi_writeTo+0x106>
    491e:	01 c0       	rjmp	.+2      	; 0x4922 <twi_writeTo+0x30>
    4920:	00 00       	nop
    4922:	80 91 b4 03 	lds	r24, 0x03B4
    4926:	88 23       	and	r24, r24
    4928:	d9 f7       	brne	.-10     	; 0x4920 <twi_writeTo+0x2e>
    492a:	82 e0       	ldi	r24, 0x02	; 2
    492c:	80 93 b4 03 	sts	0x03B4, r24
    4930:	8f 81       	ldd	r24, Y+7	; 0x07
    4932:	80 93 b6 03 	sts	0x03B6, r24
    4936:	8f ef       	ldi	r24, 0xFF	; 255
    4938:	80 93 21 04 	sts	0x0421, r24
    493c:	10 92 dc 03 	sts	0x03DC, r1
    4940:	8d 81       	ldd	r24, Y+5	; 0x05
    4942:	80 93 dd 03 	sts	0x03DD, r24
    4946:	19 82       	std	Y+1, r1	; 0x01
    4948:	13 c0       	rjmp	.+38     	; 0x4970 <twi_writeTo+0x7e>
    494a:	89 81       	ldd	r24, Y+1	; 0x01
    494c:	88 2f       	mov	r24, r24
    494e:	90 e0       	ldi	r25, 0x00	; 0
    4950:	29 81       	ldd	r18, Y+1	; 0x01
    4952:	22 2f       	mov	r18, r18
    4954:	30 e0       	ldi	r19, 0x00	; 0
    4956:	4b 81       	ldd	r20, Y+3	; 0x03
    4958:	5c 81       	ldd	r21, Y+4	; 0x04
    495a:	24 0f       	add	r18, r20
    495c:	35 1f       	adc	r19, r21
    495e:	f9 01       	movw	r30, r18
    4960:	20 81       	ld	r18, Z
    4962:	84 54       	subi	r24, 0x44	; 68
    4964:	9c 4f       	sbci	r25, 0xFC	; 252
    4966:	fc 01       	movw	r30, r24
    4968:	20 83       	st	Z, r18
    496a:	89 81       	ldd	r24, Y+1	; 0x01
    496c:	8f 5f       	subi	r24, 0xFF	; 255
    496e:	89 83       	std	Y+1, r24	; 0x01
    4970:	99 81       	ldd	r25, Y+1	; 0x01
    4972:	8d 81       	ldd	r24, Y+5	; 0x05
    4974:	98 17       	cp	r25, r24
    4976:	48 f3       	brcs	.-46     	; 0x494a <twi_writeTo+0x58>
    4978:	10 92 b5 03 	sts	0x03B5, r1
    497c:	8a 81       	ldd	r24, Y+2	; 0x02
    497e:	88 2f       	mov	r24, r24
    4980:	90 e0       	ldi	r25, 0x00	; 0
    4982:	88 0f       	add	r24, r24
    4984:	99 1f       	adc	r25, r25
    4986:	98 2f       	mov	r25, r24
    4988:	80 91 b5 03 	lds	r24, 0x03B5
    498c:	89 2b       	or	r24, r25
    498e:	80 93 b5 03 	sts	0x03B5, r24
    4992:	80 91 b7 03 	lds	r24, 0x03B7
    4996:	81 30       	cpi	r24, 0x01	; 1
    4998:	71 f4       	brne	.+28     	; 0x49b6 <twi_writeTo+0xc4>
    499a:	10 92 b7 03 	sts	0x03B7, r1
    499e:	8b eb       	ldi	r24, 0xBB	; 187
    49a0:	90 e0       	ldi	r25, 0x00	; 0
    49a2:	20 91 b5 03 	lds	r18, 0x03B5
    49a6:	fc 01       	movw	r30, r24
    49a8:	20 83       	st	Z, r18
    49aa:	8c eb       	ldi	r24, 0xBC	; 188
    49ac:	90 e0       	ldi	r25, 0x00	; 0
    49ae:	25 ec       	ldi	r18, 0xC5	; 197
    49b0:	fc 01       	movw	r30, r24
    49b2:	20 83       	st	Z, r18
    49b4:	07 c0       	rjmp	.+14     	; 0x49c4 <twi_writeTo+0xd2>
    49b6:	8c eb       	ldi	r24, 0xBC	; 188
    49b8:	90 e0       	ldi	r25, 0x00	; 0
    49ba:	25 ee       	ldi	r18, 0xE5	; 229
    49bc:	fc 01       	movw	r30, r24
    49be:	20 83       	st	Z, r18
    49c0:	01 c0       	rjmp	.+2      	; 0x49c4 <twi_writeTo+0xd2>
    49c2:	00 00       	nop
    49c4:	8e 81       	ldd	r24, Y+6	; 0x06
    49c6:	88 23       	and	r24, r24
    49c8:	21 f0       	breq	.+8      	; 0x49d2 <twi_writeTo+0xe0>
    49ca:	80 91 b4 03 	lds	r24, 0x03B4
    49ce:	82 30       	cpi	r24, 0x02	; 2
    49d0:	c1 f3       	breq	.-16     	; 0x49c2 <twi_writeTo+0xd0>
    49d2:	80 91 21 04 	lds	r24, 0x0421
    49d6:	8f 3f       	cpi	r24, 0xFF	; 255
    49d8:	11 f4       	brne	.+4      	; 0x49de <twi_writeTo+0xec>
    49da:	80 e0       	ldi	r24, 0x00	; 0
    49dc:	0d c0       	rjmp	.+26     	; 0x49f8 <twi_writeTo+0x106>
    49de:	80 91 21 04 	lds	r24, 0x0421
    49e2:	80 32       	cpi	r24, 0x20	; 32
    49e4:	11 f4       	brne	.+4      	; 0x49ea <twi_writeTo+0xf8>
    49e6:	82 e0       	ldi	r24, 0x02	; 2
    49e8:	07 c0       	rjmp	.+14     	; 0x49f8 <twi_writeTo+0x106>
    49ea:	80 91 21 04 	lds	r24, 0x0421
    49ee:	80 33       	cpi	r24, 0x30	; 48
    49f0:	11 f4       	brne	.+4      	; 0x49f6 <twi_writeTo+0x104>
    49f2:	83 e0       	ldi	r24, 0x03	; 3
    49f4:	01 c0       	rjmp	.+2      	; 0x49f8 <twi_writeTo+0x106>
    49f6:	84 e0       	ldi	r24, 0x04	; 4
    49f8:	27 96       	adiw	r28, 0x07	; 7
    49fa:	0f b6       	in	r0, 0x3f	; 63
    49fc:	f8 94       	cli
    49fe:	de bf       	out	0x3e, r29	; 62
    4a00:	0f be       	out	0x3f, r0	; 63
    4a02:	cd bf       	out	0x3d, r28	; 61
    4a04:	df 91       	pop	r29
    4a06:	cf 91       	pop	r28
    4a08:	0f 91       	pop	r16
    4a0a:	08 95       	ret

00004a0c <twi_transmit>:
    4a0c:	cf 93       	push	r28
    4a0e:	df 93       	push	r29
    4a10:	00 d0       	rcall	.+0      	; 0x4a12 <twi_transmit+0x6>
    4a12:	00 d0       	rcall	.+0      	; 0x4a14 <twi_transmit+0x8>
    4a14:	cd b7       	in	r28, 0x3d	; 61
    4a16:	de b7       	in	r29, 0x3e	; 62
    4a18:	9b 83       	std	Y+3, r25	; 0x03
    4a1a:	8a 83       	std	Y+2, r24	; 0x02
    4a1c:	6c 83       	std	Y+4, r22	; 0x04
    4a1e:	8c 81       	ldd	r24, Y+4	; 0x04
    4a20:	81 32       	cpi	r24, 0x21	; 33
    4a22:	10 f0       	brcs	.+4      	; 0x4a28 <twi_transmit+0x1c>
    4a24:	81 e0       	ldi	r24, 0x01	; 1
    4a26:	23 c0       	rjmp	.+70     	; 0x4a6e <twi_transmit+0x62>
    4a28:	80 91 b4 03 	lds	r24, 0x03B4
    4a2c:	84 30       	cpi	r24, 0x04	; 4
    4a2e:	11 f0       	breq	.+4      	; 0x4a34 <twi_transmit+0x28>
    4a30:	82 e0       	ldi	r24, 0x02	; 2
    4a32:	1d c0       	rjmp	.+58     	; 0x4a6e <twi_transmit+0x62>
    4a34:	8c 81       	ldd	r24, Y+4	; 0x04
    4a36:	80 93 ff 03 	sts	0x03FF, r24
    4a3a:	19 82       	std	Y+1, r1	; 0x01
    4a3c:	13 c0       	rjmp	.+38     	; 0x4a64 <twi_transmit+0x58>
    4a3e:	89 81       	ldd	r24, Y+1	; 0x01
    4a40:	88 2f       	mov	r24, r24
    4a42:	90 e0       	ldi	r25, 0x00	; 0
    4a44:	29 81       	ldd	r18, Y+1	; 0x01
    4a46:	22 2f       	mov	r18, r18
    4a48:	30 e0       	ldi	r19, 0x00	; 0
    4a4a:	4a 81       	ldd	r20, Y+2	; 0x02
    4a4c:	5b 81       	ldd	r21, Y+3	; 0x03
    4a4e:	24 0f       	add	r18, r20
    4a50:	35 1f       	adc	r19, r21
    4a52:	f9 01       	movw	r30, r18
    4a54:	20 81       	ld	r18, Z
    4a56:	82 52       	subi	r24, 0x22	; 34
    4a58:	9c 4f       	sbci	r25, 0xFC	; 252
    4a5a:	fc 01       	movw	r30, r24
    4a5c:	20 83       	st	Z, r18
    4a5e:	89 81       	ldd	r24, Y+1	; 0x01
    4a60:	8f 5f       	subi	r24, 0xFF	; 255
    4a62:	89 83       	std	Y+1, r24	; 0x01
    4a64:	99 81       	ldd	r25, Y+1	; 0x01
    4a66:	8c 81       	ldd	r24, Y+4	; 0x04
    4a68:	98 17       	cp	r25, r24
    4a6a:	48 f3       	brcs	.-46     	; 0x4a3e <twi_transmit+0x32>
    4a6c:	80 e0       	ldi	r24, 0x00	; 0
    4a6e:	0f 90       	pop	r0
    4a70:	0f 90       	pop	r0
    4a72:	0f 90       	pop	r0
    4a74:	0f 90       	pop	r0
    4a76:	df 91       	pop	r29
    4a78:	cf 91       	pop	r28
    4a7a:	08 95       	ret

00004a7c <twi_reply>:
 * Desc     sends byte or readys receive line
 * Input    ack: byte indicating to ack or to nack
 * Output   none
 */
void twi_reply(uint8_t ack)
{
    4a7c:	cf 93       	push	r28
    4a7e:	df 93       	push	r29
    4a80:	1f 92       	push	r1
    4a82:	cd b7       	in	r28, 0x3d	; 61
    4a84:	de b7       	in	r29, 0x3e	; 62
    4a86:	89 83       	std	Y+1, r24	; 0x01
  // transmit master read ready signal, with or without ack
  if(ack){
    4a88:	89 81       	ldd	r24, Y+1	; 0x01
    4a8a:	88 23       	and	r24, r24
    4a8c:	31 f0       	breq	.+12     	; 0x4a9a <twi_reply+0x1e>
    TWCR = _BV(TWEN) | _BV(TWIE) | _BV(TWINT) | _BV(TWEA);
    4a8e:	8c eb       	ldi	r24, 0xBC	; 188
    4a90:	90 e0       	ldi	r25, 0x00	; 0
    4a92:	25 ec       	ldi	r18, 0xC5	; 197
    4a94:	fc 01       	movw	r30, r24
    4a96:	20 83       	st	Z, r18
    4a98:	05 c0       	rjmp	.+10     	; 0x4aa4 <twi_reply+0x28>
  }else{
	  TWCR = _BV(TWEN) | _BV(TWIE) | _BV(TWINT);
    4a9a:	8c eb       	ldi	r24, 0xBC	; 188
    4a9c:	90 e0       	ldi	r25, 0x00	; 0
    4a9e:	25 e8       	ldi	r18, 0x85	; 133
    4aa0:	fc 01       	movw	r30, r24
    4aa2:	20 83       	st	Z, r18
  }
}
    4aa4:	0f 90       	pop	r0
    4aa6:	df 91       	pop	r29
    4aa8:	cf 91       	pop	r28
    4aaa:	08 95       	ret

00004aac <twi_stop>:
 * Desc     relinquishes bus master status
 * Input    none
 * Output   none
 */
void twi_stop(void)
{
    4aac:	cf 93       	push	r28
    4aae:	df 93       	push	r29
    4ab0:	cd b7       	in	r28, 0x3d	; 61
    4ab2:	de b7       	in	r29, 0x3e	; 62
  // send stop condition
  TWCR = _BV(TWEN) | _BV(TWIE) | _BV(TWEA) | _BV(TWINT) | _BV(TWSTO);
    4ab4:	8c eb       	ldi	r24, 0xBC	; 188
    4ab6:	90 e0       	ldi	r25, 0x00	; 0
    4ab8:	25 ed       	ldi	r18, 0xD5	; 213
    4aba:	fc 01       	movw	r30, r24
    4abc:	20 83       	st	Z, r18

  // wait for stop condition to be exectued on bus
  // TWINT is not set after a stop condition!
  while(TWCR & _BV(TWSTO)){
    4abe:	01 c0       	rjmp	.+2      	; 0x4ac2 <twi_stop+0x16>
    continue;
    4ac0:	00 00       	nop
  // send stop condition
  TWCR = _BV(TWEN) | _BV(TWIE) | _BV(TWEA) | _BV(TWINT) | _BV(TWSTO);

  // wait for stop condition to be exectued on bus
  // TWINT is not set after a stop condition!
  while(TWCR & _BV(TWSTO)){
    4ac2:	8c eb       	ldi	r24, 0xBC	; 188
    4ac4:	90 e0       	ldi	r25, 0x00	; 0
    4ac6:	fc 01       	movw	r30, r24
    4ac8:	80 81       	ld	r24, Z
    4aca:	88 2f       	mov	r24, r24
    4acc:	90 e0       	ldi	r25, 0x00	; 0
    4ace:	80 71       	andi	r24, 0x10	; 16
    4ad0:	99 27       	eor	r25, r25
    4ad2:	00 97       	sbiw	r24, 0x00	; 0
    4ad4:	a9 f7       	brne	.-22     	; 0x4ac0 <twi_stop+0x14>
    continue;
  }

  // update twi state
  twi_state = TWI_READY;
    4ad6:	10 92 b4 03 	sts	0x03B4, r1
}
    4ada:	df 91       	pop	r29
    4adc:	cf 91       	pop	r28
    4ade:	08 95       	ret

00004ae0 <twi_releaseBus>:
 * Desc     releases bus control
 * Input    none
 * Output   none
 */
void twi_releaseBus(void)
{
    4ae0:	cf 93       	push	r28
    4ae2:	df 93       	push	r29
    4ae4:	cd b7       	in	r28, 0x3d	; 61
    4ae6:	de b7       	in	r29, 0x3e	; 62
  // release bus
  TWCR = _BV(TWEN) | _BV(TWIE) | _BV(TWEA) | _BV(TWINT);
    4ae8:	8c eb       	ldi	r24, 0xBC	; 188
    4aea:	90 e0       	ldi	r25, 0x00	; 0
    4aec:	25 ec       	ldi	r18, 0xC5	; 197
    4aee:	fc 01       	movw	r30, r24
    4af0:	20 83       	st	Z, r18

  // update twi state
  twi_state = TWI_READY;
    4af2:	10 92 b4 03 	sts	0x03B4, r1
}
    4af6:	df 91       	pop	r29
    4af8:	cf 91       	pop	r28
    4afa:	08 95       	ret

00004afc <__vector_24>:

SIGNAL(TWI_vect)
{
    4afc:	1f 92       	push	r1
    4afe:	0f 92       	push	r0
    4b00:	00 90 5f 00 	lds	r0, 0x005F
    4b04:	0f 92       	push	r0
    4b06:	11 24       	eor	r1, r1
    4b08:	2f 93       	push	r18
    4b0a:	3f 93       	push	r19
    4b0c:	4f 93       	push	r20
    4b0e:	5f 93       	push	r21
    4b10:	6f 93       	push	r22
    4b12:	7f 93       	push	r23
    4b14:	8f 93       	push	r24
    4b16:	9f 93       	push	r25
    4b18:	af 93       	push	r26
    4b1a:	bf 93       	push	r27
    4b1c:	ef 93       	push	r30
    4b1e:	ff 93       	push	r31
    4b20:	cf 93       	push	r28
    4b22:	df 93       	push	r29
    4b24:	cd b7       	in	r28, 0x3d	; 61
    4b26:	de b7       	in	r29, 0x3e	; 62
  switch(TW_STATUS){
    4b28:	89 eb       	ldi	r24, 0xB9	; 185
    4b2a:	90 e0       	ldi	r25, 0x00	; 0
    4b2c:	fc 01       	movw	r30, r24
    4b2e:	80 81       	ld	r24, Z
    4b30:	88 2f       	mov	r24, r24
    4b32:	90 e0       	ldi	r25, 0x00	; 0
    4b34:	88 7f       	andi	r24, 0xF8	; 248
    4b36:	99 27       	eor	r25, r25
    4b38:	aa 27       	eor	r26, r26
    4b3a:	97 fd       	sbrc	r25, 7
    4b3c:	a0 95       	com	r26
    4b3e:	ba 2f       	mov	r27, r26
    4b40:	40 e0       	ldi	r20, 0x00	; 0
    4b42:	50 e0       	ldi	r21, 0x00	; 0
    4b44:	28 ef       	ldi	r18, 0xF8	; 248
    4b46:	30 e0       	ldi	r19, 0x00	; 0
    4b48:	84 1b       	sub	r24, r20
    4b4a:	95 0b       	sbc	r25, r21
    4b4c:	28 17       	cp	r18, r24
    4b4e:	39 07       	cpc	r19, r25
    4b50:	08 f4       	brcc	.+2      	; 0x4b54 <__vector_24+0x58>
    4b52:	05 c1       	rjmp	.+522    	; 0x4d5e <__vector_24+0x262>
    4b54:	8c 5c       	subi	r24, 0xCC	; 204
    4b56:	9f 4f       	sbci	r25, 0xFF	; 255
    4b58:	fc 01       	movw	r30, r24
    4b5a:	0c 94 b9 3e 	jmp	0x7d72	; 0x7d72 <__tablejump2__>
    // All Master
    case TW_START:     // sent start condition
    case TW_REP_START: // sent repeated start condition
      // copy device address and r/w bit to output register and ack
      TWDR = twi_slarw;
    4b5e:	8b eb       	ldi	r24, 0xBB	; 187
    4b60:	90 e0       	ldi	r25, 0x00	; 0
    4b62:	20 91 b5 03 	lds	r18, 0x03B5
    4b66:	fc 01       	movw	r30, r24
    4b68:	20 83       	st	Z, r18
      twi_reply(1);
    4b6a:	81 e0       	ldi	r24, 0x01	; 1
    4b6c:	87 df       	rcall	.-242    	; 0x4a7c <twi_reply>
      break;
    4b6e:	f7 c0       	rjmp	.+494    	; 0x4d5e <__vector_24+0x262>

    // Master Transmitter
    case TW_MT_SLA_ACK:  // slave receiver acked address
    case TW_MT_DATA_ACK: // slave receiver acked data
      // if there is data to send, send it, otherwise stop 
      if(twi_masterBufferIndex < twi_masterBufferLength){
    4b70:	90 91 dc 03 	lds	r25, 0x03DC
    4b74:	80 91 dd 03 	lds	r24, 0x03DD
    4b78:	98 17       	cp	r25, r24
    4b7a:	98 f4       	brcc	.+38     	; 0x4ba2 <__vector_24+0xa6>
        // copy data to output register and ack
        TWDR = twi_masterBuffer[twi_masterBufferIndex++];
    4b7c:	8b eb       	ldi	r24, 0xBB	; 187
    4b7e:	90 e0       	ldi	r25, 0x00	; 0
    4b80:	20 91 dc 03 	lds	r18, 0x03DC
    4b84:	31 e0       	ldi	r19, 0x01	; 1
    4b86:	32 0f       	add	r19, r18
    4b88:	30 93 dc 03 	sts	0x03DC, r19
    4b8c:	22 2f       	mov	r18, r18
    4b8e:	30 e0       	ldi	r19, 0x00	; 0
    4b90:	24 54       	subi	r18, 0x44	; 68
    4b92:	3c 4f       	sbci	r19, 0xFC	; 252
    4b94:	f9 01       	movw	r30, r18
    4b96:	20 81       	ld	r18, Z
    4b98:	fc 01       	movw	r30, r24
    4b9a:	20 83       	st	Z, r18
        twi_reply(1);
    4b9c:	81 e0       	ldi	r24, 0x01	; 1
    4b9e:	6e df       	rcall	.-292    	; 0x4a7c <twi_reply>
    4ba0:	11 c0       	rjmp	.+34     	; 0x4bc4 <__vector_24+0xc8>
      }else{
	if (twi_sendStop)
    4ba2:	80 91 b6 03 	lds	r24, 0x03B6
    4ba6:	88 23       	and	r24, r24
    4ba8:	11 f0       	breq	.+4      	; 0x4bae <__vector_24+0xb2>
          twi_stop();
    4baa:	80 df       	rcall	.-256    	; 0x4aac <twi_stop>
    4bac:	0b c0       	rjmp	.+22     	; 0x4bc4 <__vector_24+0xc8>
	else {
	  twi_inRepStart = true;	// we're gonna send the START
    4bae:	81 e0       	ldi	r24, 0x01	; 1
    4bb0:	80 93 b7 03 	sts	0x03B7, r24
	  // don't enable the interrupt. We'll generate the start, but we 
	  // avoid handling the interrupt until we're in the next transaction,
	  // at the point where we would normally issue the start.
	  TWCR = _BV(TWINT) | _BV(TWSTA)| _BV(TWEN) ;
    4bb4:	8c eb       	ldi	r24, 0xBC	; 188
    4bb6:	90 e0       	ldi	r25, 0x00	; 0
    4bb8:	24 ea       	ldi	r18, 0xA4	; 164
    4bba:	fc 01       	movw	r30, r24
    4bbc:	20 83       	st	Z, r18
	  twi_state = TWI_READY;
    4bbe:	10 92 b4 03 	sts	0x03B4, r1
	}
      }
      break;
    4bc2:	cd c0       	rjmp	.+410    	; 0x4d5e <__vector_24+0x262>
    4bc4:	cc c0       	rjmp	.+408    	; 0x4d5e <__vector_24+0x262>
    case TW_MT_SLA_NACK:  // address sent, nack received
      twi_error = TW_MT_SLA_NACK;
    4bc6:	80 e2       	ldi	r24, 0x20	; 32
    4bc8:	80 93 21 04 	sts	0x0421, r24
      twi_stop();
    4bcc:	6f df       	rcall	.-290    	; 0x4aac <twi_stop>
      break;
    4bce:	c7 c0       	rjmp	.+398    	; 0x4d5e <__vector_24+0x262>
    case TW_MT_DATA_NACK: // data sent, nack received
      twi_error = TW_MT_DATA_NACK;
    4bd0:	80 e3       	ldi	r24, 0x30	; 48
    4bd2:	80 93 21 04 	sts	0x0421, r24
      twi_stop();
    4bd6:	6a df       	rcall	.-300    	; 0x4aac <twi_stop>
      break;
    4bd8:	c2 c0       	rjmp	.+388    	; 0x4d5e <__vector_24+0x262>
    case TW_MT_ARB_LOST: // lost bus arbitration
      twi_error = TW_MT_ARB_LOST;
    4bda:	88 e3       	ldi	r24, 0x38	; 56
    4bdc:	80 93 21 04 	sts	0x0421, r24
      twi_releaseBus();
    4be0:	7f df       	rcall	.-258    	; 0x4ae0 <twi_releaseBus>
      break;
    4be2:	bd c0       	rjmp	.+378    	; 0x4d5e <__vector_24+0x262>

    // Master Receiver
    case TW_MR_DATA_ACK: // data received, ack sent
      // put byte into buffer
      twi_masterBuffer[twi_masterBufferIndex++] = TWDR;
    4be4:	80 91 dc 03 	lds	r24, 0x03DC
    4be8:	91 e0       	ldi	r25, 0x01	; 1
    4bea:	98 0f       	add	r25, r24
    4bec:	90 93 dc 03 	sts	0x03DC, r25
    4bf0:	88 2f       	mov	r24, r24
    4bf2:	90 e0       	ldi	r25, 0x00	; 0
    4bf4:	2b eb       	ldi	r18, 0xBB	; 187
    4bf6:	30 e0       	ldi	r19, 0x00	; 0
    4bf8:	f9 01       	movw	r30, r18
    4bfa:	20 81       	ld	r18, Z
    4bfc:	84 54       	subi	r24, 0x44	; 68
    4bfe:	9c 4f       	sbci	r25, 0xFC	; 252
    4c00:	fc 01       	movw	r30, r24
    4c02:	20 83       	st	Z, r18
    case TW_MR_SLA_ACK:  // address sent, ack received
      // ack if more bytes are expected, otherwise nack
      if(twi_masterBufferIndex < twi_masterBufferLength){
    4c04:	90 91 dc 03 	lds	r25, 0x03DC
    4c08:	80 91 dd 03 	lds	r24, 0x03DD
    4c0c:	98 17       	cp	r25, r24
    4c0e:	18 f4       	brcc	.+6      	; 0x4c16 <__vector_24+0x11a>
        twi_reply(1);
    4c10:	81 e0       	ldi	r24, 0x01	; 1
    4c12:	34 df       	rcall	.-408    	; 0x4a7c <twi_reply>
      }else{
        twi_reply(0);
      }
      break;
    4c14:	a4 c0       	rjmp	.+328    	; 0x4d5e <__vector_24+0x262>
    case TW_MR_SLA_ACK:  // address sent, ack received
      // ack if more bytes are expected, otherwise nack
      if(twi_masterBufferIndex < twi_masterBufferLength){
        twi_reply(1);
      }else{
        twi_reply(0);
    4c16:	80 e0       	ldi	r24, 0x00	; 0
    4c18:	31 df       	rcall	.-414    	; 0x4a7c <twi_reply>
      }
      break;
    4c1a:	a1 c0       	rjmp	.+322    	; 0x4d5e <__vector_24+0x262>
    case TW_MR_DATA_NACK: // data received, nack sent
      // put final byte into buffer
      twi_masterBuffer[twi_masterBufferIndex++] = TWDR;
    4c1c:	80 91 dc 03 	lds	r24, 0x03DC
    4c20:	91 e0       	ldi	r25, 0x01	; 1
    4c22:	98 0f       	add	r25, r24
    4c24:	90 93 dc 03 	sts	0x03DC, r25
    4c28:	88 2f       	mov	r24, r24
    4c2a:	90 e0       	ldi	r25, 0x00	; 0
    4c2c:	2b eb       	ldi	r18, 0xBB	; 187
    4c2e:	30 e0       	ldi	r19, 0x00	; 0
    4c30:	f9 01       	movw	r30, r18
    4c32:	20 81       	ld	r18, Z
    4c34:	84 54       	subi	r24, 0x44	; 68
    4c36:	9c 4f       	sbci	r25, 0xFC	; 252
    4c38:	fc 01       	movw	r30, r24
    4c3a:	20 83       	st	Z, r18
	if (twi_sendStop)
    4c3c:	80 91 b6 03 	lds	r24, 0x03B6
    4c40:	88 23       	and	r24, r24
    4c42:	11 f0       	breq	.+4      	; 0x4c48 <__vector_24+0x14c>
          twi_stop();
    4c44:	33 df       	rcall	.-410    	; 0x4aac <twi_stop>
	  // avoid handling the interrupt until we're in the next transaction,
	  // at the point where we would normally issue the start.
	  TWCR = _BV(TWINT) | _BV(TWSTA)| _BV(TWEN) ;
	  twi_state = TWI_READY;
	}    
	break;
    4c46:	8b c0       	rjmp	.+278    	; 0x4d5e <__vector_24+0x262>
      // put final byte into buffer
      twi_masterBuffer[twi_masterBufferIndex++] = TWDR;
	if (twi_sendStop)
          twi_stop();
	else {
	  twi_inRepStart = true;	// we're gonna send the START
    4c48:	81 e0       	ldi	r24, 0x01	; 1
    4c4a:	80 93 b7 03 	sts	0x03B7, r24
	  // don't enable the interrupt. We'll generate the start, but we 
	  // avoid handling the interrupt until we're in the next transaction,
	  // at the point where we would normally issue the start.
	  TWCR = _BV(TWINT) | _BV(TWSTA)| _BV(TWEN) ;
    4c4e:	8c eb       	ldi	r24, 0xBC	; 188
    4c50:	90 e0       	ldi	r25, 0x00	; 0
    4c52:	24 ea       	ldi	r18, 0xA4	; 164
    4c54:	fc 01       	movw	r30, r24
    4c56:	20 83       	st	Z, r18
	  twi_state = TWI_READY;
    4c58:	10 92 b4 03 	sts	0x03B4, r1
	}    
	break;
    4c5c:	80 c0       	rjmp	.+256    	; 0x4d5e <__vector_24+0x262>
    case TW_MR_SLA_NACK: // address sent, nack received
      twi_stop();
    4c5e:	26 df       	rcall	.-436    	; 0x4aac <twi_stop>
      break;
    4c60:	7e c0       	rjmp	.+252    	; 0x4d5e <__vector_24+0x262>
    case TW_SR_SLA_ACK:   // addressed, returned ack
    case TW_SR_GCALL_ACK: // addressed generally, returned ack
    case TW_SR_ARB_LOST_SLA_ACK:   // lost arbitration, returned ack
    case TW_SR_ARB_LOST_GCALL_ACK: // lost arbitration, returned ack
      // enter slave receiver mode
      twi_state = TWI_SRX;
    4c62:	83 e0       	ldi	r24, 0x03	; 3
    4c64:	80 93 b4 03 	sts	0x03B4, r24
      // indicate that rx buffer can be overwritten and ack
      twi_rxBufferIndex = 0;
    4c68:	10 92 20 04 	sts	0x0420, r1
      twi_reply(1);
    4c6c:	81 e0       	ldi	r24, 0x01	; 1
    4c6e:	06 df       	rcall	.-500    	; 0x4a7c <twi_reply>
      break;
    4c70:	76 c0       	rjmp	.+236    	; 0x4d5e <__vector_24+0x262>
    case TW_SR_DATA_ACK:       // data received, returned ack
    case TW_SR_GCALL_DATA_ACK: // data received generally, returned ack
      // if there is still room in the rx buffer
      if(twi_rxBufferIndex < TWI_BUFFER_LENGTH){
    4c72:	80 91 20 04 	lds	r24, 0x0420
    4c76:	80 32       	cpi	r24, 0x20	; 32
    4c78:	98 f4       	brcc	.+38     	; 0x4ca0 <__vector_24+0x1a4>
        // put byte in buffer and ack
        twi_rxBuffer[twi_rxBufferIndex++] = TWDR;
    4c7a:	80 91 20 04 	lds	r24, 0x0420
    4c7e:	91 e0       	ldi	r25, 0x01	; 1
    4c80:	98 0f       	add	r25, r24
    4c82:	90 93 20 04 	sts	0x0420, r25
    4c86:	88 2f       	mov	r24, r24
    4c88:	90 e0       	ldi	r25, 0x00	; 0
    4c8a:	2b eb       	ldi	r18, 0xBB	; 187
    4c8c:	30 e0       	ldi	r19, 0x00	; 0
    4c8e:	f9 01       	movw	r30, r18
    4c90:	20 81       	ld	r18, Z
    4c92:	80 50       	subi	r24, 0x00	; 0
    4c94:	9c 4f       	sbci	r25, 0xFC	; 252
    4c96:	fc 01       	movw	r30, r24
    4c98:	20 83       	st	Z, r18
        twi_reply(1);
    4c9a:	81 e0       	ldi	r24, 0x01	; 1
    4c9c:	ef de       	rcall	.-546    	; 0x4a7c <twi_reply>
      }else{
        // otherwise nack
        twi_reply(0);
      }
      break;
    4c9e:	5f c0       	rjmp	.+190    	; 0x4d5e <__vector_24+0x262>
        // put byte in buffer and ack
        twi_rxBuffer[twi_rxBufferIndex++] = TWDR;
        twi_reply(1);
      }else{
        // otherwise nack
        twi_reply(0);
    4ca0:	80 e0       	ldi	r24, 0x00	; 0
    4ca2:	ec de       	rcall	.-552    	; 0x4a7c <twi_reply>
      }
      break;
    4ca4:	5c c0       	rjmp	.+184    	; 0x4d5e <__vector_24+0x262>
    case TW_SR_STOP: // stop or repeated start condition received
      // put a null char after data if there's room
      if(twi_rxBufferIndex < TWI_BUFFER_LENGTH){
    4ca6:	80 91 20 04 	lds	r24, 0x0420
    4caa:	80 32       	cpi	r24, 0x20	; 32
    4cac:	40 f4       	brcc	.+16     	; 0x4cbe <__vector_24+0x1c2>
        twi_rxBuffer[twi_rxBufferIndex] = '\0';
    4cae:	80 91 20 04 	lds	r24, 0x0420
    4cb2:	88 2f       	mov	r24, r24
    4cb4:	90 e0       	ldi	r25, 0x00	; 0
    4cb6:	80 50       	subi	r24, 0x00	; 0
    4cb8:	9c 4f       	sbci	r25, 0xFC	; 252
    4cba:	fc 01       	movw	r30, r24
    4cbc:	10 82       	st	Z, r1
      }
      // sends ack and stops interface for clock stretching
      twi_stop();
    4cbe:	f6 de       	rcall	.-532    	; 0x4aac <twi_stop>
      // callback to user defined callback
      twi_onSlaveReceive(twi_rxBuffer, twi_rxBufferIndex);
    4cc0:	20 91 ba 03 	lds	r18, 0x03BA
    4cc4:	30 91 bb 03 	lds	r19, 0x03BB
    4cc8:	80 91 20 04 	lds	r24, 0x0420
    4ccc:	88 2f       	mov	r24, r24
    4cce:	90 e0       	ldi	r25, 0x00	; 0
    4cd0:	bc 01       	movw	r22, r24
    4cd2:	80 e0       	ldi	r24, 0x00	; 0
    4cd4:	94 e0       	ldi	r25, 0x04	; 4
    4cd6:	f9 01       	movw	r30, r18
    4cd8:	09 95       	icall
      // since we submit rx buffer to "wire" library, we can reset it
      twi_rxBufferIndex = 0;
    4cda:	10 92 20 04 	sts	0x0420, r1
      // ack future responses and leave slave receiver state
      twi_releaseBus();
    4cde:	00 df       	rcall	.-512    	; 0x4ae0 <twi_releaseBus>
      break;
    4ce0:	3e c0       	rjmp	.+124    	; 0x4d5e <__vector_24+0x262>
    case TW_SR_DATA_NACK:       // data received, returned nack
    case TW_SR_GCALL_DATA_NACK: // data received generally, returned nack
      // nack back at master
      twi_reply(0);
    4ce2:	80 e0       	ldi	r24, 0x00	; 0
    4ce4:	cb de       	rcall	.-618    	; 0x4a7c <twi_reply>
      break;
    4ce6:	3b c0       	rjmp	.+118    	; 0x4d5e <__vector_24+0x262>
    
    // Slave Transmitter
    case TW_ST_SLA_ACK:          // addressed, returned ack
    case TW_ST_ARB_LOST_SLA_ACK: // arbitration lost, returned ack
      // enter slave transmitter mode
      twi_state = TWI_STX;
    4ce8:	84 e0       	ldi	r24, 0x04	; 4
    4cea:	80 93 b4 03 	sts	0x03B4, r24
      // ready the tx buffer index for iteration
      twi_txBufferIndex = 0;
    4cee:	10 92 fe 03 	sts	0x03FE, r1
      // set tx buffer length to be zero, to verify if user changes it
      twi_txBufferLength = 0;
    4cf2:	10 92 ff 03 	sts	0x03FF, r1
      // request for txBuffer to be filled and length to be set
      // note: user must call twi_transmit(bytes, length) to do this
      twi_onSlaveTransmit();
    4cf6:	80 91 b8 03 	lds	r24, 0x03B8
    4cfa:	90 91 b9 03 	lds	r25, 0x03B9
    4cfe:	fc 01       	movw	r30, r24
    4d00:	09 95       	icall
      // if they didn't change buffer & length, initialize it
      if(0 == twi_txBufferLength){
    4d02:	80 91 ff 03 	lds	r24, 0x03FF
    4d06:	88 23       	and	r24, r24
    4d08:	29 f4       	brne	.+10     	; 0x4d14 <__vector_24+0x218>
        twi_txBufferLength = 1;
    4d0a:	81 e0       	ldi	r24, 0x01	; 1
    4d0c:	80 93 ff 03 	sts	0x03FF, r24
        twi_txBuffer[0] = 0x00;
    4d10:	10 92 de 03 	sts	0x03DE, r1
      }
      // transmit first byte from buffer, fall
    case TW_ST_DATA_ACK: // byte sent, ack returned
      // copy data to output register
      TWDR = twi_txBuffer[twi_txBufferIndex++];
    4d14:	8b eb       	ldi	r24, 0xBB	; 187
    4d16:	90 e0       	ldi	r25, 0x00	; 0
    4d18:	20 91 fe 03 	lds	r18, 0x03FE
    4d1c:	31 e0       	ldi	r19, 0x01	; 1
    4d1e:	32 0f       	add	r19, r18
    4d20:	30 93 fe 03 	sts	0x03FE, r19
    4d24:	22 2f       	mov	r18, r18
    4d26:	30 e0       	ldi	r19, 0x00	; 0
    4d28:	22 52       	subi	r18, 0x22	; 34
    4d2a:	3c 4f       	sbci	r19, 0xFC	; 252
    4d2c:	f9 01       	movw	r30, r18
    4d2e:	20 81       	ld	r18, Z
    4d30:	fc 01       	movw	r30, r24
    4d32:	20 83       	st	Z, r18
      // if there is more to send, ack, otherwise nack
      if(twi_txBufferIndex < twi_txBufferLength){
    4d34:	90 91 fe 03 	lds	r25, 0x03FE
    4d38:	80 91 ff 03 	lds	r24, 0x03FF
    4d3c:	98 17       	cp	r25, r24
    4d3e:	18 f4       	brcc	.+6      	; 0x4d46 <__vector_24+0x24a>
        twi_reply(1);
    4d40:	81 e0       	ldi	r24, 0x01	; 1
    4d42:	9c de       	rcall	.-712    	; 0x4a7c <twi_reply>
      }else{
        twi_reply(0);
      }
      break;
    4d44:	0c c0       	rjmp	.+24     	; 0x4d5e <__vector_24+0x262>
      TWDR = twi_txBuffer[twi_txBufferIndex++];
      // if there is more to send, ack, otherwise nack
      if(twi_txBufferIndex < twi_txBufferLength){
        twi_reply(1);
      }else{
        twi_reply(0);
    4d46:	80 e0       	ldi	r24, 0x00	; 0
    4d48:	99 de       	rcall	.-718    	; 0x4a7c <twi_reply>
      }
      break;
    4d4a:	09 c0       	rjmp	.+18     	; 0x4d5e <__vector_24+0x262>
    case TW_ST_DATA_NACK: // received nack, we are done 
    case TW_ST_LAST_DATA: // received ack, but we are done already!
      // ack future responses
      twi_reply(1);
    4d4c:	81 e0       	ldi	r24, 0x01	; 1
    4d4e:	96 de       	rcall	.-724    	; 0x4a7c <twi_reply>
      // leave slave receiver state
      twi_state = TWI_READY;
    4d50:	10 92 b4 03 	sts	0x03B4, r1
      break;
    4d54:	04 c0       	rjmp	.+8      	; 0x4d5e <__vector_24+0x262>

    // All
    case TW_NO_INFO:   // no state information
      break;
    case TW_BUS_ERROR: // bus error, illegal stop/start
      twi_error = TW_BUS_ERROR;
    4d56:	10 92 21 04 	sts	0x0421, r1
      twi_stop();
    4d5a:	a8 de       	rcall	.-688    	; 0x4aac <twi_stop>
      break;
    4d5c:	00 00       	nop
  }
}
    4d5e:	df 91       	pop	r29
    4d60:	cf 91       	pop	r28
    4d62:	ff 91       	pop	r31
    4d64:	ef 91       	pop	r30
    4d66:	bf 91       	pop	r27
    4d68:	af 91       	pop	r26
    4d6a:	9f 91       	pop	r25
    4d6c:	8f 91       	pop	r24
    4d6e:	7f 91       	pop	r23
    4d70:	6f 91       	pop	r22
    4d72:	5f 91       	pop	r21
    4d74:	4f 91       	pop	r20
    4d76:	3f 91       	pop	r19
    4d78:	2f 91       	pop	r18
    4d7a:	0f 90       	pop	r0
    4d7c:	00 92 5f 00 	sts	0x005F, r0
    4d80:	0f 90       	pop	r0
    4d82:	1f 90       	pop	r1
    4d84:	18 95       	reti

00004d86 <_ZN5Print13setWriteErrorEi>:
    4d86:	cf 93       	push	r28
    4d88:	df 93       	push	r29
    4d8a:	00 d0       	rcall	.+0      	; 0x4d8c <_ZN5Print13setWriteErrorEi+0x6>
    4d8c:	00 d0       	rcall	.+0      	; 0x4d8e <_ZN5Print13setWriteErrorEi+0x8>
    4d8e:	cd b7       	in	r28, 0x3d	; 61
    4d90:	de b7       	in	r29, 0x3e	; 62
    4d92:	9a 83       	std	Y+2, r25	; 0x02
    4d94:	89 83       	std	Y+1, r24	; 0x01
    4d96:	7c 83       	std	Y+4, r23	; 0x04
    4d98:	6b 83       	std	Y+3, r22	; 0x03
    4d9a:	89 81       	ldd	r24, Y+1	; 0x01
    4d9c:	9a 81       	ldd	r25, Y+2	; 0x02
    4d9e:	2b 81       	ldd	r18, Y+3	; 0x03
    4da0:	3c 81       	ldd	r19, Y+4	; 0x04
    4da2:	fc 01       	movw	r30, r24
    4da4:	33 83       	std	Z+3, r19	; 0x03
    4da6:	22 83       	std	Z+2, r18	; 0x02
    4da8:	0f 90       	pop	r0
    4daa:	0f 90       	pop	r0
    4dac:	0f 90       	pop	r0
    4dae:	0f 90       	pop	r0
    4db0:	df 91       	pop	r29
    4db2:	cf 91       	pop	r28
    4db4:	08 95       	ret

00004db6 <_ZN6StreamC1Ev>:
    4db6:	cf 93       	push	r28
    4db8:	df 93       	push	r29
    4dba:	00 d0       	rcall	.+0      	; 0x4dbc <_ZN6StreamC1Ev+0x6>
    4dbc:	cd b7       	in	r28, 0x3d	; 61
    4dbe:	de b7       	in	r29, 0x3e	; 62
    4dc0:	9a 83       	std	Y+2, r25	; 0x02
    4dc2:	89 83       	std	Y+1, r24	; 0x01
    4dc4:	89 81       	ldd	r24, Y+1	; 0x01
    4dc6:	9a 81       	ldd	r25, Y+2	; 0x02
    4dc8:	0e 94 b2 04 	call	0x964	; 0x964 <_ZN5PrintC1Ev>
    4dcc:	89 81       	ldd	r24, Y+1	; 0x01
    4dce:	9a 81       	ldd	r25, Y+2	; 0x02
    4dd0:	20 e1       	ldi	r18, 0x10	; 16
    4dd2:	32 e0       	ldi	r19, 0x02	; 2
    4dd4:	fc 01       	movw	r30, r24
    4dd6:	31 83       	std	Z+1, r19	; 0x01
    4dd8:	20 83       	st	Z, r18
    4dda:	29 81       	ldd	r18, Y+1	; 0x01
    4ddc:	3a 81       	ldd	r19, Y+2	; 0x02
    4dde:	88 ee       	ldi	r24, 0xE8	; 232
    4de0:	93 e0       	ldi	r25, 0x03	; 3
    4de2:	a0 e0       	ldi	r26, 0x00	; 0
    4de4:	b0 e0       	ldi	r27, 0x00	; 0
    4de6:	f9 01       	movw	r30, r18
    4de8:	84 83       	std	Z+4, r24	; 0x04
    4dea:	95 83       	std	Z+5, r25	; 0x05
    4dec:	a6 83       	std	Z+6, r26	; 0x06
    4dee:	b7 83       	std	Z+7, r27	; 0x07
    4df0:	0f 90       	pop	r0
    4df2:	0f 90       	pop	r0
    4df4:	df 91       	pop	r29
    4df6:	cf 91       	pop	r28
    4df8:	08 95       	ret

00004dfa <_ZN7TwoWireC1Ev>:
    4dfa:	cf 93       	push	r28
    4dfc:	df 93       	push	r29
    4dfe:	00 d0       	rcall	.+0      	; 0x4e00 <_ZN7TwoWireC1Ev+0x6>
    4e00:	cd b7       	in	r28, 0x3d	; 61
    4e02:	de b7       	in	r29, 0x3e	; 62
    4e04:	9a 83       	std	Y+2, r25	; 0x02
    4e06:	89 83       	std	Y+1, r24	; 0x01
    4e08:	89 81       	ldd	r24, Y+1	; 0x01
    4e0a:	9a 81       	ldd	r25, Y+2	; 0x02
    4e0c:	d4 df       	rcall	.-88     	; 0x4db6 <_ZN6StreamC1Ev>
    4e0e:	89 81       	ldd	r24, Y+1	; 0x01
    4e10:	9a 81       	ldd	r25, Y+2	; 0x02
    4e12:	20 e0       	ldi	r18, 0x00	; 0
    4e14:	32 e0       	ldi	r19, 0x02	; 2
    4e16:	fc 01       	movw	r30, r24
    4e18:	31 83       	std	Z+1, r19	; 0x01
    4e1a:	20 83       	st	Z, r18
    4e1c:	0f 90       	pop	r0
    4e1e:	0f 90       	pop	r0
    4e20:	df 91       	pop	r29
    4e22:	cf 91       	pop	r28
    4e24:	08 95       	ret

00004e26 <_ZN7TwoWire5beginEv>:
    4e26:	cf 93       	push	r28
    4e28:	df 93       	push	r29
    4e2a:	00 d0       	rcall	.+0      	; 0x4e2c <_ZN7TwoWire5beginEv+0x6>
    4e2c:	cd b7       	in	r28, 0x3d	; 61
    4e2e:	de b7       	in	r29, 0x3e	; 62
    4e30:	9a 83       	std	Y+2, r25	; 0x02
    4e32:	89 83       	std	Y+1, r24	; 0x01
    4e34:	10 92 42 04 	sts	0x0442, r1
    4e38:	10 92 43 04 	sts	0x0443, r1
    4e3c:	10 92 65 04 	sts	0x0465, r1
    4e40:	10 92 66 04 	sts	0x0466, r1
    4e44:	a8 dc       	rcall	.-1712   	; 0x4796 <twi_init>
    4e46:	0f 90       	pop	r0
    4e48:	0f 90       	pop	r0
    4e4a:	df 91       	pop	r29
    4e4c:	cf 91       	pop	r28
    4e4e:	08 95       	ret

00004e50 <_ZN7TwoWire11requestFromEhhh>:
    4e50:	cf 93       	push	r28
    4e52:	df 93       	push	r29
    4e54:	00 d0       	rcall	.+0      	; 0x4e56 <_ZN7TwoWire11requestFromEhhh+0x6>
    4e56:	00 d0       	rcall	.+0      	; 0x4e58 <_ZN7TwoWire11requestFromEhhh+0x8>
    4e58:	00 d0       	rcall	.+0      	; 0x4e5a <_ZN7TwoWire11requestFromEhhh+0xa>
    4e5a:	cd b7       	in	r28, 0x3d	; 61
    4e5c:	de b7       	in	r29, 0x3e	; 62
    4e5e:	9b 83       	std	Y+3, r25	; 0x03
    4e60:	8a 83       	std	Y+2, r24	; 0x02
    4e62:	6c 83       	std	Y+4, r22	; 0x04
    4e64:	4d 83       	std	Y+5, r20	; 0x05
    4e66:	2e 83       	std	Y+6, r18	; 0x06
    4e68:	8d 81       	ldd	r24, Y+5	; 0x05
    4e6a:	81 32       	cpi	r24, 0x21	; 33
    4e6c:	10 f0       	brcs	.+4      	; 0x4e72 <_ZN7TwoWire11requestFromEhhh+0x22>
    4e6e:	80 e2       	ldi	r24, 0x20	; 32
    4e70:	8d 83       	std	Y+5, r24	; 0x05
    4e72:	2e 81       	ldd	r18, Y+6	; 0x06
    4e74:	4d 81       	ldd	r20, Y+5	; 0x05
    4e76:	62 e2       	ldi	r22, 0x22	; 34
    4e78:	74 e0       	ldi	r23, 0x04	; 4
    4e7a:	8c 81       	ldd	r24, Y+4	; 0x04
    4e7c:	be dc       	rcall	.-1668   	; 0x47fa <twi_readFrom>
    4e7e:	89 83       	std	Y+1, r24	; 0x01
    4e80:	10 92 42 04 	sts	0x0442, r1
    4e84:	89 81       	ldd	r24, Y+1	; 0x01
    4e86:	80 93 43 04 	sts	0x0443, r24
    4e8a:	89 81       	ldd	r24, Y+1	; 0x01
    4e8c:	26 96       	adiw	r28, 0x06	; 6
    4e8e:	0f b6       	in	r0, 0x3f	; 63
    4e90:	f8 94       	cli
    4e92:	de bf       	out	0x3e, r29	; 62
    4e94:	0f be       	out	0x3f, r0	; 63
    4e96:	cd bf       	out	0x3d, r28	; 61
    4e98:	df 91       	pop	r29
    4e9a:	cf 91       	pop	r28
    4e9c:	08 95       	ret

00004e9e <_ZN7TwoWire11requestFromEii>:
    4e9e:	cf 93       	push	r28
    4ea0:	df 93       	push	r29
    4ea2:	00 d0       	rcall	.+0      	; 0x4ea4 <_ZN7TwoWire11requestFromEii+0x6>
    4ea4:	00 d0       	rcall	.+0      	; 0x4ea6 <_ZN7TwoWire11requestFromEii+0x8>
    4ea6:	00 d0       	rcall	.+0      	; 0x4ea8 <_ZN7TwoWire11requestFromEii+0xa>
    4ea8:	cd b7       	in	r28, 0x3d	; 61
    4eaa:	de b7       	in	r29, 0x3e	; 62
    4eac:	9a 83       	std	Y+2, r25	; 0x02
    4eae:	89 83       	std	Y+1, r24	; 0x01
    4eb0:	7c 83       	std	Y+4, r23	; 0x04
    4eb2:	6b 83       	std	Y+3, r22	; 0x03
    4eb4:	5e 83       	std	Y+6, r21	; 0x06
    4eb6:	4d 83       	std	Y+5, r20	; 0x05
    4eb8:	4d 81       	ldd	r20, Y+5	; 0x05
    4eba:	3b 81       	ldd	r19, Y+3	; 0x03
    4ebc:	89 81       	ldd	r24, Y+1	; 0x01
    4ebe:	9a 81       	ldd	r25, Y+2	; 0x02
    4ec0:	21 e0       	ldi	r18, 0x01	; 1
    4ec2:	63 2f       	mov	r22, r19
    4ec4:	c5 df       	rcall	.-118    	; 0x4e50 <_ZN7TwoWire11requestFromEhhh>
    4ec6:	26 96       	adiw	r28, 0x06	; 6
    4ec8:	0f b6       	in	r0, 0x3f	; 63
    4eca:	f8 94       	cli
    4ecc:	de bf       	out	0x3e, r29	; 62
    4ece:	0f be       	out	0x3f, r0	; 63
    4ed0:	cd bf       	out	0x3d, r28	; 61
    4ed2:	df 91       	pop	r29
    4ed4:	cf 91       	pop	r28
    4ed6:	08 95       	ret

00004ed8 <_ZN7TwoWire17beginTransmissionEh>:
    4ed8:	cf 93       	push	r28
    4eda:	df 93       	push	r29
    4edc:	00 d0       	rcall	.+0      	; 0x4ede <_ZN7TwoWire17beginTransmissionEh+0x6>
    4ede:	1f 92       	push	r1
    4ee0:	cd b7       	in	r28, 0x3d	; 61
    4ee2:	de b7       	in	r29, 0x3e	; 62
    4ee4:	9a 83       	std	Y+2, r25	; 0x02
    4ee6:	89 83       	std	Y+1, r24	; 0x01
    4ee8:	6b 83       	std	Y+3, r22	; 0x03
    4eea:	81 e0       	ldi	r24, 0x01	; 1
    4eec:	80 93 67 04 	sts	0x0467, r24
    4ef0:	8b 81       	ldd	r24, Y+3	; 0x03
    4ef2:	80 93 44 04 	sts	0x0444, r24
    4ef6:	10 92 65 04 	sts	0x0465, r1
    4efa:	10 92 66 04 	sts	0x0466, r1
    4efe:	0f 90       	pop	r0
    4f00:	0f 90       	pop	r0
    4f02:	0f 90       	pop	r0
    4f04:	df 91       	pop	r29
    4f06:	cf 91       	pop	r28
    4f08:	08 95       	ret

00004f0a <_ZN7TwoWire17beginTransmissionEi>:
    4f0a:	cf 93       	push	r28
    4f0c:	df 93       	push	r29
    4f0e:	00 d0       	rcall	.+0      	; 0x4f10 <_ZN7TwoWire17beginTransmissionEi+0x6>
    4f10:	00 d0       	rcall	.+0      	; 0x4f12 <_ZN7TwoWire17beginTransmissionEi+0x8>
    4f12:	cd b7       	in	r28, 0x3d	; 61
    4f14:	de b7       	in	r29, 0x3e	; 62
    4f16:	9a 83       	std	Y+2, r25	; 0x02
    4f18:	89 83       	std	Y+1, r24	; 0x01
    4f1a:	7c 83       	std	Y+4, r23	; 0x04
    4f1c:	6b 83       	std	Y+3, r22	; 0x03
    4f1e:	2b 81       	ldd	r18, Y+3	; 0x03
    4f20:	89 81       	ldd	r24, Y+1	; 0x01
    4f22:	9a 81       	ldd	r25, Y+2	; 0x02
    4f24:	62 2f       	mov	r22, r18
    4f26:	d8 df       	rcall	.-80     	; 0x4ed8 <_ZN7TwoWire17beginTransmissionEh>
    4f28:	0f 90       	pop	r0
    4f2a:	0f 90       	pop	r0
    4f2c:	0f 90       	pop	r0
    4f2e:	0f 90       	pop	r0
    4f30:	df 91       	pop	r29
    4f32:	cf 91       	pop	r28
    4f34:	08 95       	ret

00004f36 <_ZN7TwoWire15endTransmissionEh>:
    4f36:	0f 93       	push	r16
    4f38:	cf 93       	push	r28
    4f3a:	df 93       	push	r29
    4f3c:	00 d0       	rcall	.+0      	; 0x4f3e <_ZN7TwoWire15endTransmissionEh+0x8>
    4f3e:	00 d0       	rcall	.+0      	; 0x4f40 <_ZN7TwoWire15endTransmissionEh+0xa>
    4f40:	cd b7       	in	r28, 0x3d	; 61
    4f42:	de b7       	in	r29, 0x3e	; 62
    4f44:	9b 83       	std	Y+3, r25	; 0x03
    4f46:	8a 83       	std	Y+2, r24	; 0x02
    4f48:	6c 83       	std	Y+4, r22	; 0x04
    4f4a:	90 91 66 04 	lds	r25, 0x0466
    4f4e:	80 91 44 04 	lds	r24, 0x0444
    4f52:	0c 81       	ldd	r16, Y+4	; 0x04
    4f54:	21 e0       	ldi	r18, 0x01	; 1
    4f56:	49 2f       	mov	r20, r25
    4f58:	65 e4       	ldi	r22, 0x45	; 69
    4f5a:	74 e0       	ldi	r23, 0x04	; 4
    4f5c:	ca dc       	rcall	.-1644   	; 0x48f2 <twi_writeTo>
    4f5e:	89 83       	std	Y+1, r24	; 0x01
    4f60:	10 92 65 04 	sts	0x0465, r1
    4f64:	10 92 66 04 	sts	0x0466, r1
    4f68:	10 92 67 04 	sts	0x0467, r1
    4f6c:	89 81       	ldd	r24, Y+1	; 0x01
    4f6e:	0f 90       	pop	r0
    4f70:	0f 90       	pop	r0
    4f72:	0f 90       	pop	r0
    4f74:	0f 90       	pop	r0
    4f76:	df 91       	pop	r29
    4f78:	cf 91       	pop	r28
    4f7a:	0f 91       	pop	r16
    4f7c:	08 95       	ret

00004f7e <_ZN7TwoWire15endTransmissionEv>:
    4f7e:	cf 93       	push	r28
    4f80:	df 93       	push	r29
    4f82:	00 d0       	rcall	.+0      	; 0x4f84 <_ZN7TwoWire15endTransmissionEv+0x6>
    4f84:	cd b7       	in	r28, 0x3d	; 61
    4f86:	de b7       	in	r29, 0x3e	; 62
    4f88:	9a 83       	std	Y+2, r25	; 0x02
    4f8a:	89 83       	std	Y+1, r24	; 0x01
    4f8c:	89 81       	ldd	r24, Y+1	; 0x01
    4f8e:	9a 81       	ldd	r25, Y+2	; 0x02
    4f90:	61 e0       	ldi	r22, 0x01	; 1
    4f92:	d1 df       	rcall	.-94     	; 0x4f36 <_ZN7TwoWire15endTransmissionEh>
    4f94:	0f 90       	pop	r0
    4f96:	0f 90       	pop	r0
    4f98:	df 91       	pop	r29
    4f9a:	cf 91       	pop	r28
    4f9c:	08 95       	ret

00004f9e <_ZN7TwoWire5writeEh>:
    4f9e:	cf 93       	push	r28
    4fa0:	df 93       	push	r29
    4fa2:	00 d0       	rcall	.+0      	; 0x4fa4 <_ZN7TwoWire5writeEh+0x6>
    4fa4:	1f 92       	push	r1
    4fa6:	cd b7       	in	r28, 0x3d	; 61
    4fa8:	de b7       	in	r29, 0x3e	; 62
    4faa:	9a 83       	std	Y+2, r25	; 0x02
    4fac:	89 83       	std	Y+1, r24	; 0x01
    4fae:	6b 83       	std	Y+3, r22	; 0x03
    4fb0:	80 91 67 04 	lds	r24, 0x0467
    4fb4:	88 23       	and	r24, r24
    4fb6:	f9 f0       	breq	.+62     	; 0x4ff6 <_ZN7TwoWire5writeEh+0x58>
    4fb8:	80 91 66 04 	lds	r24, 0x0466
    4fbc:	80 32       	cpi	r24, 0x20	; 32
    4fbe:	40 f0       	brcs	.+16     	; 0x4fd0 <_ZN7TwoWire5writeEh+0x32>
    4fc0:	89 81       	ldd	r24, Y+1	; 0x01
    4fc2:	9a 81       	ldd	r25, Y+2	; 0x02
    4fc4:	61 e0       	ldi	r22, 0x01	; 1
    4fc6:	70 e0       	ldi	r23, 0x00	; 0
    4fc8:	de de       	rcall	.-580    	; 0x4d86 <_ZN5Print13setWriteErrorEi>
    4fca:	80 e0       	ldi	r24, 0x00	; 0
    4fcc:	90 e0       	ldi	r25, 0x00	; 0
    4fce:	19 c0       	rjmp	.+50     	; 0x5002 <_ZN7TwoWire5writeEh+0x64>
    4fd0:	80 91 65 04 	lds	r24, 0x0465
    4fd4:	88 2f       	mov	r24, r24
    4fd6:	90 e0       	ldi	r25, 0x00	; 0
    4fd8:	2b 81       	ldd	r18, Y+3	; 0x03
    4fda:	8b 5b       	subi	r24, 0xBB	; 187
    4fdc:	9b 4f       	sbci	r25, 0xFB	; 251
    4fde:	fc 01       	movw	r30, r24
    4fe0:	20 83       	st	Z, r18
    4fe2:	80 91 65 04 	lds	r24, 0x0465
    4fe6:	8f 5f       	subi	r24, 0xFF	; 255
    4fe8:	80 93 65 04 	sts	0x0465, r24
    4fec:	80 91 65 04 	lds	r24, 0x0465
    4ff0:	80 93 66 04 	sts	0x0466, r24
    4ff4:	04 c0       	rjmp	.+8      	; 0x4ffe <_ZN7TwoWire5writeEh+0x60>
    4ff6:	ce 01       	movw	r24, r28
    4ff8:	03 96       	adiw	r24, 0x03	; 3
    4ffa:	61 e0       	ldi	r22, 0x01	; 1
    4ffc:	07 dd       	rcall	.-1522   	; 0x4a0c <twi_transmit>
    4ffe:	81 e0       	ldi	r24, 0x01	; 1
    5000:	90 e0       	ldi	r25, 0x00	; 0
    5002:	0f 90       	pop	r0
    5004:	0f 90       	pop	r0
    5006:	0f 90       	pop	r0
    5008:	df 91       	pop	r29
    500a:	cf 91       	pop	r28
    500c:	08 95       	ret

0000500e <_ZN7TwoWire5writeEPKhj>:
    500e:	cf 93       	push	r28
    5010:	df 93       	push	r29
    5012:	cd b7       	in	r28, 0x3d	; 61
    5014:	de b7       	in	r29, 0x3e	; 62
    5016:	28 97       	sbiw	r28, 0x08	; 8
    5018:	0f b6       	in	r0, 0x3f	; 63
    501a:	f8 94       	cli
    501c:	de bf       	out	0x3e, r29	; 62
    501e:	0f be       	out	0x3f, r0	; 63
    5020:	cd bf       	out	0x3d, r28	; 61
    5022:	9c 83       	std	Y+4, r25	; 0x04
    5024:	8b 83       	std	Y+3, r24	; 0x03
    5026:	7e 83       	std	Y+6, r23	; 0x06
    5028:	6d 83       	std	Y+5, r22	; 0x05
    502a:	58 87       	std	Y+8, r21	; 0x08
    502c:	4f 83       	std	Y+7, r20	; 0x07
    502e:	80 91 67 04 	lds	r24, 0x0467
    5032:	88 23       	and	r24, r24
    5034:	29 f1       	breq	.+74     	; 0x5080 <_ZN7TwoWire5writeEPKhj+0x72>
    5036:	1a 82       	std	Y+2, r1	; 0x02
    5038:	19 82       	std	Y+1, r1	; 0x01
    503a:	1a c0       	rjmp	.+52     	; 0x5070 <_ZN7TwoWire5writeEPKhj+0x62>
    503c:	8b 81       	ldd	r24, Y+3	; 0x03
    503e:	9c 81       	ldd	r25, Y+4	; 0x04
    5040:	fc 01       	movw	r30, r24
    5042:	80 81       	ld	r24, Z
    5044:	91 81       	ldd	r25, Z+1	; 0x01
    5046:	fc 01       	movw	r30, r24
    5048:	20 81       	ld	r18, Z
    504a:	31 81       	ldd	r19, Z+1	; 0x01
    504c:	4d 81       	ldd	r20, Y+5	; 0x05
    504e:	5e 81       	ldd	r21, Y+6	; 0x06
    5050:	89 81       	ldd	r24, Y+1	; 0x01
    5052:	9a 81       	ldd	r25, Y+2	; 0x02
    5054:	84 0f       	add	r24, r20
    5056:	95 1f       	adc	r25, r21
    5058:	fc 01       	movw	r30, r24
    505a:	40 81       	ld	r20, Z
    505c:	8b 81       	ldd	r24, Y+3	; 0x03
    505e:	9c 81       	ldd	r25, Y+4	; 0x04
    5060:	64 2f       	mov	r22, r20
    5062:	f9 01       	movw	r30, r18
    5064:	09 95       	icall
    5066:	89 81       	ldd	r24, Y+1	; 0x01
    5068:	9a 81       	ldd	r25, Y+2	; 0x02
    506a:	01 96       	adiw	r24, 0x01	; 1
    506c:	9a 83       	std	Y+2, r25	; 0x02
    506e:	89 83       	std	Y+1, r24	; 0x01
    5070:	29 81       	ldd	r18, Y+1	; 0x01
    5072:	3a 81       	ldd	r19, Y+2	; 0x02
    5074:	8f 81       	ldd	r24, Y+7	; 0x07
    5076:	98 85       	ldd	r25, Y+8	; 0x08
    5078:	28 17       	cp	r18, r24
    507a:	39 07       	cpc	r19, r25
    507c:	f8 f2       	brcs	.-66     	; 0x503c <_ZN7TwoWire5writeEPKhj+0x2e>
    507e:	05 c0       	rjmp	.+10     	; 0x508a <_ZN7TwoWire5writeEPKhj+0x7c>
    5080:	2f 81       	ldd	r18, Y+7	; 0x07
    5082:	8d 81       	ldd	r24, Y+5	; 0x05
    5084:	9e 81       	ldd	r25, Y+6	; 0x06
    5086:	62 2f       	mov	r22, r18
    5088:	c1 dc       	rcall	.-1662   	; 0x4a0c <twi_transmit>
    508a:	8f 81       	ldd	r24, Y+7	; 0x07
    508c:	98 85       	ldd	r25, Y+8	; 0x08
    508e:	28 96       	adiw	r28, 0x08	; 8
    5090:	0f b6       	in	r0, 0x3f	; 63
    5092:	f8 94       	cli
    5094:	de bf       	out	0x3e, r29	; 62
    5096:	0f be       	out	0x3f, r0	; 63
    5098:	cd bf       	out	0x3d, r28	; 61
    509a:	df 91       	pop	r29
    509c:	cf 91       	pop	r28
    509e:	08 95       	ret

000050a0 <_ZN7TwoWire9availableEv>:
    50a0:	cf 93       	push	r28
    50a2:	df 93       	push	r29
    50a4:	00 d0       	rcall	.+0      	; 0x50a6 <_ZN7TwoWire9availableEv+0x6>
    50a6:	cd b7       	in	r28, 0x3d	; 61
    50a8:	de b7       	in	r29, 0x3e	; 62
    50aa:	9a 83       	std	Y+2, r25	; 0x02
    50ac:	89 83       	std	Y+1, r24	; 0x01
    50ae:	80 91 43 04 	lds	r24, 0x0443
    50b2:	28 2f       	mov	r18, r24
    50b4:	30 e0       	ldi	r19, 0x00	; 0
    50b6:	80 91 42 04 	lds	r24, 0x0442
    50ba:	88 2f       	mov	r24, r24
    50bc:	90 e0       	ldi	r25, 0x00	; 0
    50be:	a9 01       	movw	r20, r18
    50c0:	48 1b       	sub	r20, r24
    50c2:	59 0b       	sbc	r21, r25
    50c4:	ca 01       	movw	r24, r20
    50c6:	0f 90       	pop	r0
    50c8:	0f 90       	pop	r0
    50ca:	df 91       	pop	r29
    50cc:	cf 91       	pop	r28
    50ce:	08 95       	ret

000050d0 <_ZN7TwoWire4readEv>:
    50d0:	cf 93       	push	r28
    50d2:	df 93       	push	r29
    50d4:	00 d0       	rcall	.+0      	; 0x50d6 <_ZN7TwoWire4readEv+0x6>
    50d6:	00 d0       	rcall	.+0      	; 0x50d8 <_ZN7TwoWire4readEv+0x8>
    50d8:	cd b7       	in	r28, 0x3d	; 61
    50da:	de b7       	in	r29, 0x3e	; 62
    50dc:	9c 83       	std	Y+4, r25	; 0x04
    50de:	8b 83       	std	Y+3, r24	; 0x03
    50e0:	8f ef       	ldi	r24, 0xFF	; 255
    50e2:	9f ef       	ldi	r25, 0xFF	; 255
    50e4:	9a 83       	std	Y+2, r25	; 0x02
    50e6:	89 83       	std	Y+1, r24	; 0x01
    50e8:	90 91 42 04 	lds	r25, 0x0442
    50ec:	80 91 43 04 	lds	r24, 0x0443
    50f0:	98 17       	cp	r25, r24
    50f2:	88 f4       	brcc	.+34     	; 0x5116 <_ZN7TwoWire4readEv+0x46>
    50f4:	80 91 42 04 	lds	r24, 0x0442
    50f8:	88 2f       	mov	r24, r24
    50fa:	90 e0       	ldi	r25, 0x00	; 0
    50fc:	8e 5d       	subi	r24, 0xDE	; 222
    50fe:	9b 4f       	sbci	r25, 0xFB	; 251
    5100:	fc 01       	movw	r30, r24
    5102:	80 81       	ld	r24, Z
    5104:	88 2f       	mov	r24, r24
    5106:	90 e0       	ldi	r25, 0x00	; 0
    5108:	9a 83       	std	Y+2, r25	; 0x02
    510a:	89 83       	std	Y+1, r24	; 0x01
    510c:	80 91 42 04 	lds	r24, 0x0442
    5110:	8f 5f       	subi	r24, 0xFF	; 255
    5112:	80 93 42 04 	sts	0x0442, r24
    5116:	89 81       	ldd	r24, Y+1	; 0x01
    5118:	9a 81       	ldd	r25, Y+2	; 0x02
    511a:	0f 90       	pop	r0
    511c:	0f 90       	pop	r0
    511e:	0f 90       	pop	r0
    5120:	0f 90       	pop	r0
    5122:	df 91       	pop	r29
    5124:	cf 91       	pop	r28
    5126:	08 95       	ret

00005128 <_ZN7TwoWire4peekEv>:
    5128:	cf 93       	push	r28
    512a:	df 93       	push	r29
    512c:	00 d0       	rcall	.+0      	; 0x512e <_ZN7TwoWire4peekEv+0x6>
    512e:	00 d0       	rcall	.+0      	; 0x5130 <_ZN7TwoWire4peekEv+0x8>
    5130:	cd b7       	in	r28, 0x3d	; 61
    5132:	de b7       	in	r29, 0x3e	; 62
    5134:	9c 83       	std	Y+4, r25	; 0x04
    5136:	8b 83       	std	Y+3, r24	; 0x03
    5138:	8f ef       	ldi	r24, 0xFF	; 255
    513a:	9f ef       	ldi	r25, 0xFF	; 255
    513c:	9a 83       	std	Y+2, r25	; 0x02
    513e:	89 83       	std	Y+1, r24	; 0x01
    5140:	90 91 42 04 	lds	r25, 0x0442
    5144:	80 91 43 04 	lds	r24, 0x0443
    5148:	98 17       	cp	r25, r24
    514a:	60 f4       	brcc	.+24     	; 0x5164 <_ZN7TwoWire4peekEv+0x3c>
    514c:	80 91 42 04 	lds	r24, 0x0442
    5150:	88 2f       	mov	r24, r24
    5152:	90 e0       	ldi	r25, 0x00	; 0
    5154:	8e 5d       	subi	r24, 0xDE	; 222
    5156:	9b 4f       	sbci	r25, 0xFB	; 251
    5158:	fc 01       	movw	r30, r24
    515a:	80 81       	ld	r24, Z
    515c:	88 2f       	mov	r24, r24
    515e:	90 e0       	ldi	r25, 0x00	; 0
    5160:	9a 83       	std	Y+2, r25	; 0x02
    5162:	89 83       	std	Y+1, r24	; 0x01
    5164:	89 81       	ldd	r24, Y+1	; 0x01
    5166:	9a 81       	ldd	r25, Y+2	; 0x02
    5168:	0f 90       	pop	r0
    516a:	0f 90       	pop	r0
    516c:	0f 90       	pop	r0
    516e:	0f 90       	pop	r0
    5170:	df 91       	pop	r29
    5172:	cf 91       	pop	r28
    5174:	08 95       	ret

00005176 <_ZN7TwoWire5flushEv>:
    5176:	cf 93       	push	r28
    5178:	df 93       	push	r29
    517a:	00 d0       	rcall	.+0      	; 0x517c <_ZN7TwoWire5flushEv+0x6>
    517c:	cd b7       	in	r28, 0x3d	; 61
    517e:	de b7       	in	r29, 0x3e	; 62
    5180:	9a 83       	std	Y+2, r25	; 0x02
    5182:	89 83       	std	Y+1, r24	; 0x01
    5184:	0f 90       	pop	r0
    5186:	0f 90       	pop	r0
    5188:	df 91       	pop	r29
    518a:	cf 91       	pop	r28
    518c:	08 95       	ret

0000518e <_Z41__static_initialization_and_destruction_0ii>:

// Preinstantiate Objects //////////////////////////////////////////////////////

TwoWire Wire = TwoWire();
    518e:	cf 93       	push	r28
    5190:	df 93       	push	r29
    5192:	00 d0       	rcall	.+0      	; 0x5194 <_Z41__static_initialization_and_destruction_0ii+0x6>
    5194:	00 d0       	rcall	.+0      	; 0x5196 <_Z41__static_initialization_and_destruction_0ii+0x8>
    5196:	cd b7       	in	r28, 0x3d	; 61
    5198:	de b7       	in	r29, 0x3e	; 62
    519a:	9a 83       	std	Y+2, r25	; 0x02
    519c:	89 83       	std	Y+1, r24	; 0x01
    519e:	7c 83       	std	Y+4, r23	; 0x04
    51a0:	6b 83       	std	Y+3, r22	; 0x03
    51a2:	89 81       	ldd	r24, Y+1	; 0x01
    51a4:	9a 81       	ldd	r25, Y+2	; 0x02
    51a6:	81 30       	cpi	r24, 0x01	; 1
    51a8:	91 05       	cpc	r25, r1
    51aa:	49 f4       	brne	.+18     	; 0x51be <_Z41__static_initialization_and_destruction_0ii+0x30>
    51ac:	8b 81       	ldd	r24, Y+3	; 0x03
    51ae:	9c 81       	ldd	r25, Y+4	; 0x04
    51b0:	8f 3f       	cpi	r24, 0xFF	; 255
    51b2:	2f ef       	ldi	r18, 0xFF	; 255
    51b4:	92 07       	cpc	r25, r18
    51b6:	19 f4       	brne	.+6      	; 0x51be <_Z41__static_initialization_and_destruction_0ii+0x30>
    51b8:	88 e6       	ldi	r24, 0x68	; 104
    51ba:	94 e0       	ldi	r25, 0x04	; 4
    51bc:	1e de       	rcall	.-964    	; 0x4dfa <_ZN7TwoWireC1Ev>
    51be:	0f 90       	pop	r0
    51c0:	0f 90       	pop	r0
    51c2:	0f 90       	pop	r0
    51c4:	0f 90       	pop	r0
    51c6:	df 91       	pop	r29
    51c8:	cf 91       	pop	r28
    51ca:	08 95       	ret

000051cc <_GLOBAL__sub_I__ZN7TwoWire8rxBufferE>:
    51cc:	cf 93       	push	r28
    51ce:	df 93       	push	r29
    51d0:	cd b7       	in	r28, 0x3d	; 61
    51d2:	de b7       	in	r29, 0x3e	; 62
    51d4:	6f ef       	ldi	r22, 0xFF	; 255
    51d6:	7f ef       	ldi	r23, 0xFF	; 255
    51d8:	81 e0       	ldi	r24, 0x01	; 1
    51da:	90 e0       	ldi	r25, 0x00	; 0
    51dc:	d8 df       	rcall	.-80     	; 0x518e <_Z41__static_initialization_and_destruction_0ii>
    51de:	df 91       	pop	r29
    51e0:	cf 91       	pop	r28
    51e2:	08 95       	ret

000051e4 <_ZN14HardwareSerial9availableEv>:
    51e4:	fc 01       	movw	r30, r24
    51e6:	84 85       	ldd	r24, Z+12	; 0x0c
    51e8:	95 85       	ldd	r25, Z+13	; 0x0d
    51ea:	fc 01       	movw	r30, r24
    51ec:	e0 5c       	subi	r30, 0xC0	; 192
    51ee:	ff 4f       	sbci	r31, 0xFF	; 255
    51f0:	20 81       	ld	r18, Z
    51f2:	31 81       	ldd	r19, Z+1	; 0x01
    51f4:	fc 01       	movw	r30, r24
    51f6:	ee 5b       	subi	r30, 0xBE	; 190
    51f8:	ff 4f       	sbci	r31, 0xFF	; 255
    51fa:	80 81       	ld	r24, Z
    51fc:	91 81       	ldd	r25, Z+1	; 0x01
    51fe:	28 1b       	sub	r18, r24
    5200:	39 0b       	sbc	r19, r25
    5202:	2f 73       	andi	r18, 0x3F	; 63
    5204:	33 27       	eor	r19, r19
    5206:	c9 01       	movw	r24, r18
    5208:	08 95       	ret

0000520a <_ZN14HardwareSerial4peekEv>:
    520a:	fc 01       	movw	r30, r24
    520c:	84 85       	ldd	r24, Z+12	; 0x0c
    520e:	95 85       	ldd	r25, Z+13	; 0x0d
    5210:	fc 01       	movw	r30, r24
    5212:	e0 5c       	subi	r30, 0xC0	; 192
    5214:	ff 4f       	sbci	r31, 0xFF	; 255
    5216:	40 81       	ld	r20, Z
    5218:	51 81       	ldd	r21, Z+1	; 0x01
    521a:	fc 01       	movw	r30, r24
    521c:	ee 5b       	subi	r30, 0xBE	; 190
    521e:	ff 4f       	sbci	r31, 0xFF	; 255
    5220:	20 81       	ld	r18, Z
    5222:	31 81       	ldd	r19, Z+1	; 0x01
    5224:	42 17       	cp	r20, r18
    5226:	53 07       	cpc	r21, r19
    5228:	41 f0       	breq	.+16     	; 0x523a <_ZN14HardwareSerial4peekEv+0x30>
    522a:	01 90       	ld	r0, Z+
    522c:	f0 81       	ld	r31, Z
    522e:	e0 2d       	mov	r30, r0
    5230:	e8 0f       	add	r30, r24
    5232:	f9 1f       	adc	r31, r25
    5234:	20 81       	ld	r18, Z
    5236:	30 e0       	ldi	r19, 0x00	; 0
    5238:	02 c0       	rjmp	.+4      	; 0x523e <_ZN14HardwareSerial4peekEv+0x34>
    523a:	2f ef       	ldi	r18, 0xFF	; 255
    523c:	3f ef       	ldi	r19, 0xFF	; 255
    523e:	c9 01       	movw	r24, r18
    5240:	08 95       	ret

00005242 <_ZN14HardwareSerial4readEv>:
    5242:	fc 01       	movw	r30, r24
    5244:	84 85       	ldd	r24, Z+12	; 0x0c
    5246:	95 85       	ldd	r25, Z+13	; 0x0d
    5248:	fc 01       	movw	r30, r24
    524a:	e0 5c       	subi	r30, 0xC0	; 192
    524c:	ff 4f       	sbci	r31, 0xFF	; 255
    524e:	40 81       	ld	r20, Z
    5250:	51 81       	ldd	r21, Z+1	; 0x01
    5252:	fc 01       	movw	r30, r24
    5254:	ee 5b       	subi	r30, 0xBE	; 190
    5256:	ff 4f       	sbci	r31, 0xFF	; 255
    5258:	20 81       	ld	r18, Z
    525a:	31 81       	ldd	r19, Z+1	; 0x01
    525c:	42 17       	cp	r20, r18
    525e:	53 07       	cpc	r21, r19
    5260:	81 f0       	breq	.+32     	; 0x5282 <_ZN14HardwareSerial4readEv+0x40>
    5262:	a0 81       	ld	r26, Z
    5264:	b1 81       	ldd	r27, Z+1	; 0x01
    5266:	a8 0f       	add	r26, r24
    5268:	b9 1f       	adc	r27, r25
    526a:	8c 91       	ld	r24, X
    526c:	20 81       	ld	r18, Z
    526e:	31 81       	ldd	r19, Z+1	; 0x01
    5270:	2f 5f       	subi	r18, 0xFF	; 255
    5272:	3f 4f       	sbci	r19, 0xFF	; 255
    5274:	2f 73       	andi	r18, 0x3F	; 63
    5276:	33 27       	eor	r19, r19
    5278:	31 83       	std	Z+1, r19	; 0x01
    527a:	20 83       	st	Z, r18
    527c:	28 2f       	mov	r18, r24
    527e:	30 e0       	ldi	r19, 0x00	; 0
    5280:	02 c0       	rjmp	.+4      	; 0x5286 <_ZN14HardwareSerial4readEv+0x44>
    5282:	2f ef       	ldi	r18, 0xFF	; 255
    5284:	3f ef       	ldi	r19, 0xFF	; 255
    5286:	c9 01       	movw	r24, r18
    5288:	08 95       	ret

0000528a <_ZN14HardwareSerial5flushEv>:
    528a:	fc 01       	movw	r30, r24
    528c:	81 a1       	ldd	r24, Z+33	; 0x21
    528e:	88 23       	and	r24, r24
    5290:	29 f0       	breq	.+10     	; 0x529c <_ZN14HardwareSerial5flushEv+0x12>
    5292:	a4 89       	ldd	r26, Z+20	; 0x14
    5294:	b5 89       	ldd	r27, Z+21	; 0x15
    5296:	8c 91       	ld	r24, X
    5298:	86 ff       	sbrs	r24, 6
    529a:	fb cf       	rjmp	.-10     	; 0x5292 <_ZN14HardwareSerial5flushEv+0x8>
    529c:	11 a2       	std	Z+33, r1	; 0x21
    529e:	08 95       	ret

000052a0 <_ZN14HardwareSerial5writeEh>:
    52a0:	cf 93       	push	r28
    52a2:	df 93       	push	r29
    52a4:	fc 01       	movw	r30, r24
    52a6:	26 85       	ldd	r18, Z+14	; 0x0e
    52a8:	37 85       	ldd	r19, Z+15	; 0x0f
    52aa:	d9 01       	movw	r26, r18
    52ac:	a0 5c       	subi	r26, 0xC0	; 192
    52ae:	bf 4f       	sbci	r27, 0xFF	; 255
    52b0:	8d 91       	ld	r24, X+
    52b2:	9c 91       	ld	r25, X
    52b4:	11 97       	sbiw	r26, 0x01	; 1
    52b6:	01 96       	adiw	r24, 0x01	; 1
    52b8:	8f 73       	andi	r24, 0x3F	; 63
    52ba:	99 27       	eor	r25, r25
    52bc:	e9 01       	movw	r28, r18
    52be:	ce 5b       	subi	r28, 0xBE	; 190
    52c0:	df 4f       	sbci	r29, 0xFF	; 255
    52c2:	48 81       	ld	r20, Y
    52c4:	59 81       	ldd	r21, Y+1	; 0x01
    52c6:	84 17       	cp	r24, r20
    52c8:	95 07       	cpc	r25, r21
    52ca:	d9 f3       	breq	.-10     	; 0x52c2 <_ZN14HardwareSerial5writeEh+0x22>
    52cc:	0d 90       	ld	r0, X+
    52ce:	bc 91       	ld	r27, X
    52d0:	a0 2d       	mov	r26, r0
    52d2:	a2 0f       	add	r26, r18
    52d4:	b3 1f       	adc	r27, r19
    52d6:	6c 93       	st	X, r22
    52d8:	a6 85       	ldd	r26, Z+14	; 0x0e
    52da:	b7 85       	ldd	r27, Z+15	; 0x0f
    52dc:	a0 5c       	subi	r26, 0xC0	; 192
    52de:	bf 4f       	sbci	r27, 0xFF	; 255
    52e0:	11 96       	adiw	r26, 0x01	; 1
    52e2:	9c 93       	st	X, r25
    52e4:	8e 93       	st	-X, r24
    52e6:	a6 89       	ldd	r26, Z+22	; 0x16
    52e8:	b7 89       	ldd	r27, Z+23	; 0x17
    52ea:	2c 91       	ld	r18, X
    52ec:	81 e0       	ldi	r24, 0x01	; 1
    52ee:	90 e0       	ldi	r25, 0x00	; 0
    52f0:	07 8c       	ldd	r0, Z+31	; 0x1f
    52f2:	02 c0       	rjmp	.+4      	; 0x52f8 <_ZN14HardwareSerial5writeEh+0x58>
    52f4:	88 0f       	add	r24, r24
    52f6:	99 1f       	adc	r25, r25
    52f8:	0a 94       	dec	r0
    52fa:	e2 f7       	brpl	.-8      	; 0x52f4 <_ZN14HardwareSerial5writeEh+0x54>
    52fc:	28 2b       	or	r18, r24
    52fe:	2c 93       	st	X, r18
    5300:	81 e0       	ldi	r24, 0x01	; 1
    5302:	81 a3       	std	Z+33, r24	; 0x21
    5304:	04 88       	ldd	r0, Z+20	; 0x14
    5306:	f5 89       	ldd	r31, Z+21	; 0x15
    5308:	e0 2d       	mov	r30, r0
    530a:	80 81       	ld	r24, Z
    530c:	80 64       	ori	r24, 0x40	; 64
    530e:	80 83       	st	Z, r24
    5310:	81 e0       	ldi	r24, 0x01	; 1
    5312:	90 e0       	ldi	r25, 0x00	; 0
    5314:	df 91       	pop	r29
    5316:	cf 91       	pop	r28
    5318:	08 95       	ret

0000531a <_Z11serialEventv>:
    531a:	08 95       	ret

0000531c <__vector_18>:
    531c:	1f 92       	push	r1
    531e:	0f 92       	push	r0
    5320:	0f b6       	in	r0, 0x3f	; 63
    5322:	0f 92       	push	r0
    5324:	11 24       	eor	r1, r1
    5326:	2f 93       	push	r18
    5328:	3f 93       	push	r19
    532a:	4f 93       	push	r20
    532c:	8f 93       	push	r24
    532e:	9f 93       	push	r25
    5330:	ef 93       	push	r30
    5332:	ff 93       	push	r31
    5334:	80 91 c0 00 	lds	r24, 0x00C0
    5338:	82 fd       	sbrc	r24, 2
    533a:	1c c0       	rjmp	.+56     	; 0x5374 <__vector_18+0x58>
    533c:	40 91 c6 00 	lds	r20, 0x00C6
    5340:	80 91 1a 05 	lds	r24, 0x051A
    5344:	90 91 1b 05 	lds	r25, 0x051B
    5348:	01 96       	adiw	r24, 0x01	; 1
    534a:	8f 73       	andi	r24, 0x3F	; 63
    534c:	99 27       	eor	r25, r25
    534e:	20 91 1c 05 	lds	r18, 0x051C
    5352:	30 91 1d 05 	lds	r19, 0x051D
    5356:	82 17       	cp	r24, r18
    5358:	93 07       	cpc	r25, r19
    535a:	71 f0       	breq	.+28     	; 0x5378 <__vector_18+0x5c>
    535c:	e0 91 1a 05 	lds	r30, 0x051A
    5360:	f0 91 1b 05 	lds	r31, 0x051B
    5364:	e6 52       	subi	r30, 0x26	; 38
    5366:	fb 4f       	sbci	r31, 0xFB	; 251
    5368:	40 83       	st	Z, r20
    536a:	90 93 1b 05 	sts	0x051B, r25
    536e:	80 93 1a 05 	sts	0x051A, r24
    5372:	02 c0       	rjmp	.+4      	; 0x5378 <__vector_18+0x5c>
    5374:	80 91 c6 00 	lds	r24, 0x00C6
    5378:	ff 91       	pop	r31
    537a:	ef 91       	pop	r30
    537c:	9f 91       	pop	r25
    537e:	8f 91       	pop	r24
    5380:	4f 91       	pop	r20
    5382:	3f 91       	pop	r19
    5384:	2f 91       	pop	r18
    5386:	0f 90       	pop	r0
    5388:	0f be       	out	0x3f, r0	; 63
    538a:	0f 90       	pop	r0
    538c:	1f 90       	pop	r1
    538e:	18 95       	reti

00005390 <_Z14serialEventRunv>:
    5390:	84 e7       	ldi	r24, 0x74	; 116
    5392:	94 e0       	ldi	r25, 0x04	; 4
    5394:	27 df       	rcall	.-434    	; 0x51e4 <_ZN14HardwareSerial9availableEv>
    5396:	89 2b       	or	r24, r25
    5398:	09 f0       	breq	.+2      	; 0x539c <_Z14serialEventRunv+0xc>
    539a:	bf cf       	rjmp	.-130    	; 0x531a <_Z11serialEventv>
    539c:	08 95       	ret

0000539e <__vector_19>:
    539e:	1f 92       	push	r1
    53a0:	0f 92       	push	r0
    53a2:	0f b6       	in	r0, 0x3f	; 63
    53a4:	0f 92       	push	r0
    53a6:	11 24       	eor	r1, r1
    53a8:	2f 93       	push	r18
    53aa:	3f 93       	push	r19
    53ac:	8f 93       	push	r24
    53ae:	9f 93       	push	r25
    53b0:	ef 93       	push	r30
    53b2:	ff 93       	push	r31
    53b4:	20 91 d6 04 	lds	r18, 0x04D6
    53b8:	30 91 d7 04 	lds	r19, 0x04D7
    53bc:	80 91 d8 04 	lds	r24, 0x04D8
    53c0:	90 91 d9 04 	lds	r25, 0x04D9
    53c4:	28 17       	cp	r18, r24
    53c6:	39 07       	cpc	r19, r25
    53c8:	31 f4       	brne	.+12     	; 0x53d6 <__vector_19+0x38>
    53ca:	80 91 c1 00 	lds	r24, 0x00C1
    53ce:	8f 7d       	andi	r24, 0xDF	; 223
    53d0:	80 93 c1 00 	sts	0x00C1, r24
    53d4:	14 c0       	rjmp	.+40     	; 0x53fe <__vector_19+0x60>
    53d6:	e0 91 d8 04 	lds	r30, 0x04D8
    53da:	f0 91 d9 04 	lds	r31, 0x04D9
    53de:	ea 56       	subi	r30, 0x6A	; 106
    53e0:	fb 4f       	sbci	r31, 0xFB	; 251
    53e2:	20 81       	ld	r18, Z
    53e4:	80 91 d8 04 	lds	r24, 0x04D8
    53e8:	90 91 d9 04 	lds	r25, 0x04D9
    53ec:	01 96       	adiw	r24, 0x01	; 1
    53ee:	8f 73       	andi	r24, 0x3F	; 63
    53f0:	99 27       	eor	r25, r25
    53f2:	90 93 d9 04 	sts	0x04D9, r25
    53f6:	80 93 d8 04 	sts	0x04D8, r24
    53fa:	20 93 c6 00 	sts	0x00C6, r18
    53fe:	ff 91       	pop	r31
    5400:	ef 91       	pop	r30
    5402:	9f 91       	pop	r25
    5404:	8f 91       	pop	r24
    5406:	3f 91       	pop	r19
    5408:	2f 91       	pop	r18
    540a:	0f 90       	pop	r0
    540c:	0f be       	out	0x3f, r0	; 63
    540e:	0f 90       	pop	r0
    5410:	1f 90       	pop	r1
    5412:	18 95       	reti

00005414 <_ZN14HardwareSerial5beginEm>:
    5414:	cf 92       	push	r12
    5416:	df 92       	push	r13
    5418:	ef 92       	push	r14
    541a:	ff 92       	push	r15
    541c:	cf 93       	push	r28
    541e:	df 93       	push	r29
    5420:	ec 01       	movw	r28, r24
    5422:	6a 01       	movw	r12, r20
    5424:	7b 01       	movw	r14, r22
    5426:	41 15       	cp	r20, r1
    5428:	81 ee       	ldi	r24, 0xE1	; 225
    542a:	58 07       	cpc	r21, r24
    542c:	61 05       	cpc	r22, r1
    542e:	71 05       	cpc	r23, r1
    5430:	f9 f0       	breq	.+62     	; 0x5470 <_ZN14HardwareSerial5beginEm+0x5c>
    5432:	ec 89       	ldd	r30, Y+20	; 0x14
    5434:	fd 89       	ldd	r31, Y+21	; 0x15
    5436:	81 e0       	ldi	r24, 0x01	; 1
    5438:	90 e0       	ldi	r25, 0x00	; 0
    543a:	08 a0       	ldd	r0, Y+32	; 0x20
    543c:	02 c0       	rjmp	.+4      	; 0x5442 <_ZN14HardwareSerial5beginEm+0x2e>
    543e:	88 0f       	add	r24, r24
    5440:	99 1f       	adc	r25, r25
    5442:	0a 94       	dec	r0
    5444:	e2 f7       	brpl	.-8      	; 0x543e <_ZN14HardwareSerial5beginEm+0x2a>
    5446:	80 83       	st	Z, r24
    5448:	60 e0       	ldi	r22, 0x00	; 0
    544a:	79 e0       	ldi	r23, 0x09	; 9
    544c:	8d e3       	ldi	r24, 0x3D	; 61
    544e:	90 e0       	ldi	r25, 0x00	; 0
    5450:	a7 01       	movw	r20, r14
    5452:	96 01       	movw	r18, r12
    5454:	0e 94 97 3e 	call	0x7d2e	; 0x7d2e <__udivmodsi4>
    5458:	21 50       	subi	r18, 0x01	; 1
    545a:	31 09       	sbc	r19, r1
    545c:	41 09       	sbc	r20, r1
    545e:	51 09       	sbc	r21, r1
    5460:	56 95       	lsr	r21
    5462:	47 95       	ror	r20
    5464:	37 95       	ror	r19
    5466:	27 95       	ror	r18
    5468:	21 15       	cp	r18, r1
    546a:	80 e1       	ldi	r24, 0x10	; 16
    546c:	38 07       	cpc	r19, r24
    546e:	98 f0       	brcs	.+38     	; 0x5496 <_ZN14HardwareSerial5beginEm+0x82>
    5470:	ec 89       	ldd	r30, Y+20	; 0x14
    5472:	fd 89       	ldd	r31, Y+21	; 0x15
    5474:	10 82       	st	Z, r1
    5476:	60 e8       	ldi	r22, 0x80	; 128
    5478:	74 e8       	ldi	r23, 0x84	; 132
    547a:	8e e1       	ldi	r24, 0x1E	; 30
    547c:	90 e0       	ldi	r25, 0x00	; 0
    547e:	a7 01       	movw	r20, r14
    5480:	96 01       	movw	r18, r12
    5482:	0e 94 97 3e 	call	0x7d2e	; 0x7d2e <__udivmodsi4>
    5486:	21 50       	subi	r18, 0x01	; 1
    5488:	31 09       	sbc	r19, r1
    548a:	41 09       	sbc	r20, r1
    548c:	51 09       	sbc	r21, r1
    548e:	56 95       	lsr	r21
    5490:	47 95       	ror	r20
    5492:	37 95       	ror	r19
    5494:	27 95       	ror	r18
    5496:	e8 89       	ldd	r30, Y+16	; 0x10
    5498:	f9 89       	ldd	r31, Y+17	; 0x11
    549a:	30 83       	st	Z, r19
    549c:	ea 89       	ldd	r30, Y+18	; 0x12
    549e:	fb 89       	ldd	r31, Y+19	; 0x13
    54a0:	20 83       	st	Z, r18
    54a2:	19 a2       	std	Y+33, r1	; 0x21
    54a4:	ee 89       	ldd	r30, Y+22	; 0x16
    54a6:	ff 89       	ldd	r31, Y+23	; 0x17
    54a8:	40 81       	ld	r20, Z
    54aa:	81 e0       	ldi	r24, 0x01	; 1
    54ac:	90 e0       	ldi	r25, 0x00	; 0
    54ae:	9c 01       	movw	r18, r24
    54b0:	0c 8c       	ldd	r0, Y+28	; 0x1c
    54b2:	02 c0       	rjmp	.+4      	; 0x54b8 <_ZN14HardwareSerial5beginEm+0xa4>
    54b4:	22 0f       	add	r18, r18
    54b6:	33 1f       	adc	r19, r19
    54b8:	0a 94       	dec	r0
    54ba:	e2 f7       	brpl	.-8      	; 0x54b4 <_ZN14HardwareSerial5beginEm+0xa0>
    54bc:	42 2b       	or	r20, r18
    54be:	40 83       	st	Z, r20
    54c0:	ee 89       	ldd	r30, Y+22	; 0x16
    54c2:	ff 89       	ldd	r31, Y+23	; 0x17
    54c4:	40 81       	ld	r20, Z
    54c6:	9c 01       	movw	r18, r24
    54c8:	0d 8c       	ldd	r0, Y+29	; 0x1d
    54ca:	02 c0       	rjmp	.+4      	; 0x54d0 <_ZN14HardwareSerial5beginEm+0xbc>
    54cc:	22 0f       	add	r18, r18
    54ce:	33 1f       	adc	r19, r19
    54d0:	0a 94       	dec	r0
    54d2:	e2 f7       	brpl	.-8      	; 0x54cc <_ZN14HardwareSerial5beginEm+0xb8>
    54d4:	42 2b       	or	r20, r18
    54d6:	40 83       	st	Z, r20
    54d8:	ee 89       	ldd	r30, Y+22	; 0x16
    54da:	ff 89       	ldd	r31, Y+23	; 0x17
    54dc:	40 81       	ld	r20, Z
    54de:	9c 01       	movw	r18, r24
    54e0:	0e 8c       	ldd	r0, Y+30	; 0x1e
    54e2:	02 c0       	rjmp	.+4      	; 0x54e8 <_ZN14HardwareSerial5beginEm+0xd4>
    54e4:	22 0f       	add	r18, r18
    54e6:	33 1f       	adc	r19, r19
    54e8:	0a 94       	dec	r0
    54ea:	e2 f7       	brpl	.-8      	; 0x54e4 <_ZN14HardwareSerial5beginEm+0xd0>
    54ec:	42 2b       	or	r20, r18
    54ee:	40 83       	st	Z, r20
    54f0:	ee 89       	ldd	r30, Y+22	; 0x16
    54f2:	ff 89       	ldd	r31, Y+23	; 0x17
    54f4:	20 81       	ld	r18, Z
    54f6:	0f 8c       	ldd	r0, Y+31	; 0x1f
    54f8:	02 c0       	rjmp	.+4      	; 0x54fe <_ZN14HardwareSerial5beginEm+0xea>
    54fa:	88 0f       	add	r24, r24
    54fc:	99 1f       	adc	r25, r25
    54fe:	0a 94       	dec	r0
    5500:	e2 f7       	brpl	.-8      	; 0x54fa <_ZN14HardwareSerial5beginEm+0xe6>
    5502:	80 95       	com	r24
    5504:	82 23       	and	r24, r18
    5506:	80 83       	st	Z, r24
    5508:	df 91       	pop	r29
    550a:	cf 91       	pop	r28
    550c:	ff 90       	pop	r15
    550e:	ef 90       	pop	r14
    5510:	df 90       	pop	r13
    5512:	cf 90       	pop	r12
    5514:	08 95       	ret

00005516 <_GLOBAL__sub_I_rx_buffer>:
    5516:	10 92 77 04 	sts	0x0477, r1
    551a:	10 92 76 04 	sts	0x0476, r1
    551e:	88 ee       	ldi	r24, 0xE8	; 232
    5520:	93 e0       	ldi	r25, 0x03	; 3
    5522:	a0 e0       	ldi	r26, 0x00	; 0
    5524:	b0 e0       	ldi	r27, 0x00	; 0
    5526:	80 93 78 04 	sts	0x0478, r24
    552a:	90 93 79 04 	sts	0x0479, r25
    552e:	a0 93 7a 04 	sts	0x047A, r26
    5532:	b0 93 7b 04 	sts	0x047B, r27
    5536:	80 e2       	ldi	r24, 0x20	; 32
    5538:	92 e0       	ldi	r25, 0x02	; 2
    553a:	90 93 75 04 	sts	0x0475, r25
    553e:	80 93 74 04 	sts	0x0474, r24
    5542:	8a ed       	ldi	r24, 0xDA	; 218
    5544:	94 e0       	ldi	r25, 0x04	; 4
    5546:	90 93 81 04 	sts	0x0481, r25
    554a:	80 93 80 04 	sts	0x0480, r24
    554e:	86 e9       	ldi	r24, 0x96	; 150
    5550:	94 e0       	ldi	r25, 0x04	; 4
    5552:	90 93 83 04 	sts	0x0483, r25
    5556:	80 93 82 04 	sts	0x0482, r24
    555a:	85 ec       	ldi	r24, 0xC5	; 197
    555c:	90 e0       	ldi	r25, 0x00	; 0
    555e:	90 93 85 04 	sts	0x0485, r25
    5562:	80 93 84 04 	sts	0x0484, r24
    5566:	84 ec       	ldi	r24, 0xC4	; 196
    5568:	90 e0       	ldi	r25, 0x00	; 0
    556a:	90 93 87 04 	sts	0x0487, r25
    556e:	80 93 86 04 	sts	0x0486, r24
    5572:	80 ec       	ldi	r24, 0xC0	; 192
    5574:	90 e0       	ldi	r25, 0x00	; 0
    5576:	90 93 89 04 	sts	0x0489, r25
    557a:	80 93 88 04 	sts	0x0488, r24
    557e:	81 ec       	ldi	r24, 0xC1	; 193
    5580:	90 e0       	ldi	r25, 0x00	; 0
    5582:	90 93 8b 04 	sts	0x048B, r25
    5586:	80 93 8a 04 	sts	0x048A, r24
    558a:	82 ec       	ldi	r24, 0xC2	; 194
    558c:	90 e0       	ldi	r25, 0x00	; 0
    558e:	90 93 8d 04 	sts	0x048D, r25
    5592:	80 93 8c 04 	sts	0x048C, r24
    5596:	86 ec       	ldi	r24, 0xC6	; 198
    5598:	90 e0       	ldi	r25, 0x00	; 0
    559a:	90 93 8f 04 	sts	0x048F, r25
    559e:	80 93 8e 04 	sts	0x048E, r24
    55a2:	84 e0       	ldi	r24, 0x04	; 4
    55a4:	80 93 90 04 	sts	0x0490, r24
    55a8:	83 e0       	ldi	r24, 0x03	; 3
    55aa:	80 93 91 04 	sts	0x0491, r24
    55ae:	87 e0       	ldi	r24, 0x07	; 7
    55b0:	80 93 92 04 	sts	0x0492, r24
    55b4:	85 e0       	ldi	r24, 0x05	; 5
    55b6:	80 93 93 04 	sts	0x0493, r24
    55ba:	81 e0       	ldi	r24, 0x01	; 1
    55bc:	80 93 94 04 	sts	0x0494, r24
    55c0:	08 95       	ret

000055c2 <main>:
    55c2:	1e d2       	rcall	.+1084   	; 0x5a00 <init>
    55c4:	0e 94 c5 0b 	call	0x178a	; 0x178a <setup>
    55c8:	c8 ec       	ldi	r28, 0xC8	; 200
    55ca:	d9 e2       	ldi	r29, 0x29	; 41
    55cc:	0e 94 66 0c 	call	0x18cc	; 0x18cc <loop>
    55d0:	20 97       	sbiw	r28, 0x00	; 0
    55d2:	e1 f3       	breq	.-8      	; 0x55cc <main+0xa>
    55d4:	dd de       	rcall	.-582    	; 0x5390 <_Z14serialEventRunv>
    55d6:	fa cf       	rjmp	.-12     	; 0x55cc <main+0xa>

000055d8 <_ZdlPv>:
    55d8:	e6 c2       	rjmp	.+1484   	; 0x5ba6 <free>

000055da <__cxa_pure_virtual>:
    55da:	08 95       	ret

000055dc <_ZN5Print5writeEPKhj>:
    55dc:	cf 92       	push	r12
    55de:	df 92       	push	r13
    55e0:	ef 92       	push	r14
    55e2:	ff 92       	push	r15
    55e4:	0f 93       	push	r16
    55e6:	1f 93       	push	r17
    55e8:	cf 93       	push	r28
    55ea:	df 93       	push	r29
    55ec:	6c 01       	movw	r12, r24
    55ee:	eb 01       	movw	r28, r22
    55f0:	7a 01       	movw	r14, r20
    55f2:	e6 0e       	add	r14, r22
    55f4:	f7 1e       	adc	r15, r23
    55f6:	00 e0       	ldi	r16, 0x00	; 0
    55f8:	10 e0       	ldi	r17, 0x00	; 0
    55fa:	0b c0       	rjmp	.+22     	; 0x5612 <_ZN5Print5writeEPKhj+0x36>
    55fc:	69 91       	ld	r22, Y+
    55fe:	d6 01       	movw	r26, r12
    5600:	ed 91       	ld	r30, X+
    5602:	fc 91       	ld	r31, X
    5604:	01 90       	ld	r0, Z+
    5606:	f0 81       	ld	r31, Z
    5608:	e0 2d       	mov	r30, r0
    560a:	c6 01       	movw	r24, r12
    560c:	09 95       	icall
    560e:	08 0f       	add	r16, r24
    5610:	19 1f       	adc	r17, r25
    5612:	ce 15       	cp	r28, r14
    5614:	df 05       	cpc	r29, r15
    5616:	91 f7       	brne	.-28     	; 0x55fc <_ZN5Print5writeEPKhj+0x20>
    5618:	c8 01       	movw	r24, r16
    561a:	df 91       	pop	r29
    561c:	cf 91       	pop	r28
    561e:	1f 91       	pop	r17
    5620:	0f 91       	pop	r16
    5622:	ff 90       	pop	r15
    5624:	ef 90       	pop	r14
    5626:	df 90       	pop	r13
    5628:	cf 90       	pop	r12
    562a:	08 95       	ret

0000562c <_ZN5Print5writeEPKc>:
    562c:	61 15       	cp	r22, r1
    562e:	71 05       	cpc	r23, r1
    5630:	81 f0       	breq	.+32     	; 0x5652 <_ZN5Print5writeEPKc+0x26>
    5632:	db 01       	movw	r26, r22
    5634:	0d 90       	ld	r0, X+
    5636:	00 20       	and	r0, r0
    5638:	e9 f7       	brne	.-6      	; 0x5634 <_ZN5Print5writeEPKc+0x8>
    563a:	ad 01       	movw	r20, r26
    563c:	41 50       	subi	r20, 0x01	; 1
    563e:	51 09       	sbc	r21, r1
    5640:	46 1b       	sub	r20, r22
    5642:	57 0b       	sbc	r21, r23
    5644:	dc 01       	movw	r26, r24
    5646:	ed 91       	ld	r30, X+
    5648:	fc 91       	ld	r31, X
    564a:	02 80       	ldd	r0, Z+2	; 0x02
    564c:	f3 81       	ldd	r31, Z+3	; 0x03
    564e:	e0 2d       	mov	r30, r0
    5650:	09 94       	ijmp
    5652:	80 e0       	ldi	r24, 0x00	; 0
    5654:	90 e0       	ldi	r25, 0x00	; 0
    5656:	08 95       	ret

00005658 <_ZN5Print5printEPK19__FlashStringHelper>:
    5658:	ef 92       	push	r14
    565a:	ff 92       	push	r15
    565c:	0f 93       	push	r16
    565e:	1f 93       	push	r17
    5660:	cf 93       	push	r28
    5662:	df 93       	push	r29
    5664:	7c 01       	movw	r14, r24
    5666:	eb 01       	movw	r28, r22
    5668:	00 e0       	ldi	r16, 0x00	; 0
    566a:	10 e0       	ldi	r17, 0x00	; 0
    566c:	fe 01       	movw	r30, r28
    566e:	21 96       	adiw	r28, 0x01	; 1
    5670:	64 91       	lpm	r22, Z
    5672:	66 23       	and	r22, r22
    5674:	51 f0       	breq	.+20     	; 0x568a <_ZN5Print5printEPK19__FlashStringHelper+0x32>
    5676:	f7 01       	movw	r30, r14
    5678:	a0 81       	ld	r26, Z
    567a:	b1 81       	ldd	r27, Z+1	; 0x01
    567c:	ed 91       	ld	r30, X+
    567e:	fc 91       	ld	r31, X
    5680:	c7 01       	movw	r24, r14
    5682:	09 95       	icall
    5684:	08 0f       	add	r16, r24
    5686:	19 1f       	adc	r17, r25
    5688:	f1 cf       	rjmp	.-30     	; 0x566c <_ZN5Print5printEPK19__FlashStringHelper+0x14>
    568a:	c8 01       	movw	r24, r16
    568c:	df 91       	pop	r29
    568e:	cf 91       	pop	r28
    5690:	1f 91       	pop	r17
    5692:	0f 91       	pop	r16
    5694:	ff 90       	pop	r15
    5696:	ef 90       	pop	r14
    5698:	08 95       	ret

0000569a <_ZN5Print5printEPKc>:
    569a:	c8 cf       	rjmp	.-112    	; 0x562c <_ZN5Print5writeEPKc>

0000569c <_ZN5Print5printEc>:
    569c:	dc 01       	movw	r26, r24
    569e:	ed 91       	ld	r30, X+
    56a0:	fc 91       	ld	r31, X
    56a2:	01 90       	ld	r0, Z+
    56a4:	f0 81       	ld	r31, Z
    56a6:	e0 2d       	mov	r30, r0
    56a8:	09 94       	ijmp

000056aa <_ZN5Print7printlnEv>:
    56aa:	0f 93       	push	r16
    56ac:	1f 93       	push	r17
    56ae:	cf 93       	push	r28
    56b0:	df 93       	push	r29
    56b2:	ec 01       	movw	r28, r24
    56b4:	6d e0       	ldi	r22, 0x0D	; 13
    56b6:	f2 df       	rcall	.-28     	; 0x569c <_ZN5Print5printEc>
    56b8:	8c 01       	movw	r16, r24
    56ba:	6a e0       	ldi	r22, 0x0A	; 10
    56bc:	ce 01       	movw	r24, r28
    56be:	ee df       	rcall	.-36     	; 0x569c <_ZN5Print5printEc>
    56c0:	9c 01       	movw	r18, r24
    56c2:	20 0f       	add	r18, r16
    56c4:	31 1f       	adc	r19, r17
    56c6:	c9 01       	movw	r24, r18
    56c8:	df 91       	pop	r29
    56ca:	cf 91       	pop	r28
    56cc:	1f 91       	pop	r17
    56ce:	0f 91       	pop	r16
    56d0:	08 95       	ret

000056d2 <_ZN5Print7printlnEPKc>:
    56d2:	0f 93       	push	r16
    56d4:	1f 93       	push	r17
    56d6:	cf 93       	push	r28
    56d8:	df 93       	push	r29
    56da:	ec 01       	movw	r28, r24
    56dc:	a7 df       	rcall	.-178    	; 0x562c <_ZN5Print5writeEPKc>
    56de:	8c 01       	movw	r16, r24
    56e0:	ce 01       	movw	r24, r28
    56e2:	e3 df       	rcall	.-58     	; 0x56aa <_ZN5Print7printlnEv>
    56e4:	98 01       	movw	r18, r16
    56e6:	28 0f       	add	r18, r24
    56e8:	39 1f       	adc	r19, r25
    56ea:	c9 01       	movw	r24, r18
    56ec:	df 91       	pop	r29
    56ee:	cf 91       	pop	r28
    56f0:	1f 91       	pop	r17
    56f2:	0f 91       	pop	r16
    56f4:	08 95       	ret

000056f6 <_ZN5Print11printNumberEmh>:
    56f6:	4f 92       	push	r4
    56f8:	5f 92       	push	r5
    56fa:	6f 92       	push	r6
    56fc:	7f 92       	push	r7
    56fe:	9f 92       	push	r9
    5700:	af 92       	push	r10
    5702:	bf 92       	push	r11
    5704:	cf 92       	push	r12
    5706:	df 92       	push	r13
    5708:	ef 92       	push	r14
    570a:	ff 92       	push	r15
    570c:	0f 93       	push	r16
    570e:	1f 93       	push	r17
    5710:	cf 93       	push	r28
    5712:	df 93       	push	r29
    5714:	cd b7       	in	r28, 0x3d	; 61
    5716:	de b7       	in	r29, 0x3e	; 62
    5718:	a1 97       	sbiw	r28, 0x21	; 33
    571a:	0f b6       	in	r0, 0x3f	; 63
    571c:	f8 94       	cli
    571e:	de bf       	out	0x3e, r29	; 62
    5720:	0f be       	out	0x3f, r0	; 63
    5722:	cd bf       	out	0x3d, r28	; 61
    5724:	5c 01       	movw	r10, r24
    5726:	6a 01       	movw	r12, r20
    5728:	7b 01       	movw	r14, r22
    572a:	92 2e       	mov	r9, r18
    572c:	19 a2       	std	Y+33, r1	; 0x21
    572e:	81 e0       	ldi	r24, 0x01	; 1
    5730:	82 17       	cp	r24, r18
    5732:	10 f0       	brcs	.+4      	; 0x5738 <_ZN5Print11printNumberEmh+0x42>
    5734:	8a e0       	ldi	r24, 0x0A	; 10
    5736:	98 2e       	mov	r9, r24
    5738:	8e 01       	movw	r16, r28
    573a:	0f 5d       	subi	r16, 0xDF	; 223
    573c:	1f 4f       	sbci	r17, 0xFF	; 255
    573e:	49 2c       	mov	r4, r9
    5740:	51 2c       	mov	r5, r1
    5742:	61 2c       	mov	r6, r1
    5744:	71 2c       	mov	r7, r1
    5746:	c7 01       	movw	r24, r14
    5748:	b6 01       	movw	r22, r12
    574a:	a3 01       	movw	r20, r6
    574c:	92 01       	movw	r18, r4
    574e:	0e 94 97 3e 	call	0x7d2e	; 0x7d2e <__udivmodsi4>
    5752:	8c 2d       	mov	r24, r12
    5754:	92 9e       	mul	r9, r18
    5756:	80 19       	sub	r24, r0
    5758:	11 24       	eor	r1, r1
    575a:	01 50       	subi	r16, 0x01	; 1
    575c:	11 09       	sbc	r17, r1
    575e:	8a 30       	cpi	r24, 0x0A	; 10
    5760:	10 f4       	brcc	.+4      	; 0x5766 <_ZN5Print11printNumberEmh+0x70>
    5762:	80 5d       	subi	r24, 0xD0	; 208
    5764:	01 c0       	rjmp	.+2      	; 0x5768 <_ZN5Print11printNumberEmh+0x72>
    5766:	89 5c       	subi	r24, 0xC9	; 201
    5768:	f8 01       	movw	r30, r16
    576a:	80 83       	st	Z, r24
    576c:	69 01       	movw	r12, r18
    576e:	7a 01       	movw	r14, r20
    5770:	c1 14       	cp	r12, r1
    5772:	d1 04       	cpc	r13, r1
    5774:	e1 04       	cpc	r14, r1
    5776:	f1 04       	cpc	r15, r1
    5778:	31 f7       	brne	.-52     	; 0x5746 <_ZN5Print11printNumberEmh+0x50>
    577a:	b8 01       	movw	r22, r16
    577c:	c5 01       	movw	r24, r10
    577e:	56 df       	rcall	.-340    	; 0x562c <_ZN5Print5writeEPKc>
    5780:	a1 96       	adiw	r28, 0x21	; 33
    5782:	0f b6       	in	r0, 0x3f	; 63
    5784:	f8 94       	cli
    5786:	de bf       	out	0x3e, r29	; 62
    5788:	0f be       	out	0x3f, r0	; 63
    578a:	cd bf       	out	0x3d, r28	; 61
    578c:	df 91       	pop	r29
    578e:	cf 91       	pop	r28
    5790:	1f 91       	pop	r17
    5792:	0f 91       	pop	r16
    5794:	ff 90       	pop	r15
    5796:	ef 90       	pop	r14
    5798:	df 90       	pop	r13
    579a:	cf 90       	pop	r12
    579c:	bf 90       	pop	r11
    579e:	af 90       	pop	r10
    57a0:	9f 90       	pop	r9
    57a2:	7f 90       	pop	r7
    57a4:	6f 90       	pop	r6
    57a6:	5f 90       	pop	r5
    57a8:	4f 90       	pop	r4
    57aa:	08 95       	ret

000057ac <_ZN5Print5printEmi>:
    57ac:	21 15       	cp	r18, r1
    57ae:	31 05       	cpc	r19, r1
    57b0:	41 f4       	brne	.+16     	; 0x57c2 <_ZN5Print5printEmi+0x16>
    57b2:	dc 01       	movw	r26, r24
    57b4:	ed 91       	ld	r30, X+
    57b6:	fc 91       	ld	r31, X
    57b8:	01 90       	ld	r0, Z+
    57ba:	f0 81       	ld	r31, Z
    57bc:	e0 2d       	mov	r30, r0
    57be:	64 2f       	mov	r22, r20
    57c0:	09 94       	ijmp
    57c2:	99 cf       	rjmp	.-206    	; 0x56f6 <_ZN5Print11printNumberEmh>

000057c4 <_ZN5Print5printEji>:
    57c4:	9a 01       	movw	r18, r20
    57c6:	ab 01       	movw	r20, r22
    57c8:	60 e0       	ldi	r22, 0x00	; 0
    57ca:	70 e0       	ldi	r23, 0x00	; 0
    57cc:	ef cf       	rjmp	.-34     	; 0x57ac <_ZN5Print5printEmi>

000057ce <_ZN5Print5printEhi>:
    57ce:	9a 01       	movw	r18, r20
    57d0:	46 2f       	mov	r20, r22
    57d2:	50 e0       	ldi	r21, 0x00	; 0
    57d4:	60 e0       	ldi	r22, 0x00	; 0
    57d6:	70 e0       	ldi	r23, 0x00	; 0
    57d8:	e9 cf       	rjmp	.-46     	; 0x57ac <_ZN5Print5printEmi>

000057da <_ZN5Print7printlnEhi>:
    57da:	0f 93       	push	r16
    57dc:	1f 93       	push	r17
    57de:	cf 93       	push	r28
    57e0:	df 93       	push	r29
    57e2:	ec 01       	movw	r28, r24
    57e4:	9a 01       	movw	r18, r20
    57e6:	46 2f       	mov	r20, r22
    57e8:	50 e0       	ldi	r21, 0x00	; 0
    57ea:	60 e0       	ldi	r22, 0x00	; 0
    57ec:	70 e0       	ldi	r23, 0x00	; 0
    57ee:	de df       	rcall	.-68     	; 0x57ac <_ZN5Print5printEmi>
    57f0:	8c 01       	movw	r16, r24
    57f2:	ce 01       	movw	r24, r28
    57f4:	5a df       	rcall	.-332    	; 0x56aa <_ZN5Print7printlnEv>
    57f6:	98 01       	movw	r18, r16
    57f8:	28 0f       	add	r18, r24
    57fa:	39 1f       	adc	r19, r25
    57fc:	c9 01       	movw	r24, r18
    57fe:	df 91       	pop	r29
    5800:	cf 91       	pop	r28
    5802:	1f 91       	pop	r17
    5804:	0f 91       	pop	r16
    5806:	08 95       	ret

00005808 <_ZN5Print5printEli>:
    5808:	cf 92       	push	r12
    580a:	df 92       	push	r13
    580c:	ef 92       	push	r14
    580e:	ff 92       	push	r15
    5810:	0f 93       	push	r16
    5812:	1f 93       	push	r17
    5814:	cf 93       	push	r28
    5816:	df 93       	push	r29
    5818:	ec 01       	movw	r28, r24
    581a:	6a 01       	movw	r12, r20
    581c:	7b 01       	movw	r14, r22
    581e:	21 15       	cp	r18, r1
    5820:	31 05       	cpc	r19, r1
    5822:	79 f4       	brne	.+30     	; 0x5842 <_ZN5Print5printEli+0x3a>
    5824:	e8 81       	ld	r30, Y
    5826:	f9 81       	ldd	r31, Y+1	; 0x01
    5828:	01 90       	ld	r0, Z+
    582a:	f0 81       	ld	r31, Z
    582c:	e0 2d       	mov	r30, r0
    582e:	64 2f       	mov	r22, r20
    5830:	df 91       	pop	r29
    5832:	cf 91       	pop	r28
    5834:	1f 91       	pop	r17
    5836:	0f 91       	pop	r16
    5838:	ff 90       	pop	r15
    583a:	ef 90       	pop	r14
    583c:	df 90       	pop	r13
    583e:	cf 90       	pop	r12
    5840:	09 94       	ijmp
    5842:	2a 30       	cpi	r18, 0x0A	; 10
    5844:	31 05       	cpc	r19, r1
    5846:	19 f4       	brne	.+6      	; 0x584e <_ZN5Print5printEli+0x46>
    5848:	77 fd       	sbrc	r23, 7
    584a:	0d c0       	rjmp	.+26     	; 0x5866 <_ZN5Print5printEli+0x5e>
    584c:	2a e0       	ldi	r18, 0x0A	; 10
    584e:	b7 01       	movw	r22, r14
    5850:	a6 01       	movw	r20, r12
    5852:	ce 01       	movw	r24, r28
    5854:	df 91       	pop	r29
    5856:	cf 91       	pop	r28
    5858:	1f 91       	pop	r17
    585a:	0f 91       	pop	r16
    585c:	ff 90       	pop	r15
    585e:	ef 90       	pop	r14
    5860:	df 90       	pop	r13
    5862:	cf 90       	pop	r12
    5864:	48 cf       	rjmp	.-368    	; 0x56f6 <_ZN5Print11printNumberEmh>
    5866:	6d e2       	ldi	r22, 0x2D	; 45
    5868:	19 df       	rcall	.-462    	; 0x569c <_ZN5Print5printEc>
    586a:	8c 01       	movw	r16, r24
    586c:	44 27       	eor	r20, r20
    586e:	55 27       	eor	r21, r21
    5870:	ba 01       	movw	r22, r20
    5872:	4c 19       	sub	r20, r12
    5874:	5d 09       	sbc	r21, r13
    5876:	6e 09       	sbc	r22, r14
    5878:	7f 09       	sbc	r23, r15
    587a:	2a e0       	ldi	r18, 0x0A	; 10
    587c:	ce 01       	movw	r24, r28
    587e:	3b df       	rcall	.-394    	; 0x56f6 <_ZN5Print11printNumberEmh>
    5880:	08 0f       	add	r16, r24
    5882:	19 1f       	adc	r17, r25
    5884:	c8 01       	movw	r24, r16
    5886:	df 91       	pop	r29
    5888:	cf 91       	pop	r28
    588a:	1f 91       	pop	r17
    588c:	0f 91       	pop	r16
    588e:	ff 90       	pop	r15
    5890:	ef 90       	pop	r14
    5892:	df 90       	pop	r13
    5894:	cf 90       	pop	r12
    5896:	08 95       	ret

00005898 <__vector_16>:
    5898:	1f 92       	push	r1
    589a:	0f 92       	push	r0
    589c:	0f b6       	in	r0, 0x3f	; 63
    589e:	0f 92       	push	r0
    58a0:	11 24       	eor	r1, r1
    58a2:	2f 93       	push	r18
    58a4:	3f 93       	push	r19
    58a6:	8f 93       	push	r24
    58a8:	9f 93       	push	r25
    58aa:	af 93       	push	r26
    58ac:	bf 93       	push	r27
    58ae:	80 91 1e 05 	lds	r24, 0x051E
    58b2:	90 91 1f 05 	lds	r25, 0x051F
    58b6:	a0 91 20 05 	lds	r26, 0x0520
    58ba:	b0 91 21 05 	lds	r27, 0x0521
    58be:	30 91 26 05 	lds	r19, 0x0526
    58c2:	23 2f       	mov	r18, r19
    58c4:	2d 5f       	subi	r18, 0xFD	; 253
    58c6:	2d 37       	cpi	r18, 0x7D	; 125
    58c8:	20 f4       	brcc	.+8      	; 0x58d2 <__vector_16+0x3a>
    58ca:	01 96       	adiw	r24, 0x01	; 1
    58cc:	a1 1d       	adc	r26, r1
    58ce:	b1 1d       	adc	r27, r1
    58d0:	05 c0       	rjmp	.+10     	; 0x58dc <__vector_16+0x44>
    58d2:	23 2f       	mov	r18, r19
    58d4:	2a 57       	subi	r18, 0x7A	; 122
    58d6:	02 96       	adiw	r24, 0x02	; 2
    58d8:	a1 1d       	adc	r26, r1
    58da:	b1 1d       	adc	r27, r1
    58dc:	20 93 26 05 	sts	0x0526, r18
    58e0:	80 93 1e 05 	sts	0x051E, r24
    58e4:	90 93 1f 05 	sts	0x051F, r25
    58e8:	a0 93 20 05 	sts	0x0520, r26
    58ec:	b0 93 21 05 	sts	0x0521, r27
    58f0:	80 91 22 05 	lds	r24, 0x0522
    58f4:	90 91 23 05 	lds	r25, 0x0523
    58f8:	a0 91 24 05 	lds	r26, 0x0524
    58fc:	b0 91 25 05 	lds	r27, 0x0525
    5900:	01 96       	adiw	r24, 0x01	; 1
    5902:	a1 1d       	adc	r26, r1
    5904:	b1 1d       	adc	r27, r1
    5906:	80 93 22 05 	sts	0x0522, r24
    590a:	90 93 23 05 	sts	0x0523, r25
    590e:	a0 93 24 05 	sts	0x0524, r26
    5912:	b0 93 25 05 	sts	0x0525, r27
    5916:	bf 91       	pop	r27
    5918:	af 91       	pop	r26
    591a:	9f 91       	pop	r25
    591c:	8f 91       	pop	r24
    591e:	3f 91       	pop	r19
    5920:	2f 91       	pop	r18
    5922:	0f 90       	pop	r0
    5924:	0f be       	out	0x3f, r0	; 63
    5926:	0f 90       	pop	r0
    5928:	1f 90       	pop	r1
    592a:	18 95       	reti

0000592c <millis>:
    592c:	0f 93       	push	r16
    592e:	1f 93       	push	r17
    5930:	8f b7       	in	r24, 0x3f	; 63
    5932:	f8 94       	cli
    5934:	00 91 1e 05 	lds	r16, 0x051E
    5938:	10 91 1f 05 	lds	r17, 0x051F
    593c:	20 91 20 05 	lds	r18, 0x0520
    5940:	30 91 21 05 	lds	r19, 0x0521
    5944:	8f bf       	out	0x3f, r24	; 63
    5946:	b8 01       	movw	r22, r16
    5948:	c9 01       	movw	r24, r18
    594a:	1f 91       	pop	r17
    594c:	0f 91       	pop	r16
    594e:	08 95       	ret

00005950 <micros>:
    5950:	0f 93       	push	r16
    5952:	1f 93       	push	r17
    5954:	9f b7       	in	r25, 0x3f	; 63
    5956:	f8 94       	cli
    5958:	00 91 22 05 	lds	r16, 0x0522
    595c:	10 91 23 05 	lds	r17, 0x0523
    5960:	20 91 24 05 	lds	r18, 0x0524
    5964:	30 91 25 05 	lds	r19, 0x0525
    5968:	86 b5       	in	r24, 0x26	; 38
    596a:	a8 9b       	sbis	0x15, 0	; 21
    596c:	06 c0       	rjmp	.+12     	; 0x597a <micros+0x2a>
    596e:	8f 3f       	cpi	r24, 0xFF	; 255
    5970:	21 f0       	breq	.+8      	; 0x597a <micros+0x2a>
    5972:	0f 5f       	subi	r16, 0xFF	; 255
    5974:	1f 4f       	sbci	r17, 0xFF	; 255
    5976:	2f 4f       	sbci	r18, 0xFF	; 255
    5978:	3f 4f       	sbci	r19, 0xFF	; 255
    597a:	9f bf       	out	0x3f, r25	; 63
    597c:	32 2f       	mov	r19, r18
    597e:	21 2f       	mov	r18, r17
    5980:	10 2f       	mov	r17, r16
    5982:	00 27       	eor	r16, r16
    5984:	08 0f       	add	r16, r24
    5986:	11 1d       	adc	r17, r1
    5988:	21 1d       	adc	r18, r1
    598a:	31 1d       	adc	r19, r1
    598c:	42 e0       	ldi	r20, 0x02	; 2
    598e:	00 0f       	add	r16, r16
    5990:	11 1f       	adc	r17, r17
    5992:	22 1f       	adc	r18, r18
    5994:	33 1f       	adc	r19, r19
    5996:	4a 95       	dec	r20
    5998:	d1 f7       	brne	.-12     	; 0x598e <micros+0x3e>
    599a:	b8 01       	movw	r22, r16
    599c:	c9 01       	movw	r24, r18
    599e:	1f 91       	pop	r17
    59a0:	0f 91       	pop	r16
    59a2:	08 95       	ret

000059a4 <delay>:
    59a4:	cf 92       	push	r12
    59a6:	df 92       	push	r13
    59a8:	ef 92       	push	r14
    59aa:	ff 92       	push	r15
    59ac:	cf 93       	push	r28
    59ae:	df 93       	push	r29
    59b0:	6b 01       	movw	r12, r22
    59b2:	7c 01       	movw	r14, r24
    59b4:	cd df       	rcall	.-102    	; 0x5950 <micros>
    59b6:	eb 01       	movw	r28, r22
    59b8:	0d c0       	rjmp	.+26     	; 0x59d4 <delay+0x30>
    59ba:	ca df       	rcall	.-108    	; 0x5950 <micros>
    59bc:	6c 1b       	sub	r22, r28
    59be:	7d 0b       	sbc	r23, r29
    59c0:	68 3e       	cpi	r22, 0xE8	; 232
    59c2:	73 40       	sbci	r23, 0x03	; 3
    59c4:	38 f0       	brcs	.+14     	; 0x59d4 <delay+0x30>
    59c6:	81 e0       	ldi	r24, 0x01	; 1
    59c8:	c8 1a       	sub	r12, r24
    59ca:	d1 08       	sbc	r13, r1
    59cc:	e1 08       	sbc	r14, r1
    59ce:	f1 08       	sbc	r15, r1
    59d0:	c8 51       	subi	r28, 0x18	; 24
    59d2:	dc 4f       	sbci	r29, 0xFC	; 252
    59d4:	c1 14       	cp	r12, r1
    59d6:	d1 04       	cpc	r13, r1
    59d8:	e1 04       	cpc	r14, r1
    59da:	f1 04       	cpc	r15, r1
    59dc:	71 f7       	brne	.-36     	; 0x59ba <delay+0x16>
    59de:	df 91       	pop	r29
    59e0:	cf 91       	pop	r28
    59e2:	ff 90       	pop	r15
    59e4:	ef 90       	pop	r14
    59e6:	df 90       	pop	r13
    59e8:	cf 90       	pop	r12
    59ea:	08 95       	ret

000059ec <delayMicroseconds>:
    59ec:	01 97       	sbiw	r24, 0x01	; 1
    59ee:	39 f0       	breq	.+14     	; 0x59fe <delayMicroseconds+0x12>
    59f0:	88 0f       	add	r24, r24
    59f2:	99 1f       	adc	r25, r25
    59f4:	88 0f       	add	r24, r24
    59f6:	99 1f       	adc	r25, r25
    59f8:	02 97       	sbiw	r24, 0x02	; 2
    59fa:	01 97       	sbiw	r24, 0x01	; 1
    59fc:	f1 f7       	brne	.-4      	; 0x59fa <delayMicroseconds+0xe>
    59fe:	08 95       	ret

00005a00 <init>:
    5a00:	78 94       	sei
    5a02:	84 b5       	in	r24, 0x24	; 36
    5a04:	82 60       	ori	r24, 0x02	; 2
    5a06:	84 bd       	out	0x24, r24	; 36
    5a08:	84 b5       	in	r24, 0x24	; 36
    5a0a:	81 60       	ori	r24, 0x01	; 1
    5a0c:	84 bd       	out	0x24, r24	; 36
    5a0e:	85 b5       	in	r24, 0x25	; 37
    5a10:	82 60       	ori	r24, 0x02	; 2
    5a12:	85 bd       	out	0x25, r24	; 37
    5a14:	85 b5       	in	r24, 0x25	; 37
    5a16:	81 60       	ori	r24, 0x01	; 1
    5a18:	85 bd       	out	0x25, r24	; 37
    5a1a:	ee e6       	ldi	r30, 0x6E	; 110
    5a1c:	f0 e0       	ldi	r31, 0x00	; 0
    5a1e:	80 81       	ld	r24, Z
    5a20:	81 60       	ori	r24, 0x01	; 1
    5a22:	80 83       	st	Z, r24
    5a24:	e1 e8       	ldi	r30, 0x81	; 129
    5a26:	f0 e0       	ldi	r31, 0x00	; 0
    5a28:	10 82       	st	Z, r1
    5a2a:	80 81       	ld	r24, Z
    5a2c:	82 60       	ori	r24, 0x02	; 2
    5a2e:	80 83       	st	Z, r24
    5a30:	80 81       	ld	r24, Z
    5a32:	81 60       	ori	r24, 0x01	; 1
    5a34:	80 83       	st	Z, r24
    5a36:	e0 e8       	ldi	r30, 0x80	; 128
    5a38:	f0 e0       	ldi	r31, 0x00	; 0
    5a3a:	80 81       	ld	r24, Z
    5a3c:	81 60       	ori	r24, 0x01	; 1
    5a3e:	80 83       	st	Z, r24
    5a40:	e1 eb       	ldi	r30, 0xB1	; 177
    5a42:	f0 e0       	ldi	r31, 0x00	; 0
    5a44:	80 81       	ld	r24, Z
    5a46:	84 60       	ori	r24, 0x04	; 4
    5a48:	80 83       	st	Z, r24
    5a4a:	e0 eb       	ldi	r30, 0xB0	; 176
    5a4c:	f0 e0       	ldi	r31, 0x00	; 0
    5a4e:	80 81       	ld	r24, Z
    5a50:	81 60       	ori	r24, 0x01	; 1
    5a52:	80 83       	st	Z, r24
    5a54:	ea e7       	ldi	r30, 0x7A	; 122
    5a56:	f0 e0       	ldi	r31, 0x00	; 0
    5a58:	80 81       	ld	r24, Z
    5a5a:	84 60       	ori	r24, 0x04	; 4
    5a5c:	80 83       	st	Z, r24
    5a5e:	80 81       	ld	r24, Z
    5a60:	82 60       	ori	r24, 0x02	; 2
    5a62:	80 83       	st	Z, r24
    5a64:	80 81       	ld	r24, Z
    5a66:	81 60       	ori	r24, 0x01	; 1
    5a68:	80 83       	st	Z, r24
    5a6a:	80 81       	ld	r24, Z
    5a6c:	80 68       	ori	r24, 0x80	; 128
    5a6e:	80 83       	st	Z, r24
    5a70:	10 92 c1 00 	sts	0x00C1, r1
    5a74:	08 95       	ret

00005a76 <turnOffPWM>:
    5a76:	83 30       	cpi	r24, 0x03	; 3
    5a78:	69 f0       	breq	.+26     	; 0x5a94 <turnOffPWM+0x1e>
    5a7a:	28 f4       	brcc	.+10     	; 0x5a86 <turnOffPWM+0x10>
    5a7c:	81 30       	cpi	r24, 0x01	; 1
    5a7e:	a1 f0       	breq	.+40     	; 0x5aa8 <turnOffPWM+0x32>
    5a80:	82 30       	cpi	r24, 0x02	; 2
    5a82:	11 f5       	brne	.+68     	; 0x5ac8 <turnOffPWM+0x52>
    5a84:	14 c0       	rjmp	.+40     	; 0x5aae <turnOffPWM+0x38>
    5a86:	86 30       	cpi	r24, 0x06	; 6
    5a88:	b1 f0       	breq	.+44     	; 0x5ab6 <turnOffPWM+0x40>
    5a8a:	87 30       	cpi	r24, 0x07	; 7
    5a8c:	c1 f0       	breq	.+48     	; 0x5abe <turnOffPWM+0x48>
    5a8e:	84 30       	cpi	r24, 0x04	; 4
    5a90:	d9 f4       	brne	.+54     	; 0x5ac8 <turnOffPWM+0x52>
    5a92:	04 c0       	rjmp	.+8      	; 0x5a9c <turnOffPWM+0x26>
    5a94:	80 91 80 00 	lds	r24, 0x0080
    5a98:	8f 77       	andi	r24, 0x7F	; 127
    5a9a:	03 c0       	rjmp	.+6      	; 0x5aa2 <turnOffPWM+0x2c>
    5a9c:	80 91 80 00 	lds	r24, 0x0080
    5aa0:	8f 7d       	andi	r24, 0xDF	; 223
    5aa2:	80 93 80 00 	sts	0x0080, r24
    5aa6:	08 95       	ret
    5aa8:	84 b5       	in	r24, 0x24	; 36
    5aaa:	8f 77       	andi	r24, 0x7F	; 127
    5aac:	02 c0       	rjmp	.+4      	; 0x5ab2 <turnOffPWM+0x3c>
    5aae:	84 b5       	in	r24, 0x24	; 36
    5ab0:	8f 7d       	andi	r24, 0xDF	; 223
    5ab2:	84 bd       	out	0x24, r24	; 36
    5ab4:	08 95       	ret
    5ab6:	80 91 b0 00 	lds	r24, 0x00B0
    5aba:	8f 77       	andi	r24, 0x7F	; 127
    5abc:	03 c0       	rjmp	.+6      	; 0x5ac4 <turnOffPWM+0x4e>
    5abe:	80 91 b0 00 	lds	r24, 0x00B0
    5ac2:	8f 7d       	andi	r24, 0xDF	; 223
    5ac4:	80 93 b0 00 	sts	0x00B0, r24
    5ac8:	08 95       	ret

00005aca <pinMode>:
    5aca:	cf 93       	push	r28
    5acc:	df 93       	push	r29
    5ace:	90 e0       	ldi	r25, 0x00	; 0
    5ad0:	fc 01       	movw	r30, r24
    5ad2:	ec 50       	subi	r30, 0x0C	; 12
    5ad4:	fd 4f       	sbci	r31, 0xFD	; 253
    5ad6:	44 91       	lpm	r20, Z
    5ad8:	fc 01       	movw	r30, r24
    5ada:	e8 5f       	subi	r30, 0xF8	; 248
    5adc:	fc 4f       	sbci	r31, 0xFC	; 252
    5ade:	84 91       	lpm	r24, Z
    5ae0:	88 23       	and	r24, r24
    5ae2:	41 f1       	breq	.+80     	; 0x5b34 <pinMode+0x6a>
    5ae4:	90 e0       	ldi	r25, 0x00	; 0
    5ae6:	88 0f       	add	r24, r24
    5ae8:	99 1f       	adc	r25, r25
    5aea:	fc 01       	movw	r30, r24
    5aec:	ea 5d       	subi	r30, 0xDA	; 218
    5aee:	fc 4f       	sbci	r31, 0xFC	; 252
    5af0:	25 91       	lpm	r18, Z+
    5af2:	34 91       	lpm	r19, Z
    5af4:	d9 01       	movw	r26, r18
    5af6:	84 5e       	subi	r24, 0xE4	; 228
    5af8:	9c 4f       	sbci	r25, 0xFC	; 252
    5afa:	fc 01       	movw	r30, r24
    5afc:	85 91       	lpm	r24, Z+
    5afe:	94 91       	lpm	r25, Z
    5b00:	c8 2f       	mov	r28, r24
    5b02:	d9 2f       	mov	r29, r25
    5b04:	9f b7       	in	r25, 0x3f	; 63
    5b06:	f8 94       	cli
    5b08:	8c 91       	ld	r24, X
    5b0a:	61 11       	cpse	r22, r1
    5b0c:	06 c0       	rjmp	.+12     	; 0x5b1a <pinMode+0x50>
    5b0e:	40 95       	com	r20
    5b10:	84 23       	and	r24, r20
    5b12:	8c 93       	st	X, r24
    5b14:	88 81       	ld	r24, Y
    5b16:	84 23       	and	r24, r20
    5b18:	08 c0       	rjmp	.+16     	; 0x5b2a <pinMode+0x60>
    5b1a:	62 30       	cpi	r22, 0x02	; 2
    5b1c:	41 f4       	brne	.+16     	; 0x5b2e <pinMode+0x64>
    5b1e:	24 2f       	mov	r18, r20
    5b20:	20 95       	com	r18
    5b22:	82 23       	and	r24, r18
    5b24:	8c 93       	st	X, r24
    5b26:	88 81       	ld	r24, Y
    5b28:	84 2b       	or	r24, r20
    5b2a:	88 83       	st	Y, r24
    5b2c:	02 c0       	rjmp	.+4      	; 0x5b32 <pinMode+0x68>
    5b2e:	84 2b       	or	r24, r20
    5b30:	8c 93       	st	X, r24
    5b32:	9f bf       	out	0x3f, r25	; 63
    5b34:	df 91       	pop	r29
    5b36:	cf 91       	pop	r28
    5b38:	08 95       	ret

00005b3a <digitalWrite>:
    5b3a:	0f 93       	push	r16
    5b3c:	1f 93       	push	r17
    5b3e:	cf 93       	push	r28
    5b40:	df 93       	push	r29
    5b42:	1f 92       	push	r1
    5b44:	cd b7       	in	r28, 0x3d	; 61
    5b46:	de b7       	in	r29, 0x3e	; 62
    5b48:	28 2f       	mov	r18, r24
    5b4a:	30 e0       	ldi	r19, 0x00	; 0
    5b4c:	f9 01       	movw	r30, r18
    5b4e:	e0 52       	subi	r30, 0x20	; 32
    5b50:	fd 4f       	sbci	r31, 0xFD	; 253
    5b52:	84 91       	lpm	r24, Z
    5b54:	f9 01       	movw	r30, r18
    5b56:	ec 50       	subi	r30, 0x0C	; 12
    5b58:	fd 4f       	sbci	r31, 0xFD	; 253
    5b5a:	14 91       	lpm	r17, Z
    5b5c:	f9 01       	movw	r30, r18
    5b5e:	e8 5f       	subi	r30, 0xF8	; 248
    5b60:	fc 4f       	sbci	r31, 0xFC	; 252
    5b62:	04 91       	lpm	r16, Z
    5b64:	00 23       	and	r16, r16
    5b66:	c9 f0       	breq	.+50     	; 0x5b9a <digitalWrite+0x60>
    5b68:	88 23       	and	r24, r24
    5b6a:	19 f0       	breq	.+6      	; 0x5b72 <digitalWrite+0x38>
    5b6c:	69 83       	std	Y+1, r22	; 0x01
    5b6e:	83 df       	rcall	.-250    	; 0x5a76 <turnOffPWM>
    5b70:	69 81       	ldd	r22, Y+1	; 0x01
    5b72:	e0 2f       	mov	r30, r16
    5b74:	f0 e0       	ldi	r31, 0x00	; 0
    5b76:	ee 0f       	add	r30, r30
    5b78:	ff 1f       	adc	r31, r31
    5b7a:	e4 5e       	subi	r30, 0xE4	; 228
    5b7c:	fc 4f       	sbci	r31, 0xFC	; 252
    5b7e:	85 91       	lpm	r24, Z+
    5b80:	94 91       	lpm	r25, Z
    5b82:	dc 01       	movw	r26, r24
    5b84:	9f b7       	in	r25, 0x3f	; 63
    5b86:	f8 94       	cli
    5b88:	8c 91       	ld	r24, X
    5b8a:	61 11       	cpse	r22, r1
    5b8c:	03 c0       	rjmp	.+6      	; 0x5b94 <digitalWrite+0x5a>
    5b8e:	10 95       	com	r17
    5b90:	81 23       	and	r24, r17
    5b92:	01 c0       	rjmp	.+2      	; 0x5b96 <digitalWrite+0x5c>
    5b94:	81 2b       	or	r24, r17
    5b96:	8c 93       	st	X, r24
    5b98:	9f bf       	out	0x3f, r25	; 63
    5b9a:	0f 90       	pop	r0
    5b9c:	df 91       	pop	r29
    5b9e:	cf 91       	pop	r28
    5ba0:	1f 91       	pop	r17
    5ba2:	0f 91       	pop	r16
    5ba4:	08 95       	ret

00005ba6 <free>:
    5ba6:	ef 92       	push	r14
    5ba8:	ff 92       	push	r15
    5baa:	0f 93       	push	r16
    5bac:	1f 93       	push	r17
    5bae:	cf 93       	push	r28
    5bb0:	df 93       	push	r29
    5bb2:	00 97       	sbiw	r24, 0x00	; 0
    5bb4:	09 f4       	brne	.+2      	; 0x5bb8 <free+0x12>
    5bb6:	8f c0       	rjmp	.+286    	; 0x5cd6 <free+0x130>
    5bb8:	dc 01       	movw	r26, r24
    5bba:	12 97       	sbiw	r26, 0x02	; 2
    5bbc:	13 96       	adiw	r26, 0x03	; 3
    5bbe:	1c 92       	st	X, r1
    5bc0:	1e 92       	st	-X, r1
    5bc2:	12 97       	sbiw	r26, 0x02	; 2
    5bc4:	e0 90 2d 05 	lds	r14, 0x052D
    5bc8:	f0 90 2e 05 	lds	r15, 0x052E
    5bcc:	e1 14       	cp	r14, r1
    5bce:	f1 04       	cpc	r15, r1
    5bd0:	89 f4       	brne	.+34     	; 0x5bf4 <free+0x4e>
    5bd2:	2d 91       	ld	r18, X+
    5bd4:	3c 91       	ld	r19, X
    5bd6:	11 97       	sbiw	r26, 0x01	; 1
    5bd8:	28 0f       	add	r18, r24
    5bda:	39 1f       	adc	r19, r25
    5bdc:	80 91 16 01 	lds	r24, 0x0116
    5be0:	90 91 17 01 	lds	r25, 0x0117
    5be4:	82 17       	cp	r24, r18
    5be6:	93 07       	cpc	r25, r19
    5be8:	89 f5       	brne	.+98     	; 0x5c4c <free+0xa6>
    5bea:	b0 93 17 01 	sts	0x0117, r27
    5bee:	a0 93 16 01 	sts	0x0116, r26
    5bf2:	71 c0       	rjmp	.+226    	; 0x5cd6 <free+0x130>
    5bf4:	e7 01       	movw	r28, r14
    5bf6:	20 e0       	ldi	r18, 0x00	; 0
    5bf8:	30 e0       	ldi	r19, 0x00	; 0
    5bfa:	01 c0       	rjmp	.+2      	; 0x5bfe <free+0x58>
    5bfc:	ea 01       	movw	r28, r20
    5bfe:	ca 17       	cp	r28, r26
    5c00:	db 07       	cpc	r29, r27
    5c02:	38 f4       	brcc	.+14     	; 0x5c12 <free+0x6c>
    5c04:	4a 81       	ldd	r20, Y+2	; 0x02
    5c06:	5b 81       	ldd	r21, Y+3	; 0x03
    5c08:	9e 01       	movw	r18, r28
    5c0a:	41 15       	cp	r20, r1
    5c0c:	51 05       	cpc	r21, r1
    5c0e:	b1 f7       	brne	.-20     	; 0x5bfc <free+0x56>
    5c10:	22 c0       	rjmp	.+68     	; 0x5c56 <free+0xb0>
    5c12:	bc 01       	movw	r22, r24
    5c14:	62 50       	subi	r22, 0x02	; 2
    5c16:	71 09       	sbc	r23, r1
    5c18:	fb 01       	movw	r30, r22
    5c1a:	d3 83       	std	Z+3, r29	; 0x03
    5c1c:	c2 83       	std	Z+2, r28	; 0x02
    5c1e:	00 81       	ld	r16, Z
    5c20:	11 81       	ldd	r17, Z+1	; 0x01
    5c22:	ac 01       	movw	r20, r24
    5c24:	40 0f       	add	r20, r16
    5c26:	51 1f       	adc	r21, r17
    5c28:	4c 17       	cp	r20, r28
    5c2a:	5d 07       	cpc	r21, r29
    5c2c:	61 f4       	brne	.+24     	; 0x5c46 <free+0xa0>
    5c2e:	48 81       	ld	r20, Y
    5c30:	59 81       	ldd	r21, Y+1	; 0x01
    5c32:	40 0f       	add	r20, r16
    5c34:	51 1f       	adc	r21, r17
    5c36:	4e 5f       	subi	r20, 0xFE	; 254
    5c38:	5f 4f       	sbci	r21, 0xFF	; 255
    5c3a:	51 83       	std	Z+1, r21	; 0x01
    5c3c:	40 83       	st	Z, r20
    5c3e:	4a 81       	ldd	r20, Y+2	; 0x02
    5c40:	5b 81       	ldd	r21, Y+3	; 0x03
    5c42:	53 83       	std	Z+3, r21	; 0x03
    5c44:	42 83       	std	Z+2, r20	; 0x02
    5c46:	21 15       	cp	r18, r1
    5c48:	31 05       	cpc	r19, r1
    5c4a:	29 f4       	brne	.+10     	; 0x5c56 <free+0xb0>
    5c4c:	b0 93 2e 05 	sts	0x052E, r27
    5c50:	a0 93 2d 05 	sts	0x052D, r26
    5c54:	40 c0       	rjmp	.+128    	; 0x5cd6 <free+0x130>
    5c56:	f9 01       	movw	r30, r18
    5c58:	b3 83       	std	Z+3, r27	; 0x03
    5c5a:	a2 83       	std	Z+2, r26	; 0x02
    5c5c:	e9 01       	movw	r28, r18
    5c5e:	69 91       	ld	r22, Y+
    5c60:	79 91       	ld	r23, Y+
    5c62:	c6 0f       	add	r28, r22
    5c64:	d7 1f       	adc	r29, r23
    5c66:	ac 17       	cp	r26, r28
    5c68:	bd 07       	cpc	r27, r29
    5c6a:	79 f4       	brne	.+30     	; 0x5c8a <free+0xe4>
    5c6c:	dc 01       	movw	r26, r24
    5c6e:	5e 91       	ld	r21, -X
    5c70:	4e 91       	ld	r20, -X
    5c72:	46 0f       	add	r20, r22
    5c74:	57 1f       	adc	r21, r23
    5c76:	4e 5f       	subi	r20, 0xFE	; 254
    5c78:	5f 4f       	sbci	r21, 0xFF	; 255
    5c7a:	51 83       	std	Z+1, r21	; 0x01
    5c7c:	40 83       	st	Z, r20
    5c7e:	12 96       	adiw	r26, 0x02	; 2
    5c80:	8d 91       	ld	r24, X+
    5c82:	9c 91       	ld	r25, X
    5c84:	13 97       	sbiw	r26, 0x03	; 3
    5c86:	93 83       	std	Z+3, r25	; 0x03
    5c88:	82 83       	std	Z+2, r24	; 0x02
    5c8a:	a0 e0       	ldi	r26, 0x00	; 0
    5c8c:	b0 e0       	ldi	r27, 0x00	; 0
    5c8e:	02 c0       	rjmp	.+4      	; 0x5c94 <free+0xee>
    5c90:	d7 01       	movw	r26, r14
    5c92:	7c 01       	movw	r14, r24
    5c94:	f7 01       	movw	r30, r14
    5c96:	82 81       	ldd	r24, Z+2	; 0x02
    5c98:	93 81       	ldd	r25, Z+3	; 0x03
    5c9a:	00 97       	sbiw	r24, 0x00	; 0
    5c9c:	c9 f7       	brne	.-14     	; 0x5c90 <free+0xea>
    5c9e:	c7 01       	movw	r24, r14
    5ca0:	02 96       	adiw	r24, 0x02	; 2
    5ca2:	20 81       	ld	r18, Z
    5ca4:	31 81       	ldd	r19, Z+1	; 0x01
    5ca6:	82 0f       	add	r24, r18
    5ca8:	93 1f       	adc	r25, r19
    5caa:	20 91 16 01 	lds	r18, 0x0116
    5cae:	30 91 17 01 	lds	r19, 0x0117
    5cb2:	28 17       	cp	r18, r24
    5cb4:	39 07       	cpc	r19, r25
    5cb6:	79 f4       	brne	.+30     	; 0x5cd6 <free+0x130>
    5cb8:	10 97       	sbiw	r26, 0x00	; 0
    5cba:	29 f4       	brne	.+10     	; 0x5cc6 <free+0x120>
    5cbc:	10 92 2e 05 	sts	0x052E, r1
    5cc0:	10 92 2d 05 	sts	0x052D, r1
    5cc4:	04 c0       	rjmp	.+8      	; 0x5cce <free+0x128>
    5cc6:	13 96       	adiw	r26, 0x03	; 3
    5cc8:	1c 92       	st	X, r1
    5cca:	1e 92       	st	-X, r1
    5ccc:	12 97       	sbiw	r26, 0x02	; 2
    5cce:	f0 92 17 01 	sts	0x0117, r15
    5cd2:	e0 92 16 01 	sts	0x0116, r14
    5cd6:	df 91       	pop	r29
    5cd8:	cf 91       	pop	r28
    5cda:	1f 91       	pop	r17
    5cdc:	0f 91       	pop	r16
    5cde:	ff 90       	pop	r15
    5ce0:	ef 90       	pop	r14
    5ce2:	08 95       	ret

00005ce4 <_ZN13NKEventParser5ParseEjPKhRKm>:
    5ce4:	cf 92       	push	r12
    5ce6:	df 92       	push	r13
    5ce8:	ef 92       	push	r14
    5cea:	ff 92       	push	r15
    5cec:	0f 93       	push	r16
    5cee:	1f 93       	push	r17
    5cf0:	cf 93       	push	r28
    5cf2:	df 93       	push	r29
    5cf4:	00 d0       	rcall	.+0      	; 0x5cf6 <_ZN13NKEventParser5ParseEjPKhRKm+0x12>
    5cf6:	00 d0       	rcall	.+0      	; 0x5cf8 <_ZN13NKEventParser5ParseEjPKhRKm+0x14>
    5cf8:	cd b7       	in	r28, 0x3d	; 61
    5cfa:	de b7       	in	r29, 0x3e	; 62
    5cfc:	8c 01       	movw	r16, r24
    5cfe:	5c 83       	std	Y+4, r21	; 0x04
    5d00:	4b 83       	std	Y+3, r20	; 0x03
    5d02:	7a 83       	std	Y+2, r23	; 0x02
    5d04:	69 83       	std	Y+1, r22	; 0x01
    5d06:	dc 01       	movw	r26, r24
    5d08:	17 96       	adiw	r26, 0x07	; 7
    5d0a:	8c 91       	ld	r24, X
    5d0c:	82 30       	cpi	r24, 0x02	; 2
    5d0e:	e9 f0       	breq	.+58     	; 0x5d4a <_ZN13NKEventParser5ParseEjPKhRKm+0x66>
    5d10:	28 f4       	brcc	.+10     	; 0x5d1c <_ZN13NKEventParser5ParseEjPKhRKm+0x38>
    5d12:	88 23       	and	r24, r24
    5d14:	41 f0       	breq	.+16     	; 0x5d26 <_ZN13NKEventParser5ParseEjPKhRKm+0x42>
    5d16:	81 30       	cpi	r24, 0x01	; 1
    5d18:	71 f0       	breq	.+28     	; 0x5d36 <_ZN13NKEventParser5ParseEjPKhRKm+0x52>
    5d1a:	65 c0       	rjmp	.+202    	; 0x5de6 <_ZN13NKEventParser5ParseEjPKhRKm+0x102>
    5d1c:	83 30       	cpi	r24, 0x03	; 3
    5d1e:	51 f1       	breq	.+84     	; 0x5d74 <_ZN13NKEventParser5ParseEjPKhRKm+0x90>
    5d20:	84 30       	cpi	r24, 0x04	; 4
    5d22:	99 f1       	breq	.+102    	; 0x5d8a <_ZN13NKEventParser5ParseEjPKhRKm+0xa6>
    5d24:	60 c0       	rjmp	.+192    	; 0x5de6 <_ZN13NKEventParser5ParseEjPKhRKm+0x102>
    5d26:	44 5f       	subi	r20, 0xF4	; 244
    5d28:	5f 4f       	sbci	r21, 0xFF	; 255
    5d2a:	5c 83       	std	Y+4, r21	; 0x04
    5d2c:	4b 83       	std	Y+3, r20	; 0x03
    5d2e:	6c 50       	subi	r22, 0x0C	; 12
    5d30:	71 09       	sbc	r23, r1
    5d32:	7a 83       	std	Y+2, r23	; 0x02
    5d34:	69 83       	std	Y+1, r22	; 0x01
    5d36:	22 e0       	ldi	r18, 0x02	; 2
    5d38:	f8 01       	movw	r30, r16
    5d3a:	24 87       	std	Z+12, r18	; 0x0c
    5d3c:	85 85       	ldd	r24, Z+13	; 0x0d
    5d3e:	96 85       	ldd	r25, Z+14	; 0x0e
    5d40:	96 8b       	std	Z+22, r25	; 0x16
    5d42:	85 8b       	std	Z+21, r24	; 0x15
    5d44:	20 8f       	std	Z+24, r18	; 0x18
    5d46:	27 8b       	std	Z+23, r18	; 0x17
    5d48:	27 83       	std	Z+7, r18	; 0x07
    5d4a:	ae 01       	movw	r20, r28
    5d4c:	4f 5f       	subi	r20, 0xFF	; 255
    5d4e:	5f 4f       	sbci	r21, 0xFF	; 255
    5d50:	be 01       	movw	r22, r28
    5d52:	6d 5f       	subi	r22, 0xFD	; 253
    5d54:	7f 4f       	sbci	r23, 0xFF	; 255
    5d56:	c8 01       	movw	r24, r16
    5d58:	45 96       	adiw	r24, 0x15	; 21
    5d5a:	3a d6       	rcall	.+3188   	; 0x69d0 <_ZN20MultiByteValueParser5ParseEPPhPj>
    5d5c:	88 23       	and	r24, r24
    5d5e:	09 f4       	brne	.+2      	; 0x5d62 <_ZN13NKEventParser5ParseEjPKhRKm+0x7e>
    5d60:	42 c0       	rjmp	.+132    	; 0x5de6 <_ZN13NKEventParser5ParseEjPKhRKm+0x102>
    5d62:	c8 01       	movw	r24, r16
    5d64:	0f 96       	adiw	r24, 0x0f	; 15
    5d66:	d8 01       	movw	r26, r16
    5d68:	1a 96       	adiw	r26, 0x0a	; 10
    5d6a:	9c 93       	st	X, r25
    5d6c:	8e 93       	st	-X, r24
    5d6e:	19 97       	sbiw	r26, 0x09	; 9
    5d70:	1b 96       	adiw	r26, 0x0b	; 11
    5d72:	8c 93       	st	X, r24
    5d74:	26 e0       	ldi	r18, 0x06	; 6
    5d76:	f8 01       	movw	r30, r16
    5d78:	24 87       	std	Z+12, r18	; 0x0c
    5d7a:	85 85       	ldd	r24, Z+13	; 0x0d
    5d7c:	96 85       	ldd	r25, Z+14	; 0x0e
    5d7e:	96 8b       	std	Z+22, r25	; 0x16
    5d80:	85 8b       	std	Z+21, r24	; 0x15
    5d82:	20 8f       	std	Z+24, r18	; 0x18
    5d84:	27 8b       	std	Z+23, r18	; 0x17
    5d86:	84 e0       	ldi	r24, 0x04	; 4
    5d88:	87 83       	std	Z+7, r24	; 0x07
    5d8a:	78 01       	movw	r14, r16
    5d8c:	f5 e1       	ldi	r31, 0x15	; 21
    5d8e:	ef 0e       	add	r14, r31
    5d90:	f1 1c       	adc	r15, r1
    5d92:	68 01       	movw	r12, r16
    5d94:	8f e0       	ldi	r24, 0x0F	; 15
    5d96:	c8 0e       	add	r12, r24
    5d98:	d1 1c       	adc	r13, r1
    5d9a:	d8 01       	movw	r26, r16
    5d9c:	1b 96       	adiw	r26, 0x0b	; 11
    5d9e:	8c 91       	ld	r24, X
    5da0:	1b 97       	sbiw	r26, 0x0b	; 11
    5da2:	88 23       	and	r24, r24
    5da4:	f1 f0       	breq	.+60     	; 0x5de2 <_ZN13NKEventParser5ParseEjPKhRKm+0xfe>
    5da6:	ae 01       	movw	r20, r28
    5da8:	4f 5f       	subi	r20, 0xFF	; 255
    5daa:	5f 4f       	sbci	r21, 0xFF	; 255
    5dac:	be 01       	movw	r22, r28
    5dae:	6d 5f       	subi	r22, 0xFD	; 253
    5db0:	7f 4f       	sbci	r23, 0xFF	; 255
    5db2:	c7 01       	movw	r24, r14
    5db4:	0d d6       	rcall	.+3098   	; 0x69d0 <_ZN20MultiByteValueParser5ParseEPPhPj>
    5db6:	88 23       	and	r24, r24
    5db8:	b1 f0       	breq	.+44     	; 0x5de6 <_ZN13NKEventParser5ParseEjPKhRKm+0x102>
    5dba:	d8 01       	movw	r26, r16
    5dbc:	14 96       	adiw	r26, 0x04	; 4
    5dbe:	8d 91       	ld	r24, X+
    5dc0:	9c 91       	ld	r25, X
    5dc2:	15 97       	sbiw	r26, 0x05	; 5
    5dc4:	00 97       	sbiw	r24, 0x00	; 0
    5dc6:	41 f0       	breq	.+16     	; 0x5dd8 <_ZN13NKEventParser5ParseEjPKhRKm+0xf4>
    5dc8:	dc 01       	movw	r26, r24
    5dca:	ed 91       	ld	r30, X+
    5dcc:	fc 91       	ld	r31, X
    5dce:	01 90       	ld	r0, Z+
    5dd0:	f0 81       	ld	r31, Z
    5dd2:	e0 2d       	mov	r30, r0
    5dd4:	b6 01       	movw	r22, r12
    5dd6:	09 95       	icall
    5dd8:	f8 01       	movw	r30, r16
    5dda:	83 85       	ldd	r24, Z+11	; 0x0b
    5ddc:	81 50       	subi	r24, 0x01	; 1
    5dde:	83 87       	std	Z+11, r24	; 0x0b
    5de0:	dc cf       	rjmp	.-72     	; 0x5d9a <_ZN13NKEventParser5ParseEjPKhRKm+0xb6>
    5de2:	17 96       	adiw	r26, 0x07	; 7
    5de4:	1c 92       	st	X, r1
    5de6:	0f 90       	pop	r0
    5de8:	0f 90       	pop	r0
    5dea:	0f 90       	pop	r0
    5dec:	0f 90       	pop	r0
    5dee:	df 91       	pop	r29
    5df0:	cf 91       	pop	r28
    5df2:	1f 91       	pop	r17
    5df4:	0f 91       	pop	r16
    5df6:	ff 90       	pop	r15
    5df8:	ef 90       	pop	r14
    5dfa:	df 90       	pop	r13
    5dfc:	cf 90       	pop	r12
    5dfe:	08 95       	ret

00005e00 <_ZN16PTPStateHandlers25OnDeviceDisconnectedStateEP3PTP>:
    5e00:	08 95       	ret

00005e02 <_ZN16PTPStateHandlers20OnSessionOpenedStateEP3PTP>:
    5e02:	84 e0       	ldi	r24, 0x04	; 4
    5e04:	fb 01       	movw	r30, r22
    5e06:	82 83       	std	Z+2, r24	; 0x02
    5e08:	08 95       	ret

00005e0a <_ZN16PTPStateHandlers24OnDeviceInitializedStateEP3PTP>:
    5e0a:	08 95       	ret

00005e0c <_ZN16PTPStateHandlers26OnDeviceNotRespondingStateEP3PTP>:
    5e0c:	08 95       	ret

00005e0e <_ZN16PTPStateHandlers17OnDeviceBusyStateEP3PTP>:
    5e0e:	08 95       	ret

00005e10 <_ZN3PTP7ReleaseEv>:
    5e10:	cf 93       	push	r28
    5e12:	df 93       	push	r29
    5e14:	ec 01       	movw	r28, r24
    5e16:	8c 85       	ldd	r24, Y+12	; 0x0c
    5e18:	9d 85       	ldd	r25, Y+13	; 0x0d
    5e1a:	dc 01       	movw	r26, r24
    5e1c:	ed 91       	ld	r30, X+
    5e1e:	fc 91       	ld	r31, X
    5e20:	04 80       	ldd	r0, Z+4	; 0x04
    5e22:	f5 81       	ldd	r31, Z+5	; 0x05
    5e24:	e0 2d       	mov	r30, r0
    5e26:	6a 85       	ldd	r22, Y+10	; 0x0a
    5e28:	09 95       	icall
    5e2a:	81 e0       	ldi	r24, 0x01	; 1
    5e2c:	8a 83       	std	Y+2, r24	; 0x02
    5e2e:	8f 81       	ldd	r24, Y+7	; 0x07
    5e30:	98 85       	ldd	r25, Y+8	; 0x08
    5e32:	dc 01       	movw	r26, r24
    5e34:	ed 91       	ld	r30, X+
    5e36:	fc 91       	ld	r31, X
    5e38:	01 90       	ld	r0, Z+
    5e3a:	f0 81       	ld	r31, Z
    5e3c:	e0 2d       	mov	r30, r0
    5e3e:	be 01       	movw	r22, r28
    5e40:	09 95       	icall
    5e42:	1a 86       	std	Y+10, r1	; 0x0a
    5e44:	1e 82       	std	Y+6, r1	; 0x06
    5e46:	1d 82       	std	Y+5, r1	; 0x05
    5e48:	8f ef       	ldi	r24, 0xFF	; 255
    5e4a:	9f ef       	ldi	r25, 0xFF	; 255
    5e4c:	9c 83       	std	Y+4, r25	; 0x04
    5e4e:	8b 83       	std	Y+3, r24	; 0x03
    5e50:	80 e0       	ldi	r24, 0x00	; 0
    5e52:	df 91       	pop	r29
    5e54:	cf 91       	pop	r28
    5e56:	08 95       	ret

00005e58 <_ZN3PTP10EventCheckEP13PTPReadParser>:
    5e58:	0f 93       	push	r16
    5e5a:	1f 93       	push	r17
    5e5c:	cf 93       	push	r28
    5e5e:	df 93       	push	r29
    5e60:	cd b7       	in	r28, 0x3d	; 61
    5e62:	de b7       	in	r29, 0x3e	; 62
    5e64:	2a 97       	sbiw	r28, 0x0a	; 10
    5e66:	0f b6       	in	r0, 0x3f	; 63
    5e68:	f8 94       	cli
    5e6a:	de bf       	out	0x3e, r29	; 62
    5e6c:	0f be       	out	0x3f, r0	; 63
    5e6e:	cd bf       	out	0x3d, r28	; 61
    5e70:	fc 01       	movw	r30, r24
    5e72:	19 82       	std	Y+1, r1	; 0x01
    5e74:	1a 82       	std	Y+2, r1	; 0x02
    5e76:	1b 82       	std	Y+3, r1	; 0x03
    5e78:	1c 82       	std	Y+4, r1	; 0x04
    5e7a:	1d 82       	std	Y+5, r1	; 0x05
    5e7c:	1e 82       	std	Y+6, r1	; 0x06
    5e7e:	1f 82       	std	Y+7, r1	; 0x07
    5e80:	18 86       	std	Y+8, r1	; 0x08
    5e82:	88 e0       	ldi	r24, 0x08	; 8
    5e84:	90 e0       	ldi	r25, 0x00	; 0
    5e86:	9a 87       	std	Y+10, r25	; 0x0a
    5e88:	89 87       	std	Y+9, r24	; 0x09
    5e8a:	8e 01       	movw	r16, r28
    5e8c:	0f 5f       	subi	r16, 0xFF	; 255
    5e8e:	1f 4f       	sbci	r17, 0xFF	; 255
    5e90:	9e 01       	movw	r18, r28
    5e92:	27 5f       	subi	r18, 0xF7	; 247
    5e94:	3f 4f       	sbci	r19, 0xFF	; 255
    5e96:	47 89       	ldd	r20, Z+23	; 0x17
    5e98:	62 85       	ldd	r22, Z+10	; 0x0a
    5e9a:	84 85       	ldd	r24, Z+12	; 0x0c
    5e9c:	95 85       	ldd	r25, Z+13	; 0x0d
    5e9e:	0e 94 62 3b 	call	0x76c4	; 0x76c4 <_ZN3USB10inTransferEhhPjPh>
    5ea2:	8f 3f       	cpi	r24, 0xFF	; 255
    5ea4:	41 f0       	breq	.+16     	; 0x5eb6 <_ZN3PTP10EventCheckEP13PTPReadParser+0x5e>
    5ea6:	61 e0       	ldi	r22, 0x01	; 1
    5ea8:	70 e0       	ldi	r23, 0x00	; 0
    5eaa:	80 e0       	ldi	r24, 0x00	; 0
    5eac:	90 e0       	ldi	r25, 0x00	; 0
    5eae:	7a dd       	rcall	.-1292   	; 0x59a4 <delay>
    5eb0:	82 e0       	ldi	r24, 0x02	; 2
    5eb2:	90 e2       	ldi	r25, 0x20	; 32
    5eb4:	02 c0       	rjmp	.+4      	; 0x5eba <_ZN3PTP10EventCheckEP13PTPReadParser+0x62>
    5eb6:	80 e0       	ldi	r24, 0x00	; 0
    5eb8:	90 e4       	ldi	r25, 0x40	; 64
    5eba:	2a 96       	adiw	r28, 0x0a	; 10
    5ebc:	0f b6       	in	r0, 0x3f	; 63
    5ebe:	f8 94       	cli
    5ec0:	de bf       	out	0x3e, r29	; 62
    5ec2:	0f be       	out	0x3f, r0	; 63
    5ec4:	cd bf       	out	0x3d, r28	; 61
    5ec6:	df 91       	pop	r29
    5ec8:	cf 91       	pop	r28
    5eca:	1f 91       	pop	r17
    5ecc:	0f 91       	pop	r16
    5ece:	08 95       	ret

00005ed0 <_ZN3PTPC1EP3USBP16PTPStateHandlers>:
    5ed0:	cf 93       	push	r28
    5ed2:	df 93       	push	r29
    5ed4:	fc 01       	movw	r30, r24
    5ed6:	8e e4       	ldi	r24, 0x4E	; 78
    5ed8:	92 e0       	ldi	r25, 0x02	; 2
    5eda:	91 83       	std	Z+1, r25	; 0x01
    5edc:	80 83       	st	Z, r24
    5ede:	12 82       	std	Z+2, r1	; 0x02
    5ee0:	8f ef       	ldi	r24, 0xFF	; 255
    5ee2:	9f ef       	ldi	r25, 0xFF	; 255
    5ee4:	94 83       	std	Z+4, r25	; 0x04
    5ee6:	83 83       	std	Z+3, r24	; 0x03
    5ee8:	16 82       	std	Z+6, r1	; 0x06
    5eea:	15 82       	std	Z+5, r1	; 0x05
    5eec:	50 87       	std	Z+8, r21	; 0x08
    5eee:	47 83       	std	Z+7, r20	; 0x07
    5ef0:	12 86       	std	Z+10, r1	; 0x0a
    5ef2:	13 86       	std	Z+11, r1	; 0x0b
    5ef4:	75 87       	std	Z+13, r23	; 0x0d
    5ef6:	64 87       	std	Z+12, r22	; 0x0c
    5ef8:	16 86       	std	Z+14, r1	; 0x0e
    5efa:	88 e0       	ldi	r24, 0x08	; 8
    5efc:	87 87       	std	Z+15, r24	; 0x0f
    5efe:	9c e3       	ldi	r25, 0x3C	; 60
    5f00:	90 8b       	std	Z+16, r25	; 0x10
    5f02:	11 8a       	std	Z+17, r1	; 0x11
    5f04:	82 8b       	std	Z+18, r24	; 0x12
    5f06:	13 8a       	std	Z+19, r1	; 0x13
    5f08:	14 8a       	std	Z+20, r1	; 0x14
    5f0a:	85 8b       	std	Z+21, r24	; 0x15
    5f0c:	16 8a       	std	Z+22, r1	; 0x16
    5f0e:	17 8a       	std	Z+23, r1	; 0x17
    5f10:	80 8f       	std	Z+24, r24	; 0x18
    5f12:	11 8e       	std	Z+25, r1	; 0x19
    5f14:	61 15       	cp	r22, r1
    5f16:	71 05       	cpc	r23, r1
    5f18:	b9 f0       	breq	.+46     	; 0x5f48 <_ZN3PTPC1EP3USBP16PTPStateHandlers+0x78>
    5f1a:	cb 01       	movw	r24, r22
    5f1c:	a0 e0       	ldi	r26, 0x00	; 0
    5f1e:	b0 e0       	ldi	r27, 0x00	; 0
    5f20:	ec 01       	movw	r28, r24
    5f22:	ca 5a       	subi	r28, 0xAA	; 170
    5f24:	df 4f       	sbci	r29, 0xFF	; 255
    5f26:	28 81       	ld	r18, Y
    5f28:	39 81       	ldd	r19, Y+1	; 0x01
    5f2a:	23 2b       	or	r18, r19
    5f2c:	41 f4       	brne	.+16     	; 0x5f3e <_ZN3PTPC1EP3USBP16PTPStateHandlers+0x6e>
    5f2e:	9b 96       	adiw	r26, 0x2b	; 43
    5f30:	aa 0f       	add	r26, r26
    5f32:	bb 1f       	adc	r27, r27
    5f34:	a6 0f       	add	r26, r22
    5f36:	b7 1f       	adc	r27, r23
    5f38:	ed 93       	st	X+, r30
    5f3a:	fc 93       	st	X, r31
    5f3c:	05 c0       	rjmp	.+10     	; 0x5f48 <_ZN3PTPC1EP3USBP16PTPStateHandlers+0x78>
    5f3e:	11 96       	adiw	r26, 0x01	; 1
    5f40:	02 96       	adiw	r24, 0x02	; 2
    5f42:	a0 31       	cpi	r26, 0x10	; 16
    5f44:	b1 05       	cpc	r27, r1
    5f46:	61 f7       	brne	.-40     	; 0x5f20 <_ZN3PTPC1EP3USBP16PTPStateHandlers+0x50>
    5f48:	df 91       	pop	r29
    5f4a:	cf 91       	pop	r28
    5f4c:	08 95       	ret

00005f4e <_ZN3PTP13FillEPRecordsEP23USB_ENDPOINT_DESCRIPTOR>:
    5f4e:	0f 93       	push	r16
    5f50:	1f 93       	push	r17
    5f52:	cf 93       	push	r28
    5f54:	df 93       	push	r29
    5f56:	20 e0       	ldi	r18, 0x00	; 0
    5f58:	30 e0       	ldi	r19, 0x00	; 0
    5f5a:	db 01       	movw	r26, r22
    5f5c:	a2 0f       	add	r26, r18
    5f5e:	b3 1f       	adc	r27, r19
    5f60:	13 96       	adiw	r26, 0x03	; 3
    5f62:	4c 91       	ld	r20, X
    5f64:	13 97       	sbiw	r26, 0x03	; 3
    5f66:	43 70       	andi	r20, 0x03	; 3
    5f68:	12 96       	adiw	r26, 0x02	; 2
    5f6a:	0c 91       	ld	r16, X
    5f6c:	12 97       	sbiw	r26, 0x02	; 2
    5f6e:	43 30       	cpi	r20, 0x03	; 3
    5f70:	49 f0       	breq	.+18     	; 0x5f84 <_ZN3PTP13FillEPRecordsEP23USB_ENDPOINT_DESCRIPTOR+0x36>
    5f72:	42 30       	cpi	r20, 0x02	; 2
    5f74:	49 f4       	brne	.+18     	; 0x5f88 <_ZN3PTP13FillEPRecordsEP23USB_ENDPOINT_DESCRIPTOR+0x3a>
    5f76:	10 2f       	mov	r17, r16
    5f78:	10 95       	com	r17
    5f7a:	11 1f       	adc	r17, r17
    5f7c:	11 27       	eor	r17, r17
    5f7e:	11 1f       	adc	r17, r17
    5f80:	1f 5f       	subi	r17, 0xFF	; 255
    5f82:	03 c0       	rjmp	.+6      	; 0x5f8a <_ZN3PTP13FillEPRecordsEP23USB_ENDPOINT_DESCRIPTOR+0x3c>
    5f84:	13 e0       	ldi	r17, 0x03	; 3
    5f86:	01 c0       	rjmp	.+2      	; 0x5f8a <_ZN3PTP13FillEPRecordsEP23USB_ENDPOINT_DESCRIPTOR+0x3c>
    5f88:	12 e0       	ldi	r17, 0x02	; 2
    5f8a:	41 2f       	mov	r20, r17
    5f8c:	50 e0       	ldi	r21, 0x00	; 0
    5f8e:	ea 01       	movw	r28, r20
    5f90:	cc 0f       	add	r28, r28
    5f92:	dd 1f       	adc	r29, r29
    5f94:	fe 01       	movw	r30, r28
    5f96:	e4 0f       	add	r30, r20
    5f98:	f5 1f       	adc	r31, r21
    5f9a:	e8 0f       	add	r30, r24
    5f9c:	f9 1f       	adc	r31, r25
    5f9e:	0f 70       	andi	r16, 0x0F	; 15
    5fa0:	06 87       	std	Z+14, r16	; 0x0e
    5fa2:	14 96       	adiw	r26, 0x04	; 4
    5fa4:	ac 91       	ld	r26, X
    5fa6:	a7 87       	std	Z+15, r26	; 0x0f
    5fa8:	10 8a       	std	Z+16, r1	; 0x10
    5faa:	13 30       	cpi	r17, 0x03	; 3
    5fac:	11 f4       	brne	.+4      	; 0x5fb2 <_ZN3PTP13FillEPRecordsEP23USB_ENDPOINT_DESCRIPTOR+0x64>
    5fae:	a0 e0       	ldi	r26, 0x00	; 0
    5fb0:	01 c0       	rjmp	.+2      	; 0x5fb4 <_ZN3PTP13FillEPRecordsEP23USB_ENDPOINT_DESCRIPTOR+0x66>
    5fb2:	af e0       	ldi	r26, 0x0F	; 15
    5fb4:	fe 01       	movw	r30, r28
    5fb6:	e4 0f       	add	r30, r20
    5fb8:	f5 1f       	adc	r31, r21
    5fba:	e8 0f       	add	r30, r24
    5fbc:	f9 1f       	adc	r31, r25
    5fbe:	aa 0f       	add	r26, r26
    5fc0:	aa 0f       	add	r26, r26
    5fc2:	40 89       	ldd	r20, Z+16	; 0x10
    5fc4:	43 70       	andi	r20, 0x03	; 3
    5fc6:	4a 2b       	or	r20, r26
    5fc8:	40 8b       	std	Z+16, r20	; 0x10
    5fca:	29 5f       	subi	r18, 0xF9	; 249
    5fcc:	3f 4f       	sbci	r19, 0xFF	; 255
    5fce:	25 31       	cpi	r18, 0x15	; 21
    5fd0:	31 05       	cpc	r19, r1
    5fd2:	19 f6       	brne	.-122    	; 0x5f5a <_ZN3PTP13FillEPRecordsEP23USB_ENDPOINT_DESCRIPTOR+0xc>
    5fd4:	df 91       	pop	r29
    5fd6:	cf 91       	pop	r28
    5fd8:	1f 91       	pop	r17
    5fda:	0f 91       	pop	r16
    5fdc:	08 95       	ret

00005fde <_ZN3PTP4InitEhhb>:
    5fde:	4f 92       	push	r4
    5fe0:	5f 92       	push	r5
    5fe2:	6f 92       	push	r6
    5fe4:	7f 92       	push	r7
    5fe6:	8f 92       	push	r8
    5fe8:	9f 92       	push	r9
    5fea:	af 92       	push	r10
    5fec:	bf 92       	push	r11
    5fee:	cf 92       	push	r12
    5ff0:	df 92       	push	r13
    5ff2:	ef 92       	push	r14
    5ff4:	ff 92       	push	r15
    5ff6:	0f 93       	push	r16
    5ff8:	1f 93       	push	r17
    5ffa:	cf 93       	push	r28
    5ffc:	df 93       	push	r29
    5ffe:	cd b7       	in	r28, 0x3d	; 61
    6000:	de b7       	in	r29, 0x3e	; 62
    6002:	a7 97       	sbiw	r28, 0x27	; 39
    6004:	0f b6       	in	r0, 0x3f	; 63
    6006:	f8 94       	cli
    6008:	de bf       	out	0x3e, r29	; 62
    600a:	0f be       	out	0x3f, r0	; 63
    600c:	cd bf       	out	0x3d, r28	; 61
    600e:	6c 01       	movw	r12, r24
    6010:	56 2e       	mov	r5, r22
    6012:	44 2e       	mov	r4, r20
    6014:	dc 01       	movw	r26, r24
    6016:	1c 96       	adiw	r26, 0x0c	; 12
    6018:	ad 90       	ld	r10, X+
    601a:	bc 90       	ld	r11, X
    601c:	1d 97       	sbiw	r26, 0x0d	; 13
    601e:	1a 96       	adiw	r26, 0x0a	; 10
    6020:	8c 91       	ld	r24, X
    6022:	81 11       	cpse	r24, r1
    6024:	0b c1       	rjmp	.+534    	; 0x623c <_ZN3PTP4InitEhhb+0x25e>
    6026:	d5 01       	movw	r26, r10
    6028:	ed 91       	ld	r30, X+
    602a:	fc 91       	ld	r31, X
    602c:	01 90       	ld	r0, Z+
    602e:	f0 81       	ld	r31, Z
    6030:	e0 2d       	mov	r30, r0
    6032:	60 e0       	ldi	r22, 0x00	; 0
    6034:	c5 01       	movw	r24, r10
    6036:	09 95       	icall
    6038:	7c 01       	movw	r14, r24
    603a:	00 97       	sbiw	r24, 0x00	; 0
    603c:	09 f4       	brne	.+2      	; 0x6040 <_ZN3PTP4InitEhhb+0x62>
    603e:	00 c1       	rjmp	.+512    	; 0x6240 <_ZN3PTP4InitEhhb+0x262>
    6040:	fc 01       	movw	r30, r24
    6042:	80 80       	ld	r8, Z
    6044:	91 80       	ldd	r9, Z+1	; 0x01
    6046:	81 14       	cp	r8, r1
    6048:	91 04       	cpc	r9, r1
    604a:	09 f4       	brne	.+2      	; 0x604e <_ZN3PTP4InitEhhb+0x70>
    604c:	fb c0       	rjmp	.+502    	; 0x6244 <_ZN3PTP4InitEhhb+0x266>
    604e:	36 01       	movw	r6, r12
    6050:	fe e0       	ldi	r31, 0x0E	; 14
    6052:	6f 0e       	add	r6, r31
    6054:	71 1c       	adc	r7, r1
    6056:	dc 01       	movw	r26, r24
    6058:	6d 92       	st	X+, r6
    605a:	7c 92       	st	X, r7
    605c:	8e 01       	movw	r16, r28
    605e:	0f 5f       	subi	r16, 0xFF	; 255
    6060:	1f 4f       	sbci	r17, 0xFF	; 255
    6062:	28 e0       	ldi	r18, 0x08	; 8
    6064:	30 e0       	ldi	r19, 0x00	; 0
    6066:	40 e0       	ldi	r20, 0x00	; 0
    6068:	60 e0       	ldi	r22, 0x00	; 0
    606a:	f6 01       	movw	r30, r12
    606c:	84 85       	ldd	r24, Z+12	; 0x0c
    606e:	95 85       	ldd	r25, Z+13	; 0x0d
    6070:	0e 94 a4 3a 	call	0x7548	; 0x7548 <_ZN3USB11getDevDescrEhhjPh>
    6074:	81 11       	cpse	r24, r1
    6076:	ea c0       	rjmp	.+468    	; 0x624c <_ZN3PTP4InitEhhb+0x26e>
    6078:	19 81       	ldd	r17, Y+1	; 0x01
    607a:	8d 81       	ldd	r24, Y+5	; 0x05
    607c:	88 23       	and	r24, r24
    607e:	51 f0       	breq	.+20     	; 0x6094 <_ZN3PTP4InitEhhb+0xb6>
    6080:	86 30       	cpi	r24, 0x06	; 6
    6082:	41 f0       	breq	.+16     	; 0x6094 <_ZN3PTP4InitEhhb+0xb6>
    6084:	8e 81       	ldd	r24, Y+6	; 0x06
    6086:	81 30       	cpi	r24, 0x01	; 1
    6088:	29 f0       	breq	.+10     	; 0x6094 <_ZN3PTP4InitEhhb+0xb6>
    608a:	8f 81       	ldd	r24, Y+7	; 0x07
    608c:	81 30       	cpi	r24, 0x01	; 1
    608e:	11 f0       	breq	.+4      	; 0x6094 <_ZN3PTP4InitEhhb+0xb6>
    6090:	81 ed       	ldi	r24, 0xD1	; 209
    6092:	df c0       	rjmp	.+446    	; 0x6252 <_ZN3PTP4InitEhhb+0x274>
    6094:	d5 01       	movw	r26, r10
    6096:	ed 91       	ld	r30, X+
    6098:	fc 91       	ld	r31, X
    609a:	02 80       	ldd	r0, Z+2	; 0x02
    609c:	f3 81       	ldd	r31, Z+3	; 0x03
    609e:	e0 2d       	mov	r30, r0
    60a0:	24 2d       	mov	r18, r4
    60a2:	40 e0       	ldi	r20, 0x00	; 0
    60a4:	65 2d       	mov	r22, r5
    60a6:	c5 01       	movw	r24, r10
    60a8:	09 95       	icall
    60aa:	f6 01       	movw	r30, r12
    60ac:	82 87       	std	Z+10, r24	; 0x0a
    60ae:	88 23       	and	r24, r24
    60b0:	09 f4       	brne	.+2      	; 0x60b4 <_ZN3PTP4InitEhhb+0xd6>
    60b2:	ca c0       	rjmp	.+404    	; 0x6248 <_ZN3PTP4InitEhhb+0x26a>
    60b4:	98 85       	ldd	r25, Y+8	; 0x08
    60b6:	97 87       	std	Z+15, r25	; 0x0f
    60b8:	28 2f       	mov	r18, r24
    60ba:	40 e0       	ldi	r20, 0x00	; 0
    60bc:	60 e0       	ldi	r22, 0x00	; 0
    60be:	84 85       	ldd	r24, Z+12	; 0x0c
    60c0:	95 85       	ldd	r25, Z+13	; 0x0d
    60c2:	0e 94 f0 3a 	call	0x75e0	; 0x75e0 <_ZN3USB7setAddrEhhh>
    60c6:	58 2e       	mov	r5, r24
    60c8:	88 23       	and	r24, r24
    60ca:	b9 f0       	breq	.+46     	; 0x60fa <_ZN3PTP4InitEhhb+0x11c>
    60cc:	d7 01       	movw	r26, r14
    60ce:	8d 92       	st	X+, r8
    60d0:	9c 92       	st	X, r9
    60d2:	d5 01       	movw	r26, r10
    60d4:	ed 91       	ld	r30, X+
    60d6:	fc 91       	ld	r31, X
    60d8:	04 80       	ldd	r0, Z+4	; 0x04
    60da:	f5 81       	ldd	r31, Z+5	; 0x05
    60dc:	e0 2d       	mov	r30, r0
    60de:	d6 01       	movw	r26, r12
    60e0:	1a 96       	adiw	r26, 0x0a	; 10
    60e2:	6c 91       	ld	r22, X
    60e4:	c5 01       	movw	r24, r10
    60e6:	09 95       	icall
    60e8:	f6 01       	movw	r30, r12
    60ea:	12 86       	std	Z+10, r1	; 0x0a
    60ec:	61 e0       	ldi	r22, 0x01	; 1
    60ee:	70 e0       	ldi	r23, 0x00	; 0
    60f0:	80 e0       	ldi	r24, 0x00	; 0
    60f2:	90 e0       	ldi	r25, 0x00	; 0
    60f4:	57 dc       	rcall	.-1874   	; 0x59a4 <delay>
    60f6:	85 2d       	mov	r24, r5
    60f8:	ac c0       	rjmp	.+344    	; 0x6252 <_ZN3PTP4InitEhhb+0x274>
    60fa:	11 32       	cpi	r17, 0x21	; 33
    60fc:	08 f0       	brcs	.+2      	; 0x6100 <_ZN3PTP4InitEhhb+0x122>
    60fe:	10 e2       	ldi	r17, 0x20	; 32
    6100:	61 e0       	ldi	r22, 0x01	; 1
    6102:	70 e0       	ldi	r23, 0x00	; 0
    6104:	80 e0       	ldi	r24, 0x00	; 0
    6106:	90 e0       	ldi	r25, 0x00	; 0
    6108:	4d dc       	rcall	.-1894   	; 0x59a4 <delay>
    610a:	d7 01       	movw	r26, r14
    610c:	8d 92       	st	X+, r8
    610e:	9c 92       	st	X, r9
    6110:	11 11       	cpse	r17, r1
    6112:	0d c0       	rjmp	.+26     	; 0x612e <_ZN3PTP4InitEhhb+0x150>
    6114:	aa 88       	ldd	r10, Y+18	; 0x12
    6116:	93 01       	movw	r18, r6
    6118:	44 e0       	ldi	r20, 0x04	; 4
    611a:	f6 01       	movw	r30, r12
    611c:	62 85       	ldd	r22, Z+10	; 0x0a
    611e:	84 85       	ldd	r24, Z+12	; 0x0c
    6120:	95 85       	ldd	r25, Z+13	; 0x0d
    6122:	83 d5       	rcall	.+2822   	; 0x6c2a <_ZN3USB14setEpInfoEntryEhhP6EpInfo>
    6124:	18 2f       	mov	r17, r24
    6126:	81 11       	cpse	r24, r1
    6128:	81 c0       	rjmp	.+258    	; 0x622c <_ZN3PTP4InitEhhb+0x24e>
    612a:	b1 2c       	mov	r11, r1
    612c:	4a c0       	rjmp	.+148    	; 0x61c2 <_ZN3PTP4InitEhhb+0x1e4>
    612e:	21 2f       	mov	r18, r17
    6130:	30 e0       	ldi	r19, 0x00	; 0
    6132:	8e 01       	movw	r16, r28
    6134:	0f 5f       	subi	r16, 0xFF	; 255
    6136:	1f 4f       	sbci	r17, 0xFF	; 255
    6138:	40 e0       	ldi	r20, 0x00	; 0
    613a:	d6 01       	movw	r26, r12
    613c:	1a 96       	adiw	r26, 0x0a	; 10
    613e:	6c 91       	ld	r22, X
    6140:	1a 97       	sbiw	r26, 0x0a	; 10
    6142:	1c 96       	adiw	r26, 0x0c	; 12
    6144:	8d 91       	ld	r24, X+
    6146:	9c 91       	ld	r25, X
    6148:	1d 97       	sbiw	r26, 0x0d	; 13
    614a:	0e 94 a4 3a 	call	0x7548	; 0x7548 <_ZN3USB11getDevDescrEhhjPh>
    614e:	18 2f       	mov	r17, r24
    6150:	81 11       	cpse	r24, r1
    6152:	6c c0       	rjmp	.+216    	; 0x622c <_ZN3PTP4InitEhhb+0x24e>
    6154:	df cf       	rjmp	.-66     	; 0x6114 <_ZN3PTP4InitEhhb+0x136>
    6156:	fe 01       	movw	r30, r28
    6158:	31 96       	adiw	r30, 0x01	; 1
    615a:	7f 01       	movw	r14, r30
    615c:	0b 2d       	mov	r16, r11
    615e:	28 e0       	ldi	r18, 0x08	; 8
    6160:	30 e0       	ldi	r19, 0x00	; 0
    6162:	40 e0       	ldi	r20, 0x00	; 0
    6164:	d6 01       	movw	r26, r12
    6166:	1a 96       	adiw	r26, 0x0a	; 10
    6168:	6c 91       	ld	r22, X
    616a:	1a 97       	sbiw	r26, 0x0a	; 10
    616c:	1c 96       	adiw	r26, 0x0c	; 12
    616e:	8d 91       	ld	r24, X+
    6170:	9c 91       	ld	r25, X
    6172:	1d 97       	sbiw	r26, 0x0d	; 13
    6174:	0e 94 ca 3a 	call	0x7594	; 0x7594 <_ZN3USB12getConfDescrEhhjhPh>
    6178:	18 2f       	mov	r17, r24
    617a:	81 11       	cpse	r24, r1
    617c:	57 c0       	rjmp	.+174    	; 0x622c <_ZN3PTP4InitEhhb+0x24e>
    617e:	2b 81       	ldd	r18, Y+3	; 0x03
    6180:	3c 81       	ldd	r19, Y+4	; 0x04
    6182:	28 32       	cpi	r18, 0x28	; 40
    6184:	31 05       	cpc	r19, r1
    6186:	10 f0       	brcs	.+4      	; 0x618c <_ZN3PTP4InitEhhb+0x1ae>
    6188:	27 e2       	ldi	r18, 0x27	; 39
    618a:	30 e0       	ldi	r19, 0x00	; 0
    618c:	fe 01       	movw	r30, r28
    618e:	31 96       	adiw	r30, 0x01	; 1
    6190:	7f 01       	movw	r14, r30
    6192:	0b 2d       	mov	r16, r11
    6194:	40 e0       	ldi	r20, 0x00	; 0
    6196:	d6 01       	movw	r26, r12
    6198:	1a 96       	adiw	r26, 0x0a	; 10
    619a:	6c 91       	ld	r22, X
    619c:	1a 97       	sbiw	r26, 0x0a	; 10
    619e:	1c 96       	adiw	r26, 0x0c	; 12
    61a0:	8d 91       	ld	r24, X+
    61a2:	9c 91       	ld	r25, X
    61a4:	1d 97       	sbiw	r26, 0x0d	; 13
    61a6:	0e 94 ca 3a 	call	0x7594	; 0x7594 <_ZN3USB12getConfDescrEhhjhPh>
    61aa:	18 2f       	mov	r17, r24
    61ac:	81 11       	cpse	r24, r1
    61ae:	3e c0       	rjmp	.+124    	; 0x622c <_ZN3PTP4InitEhhb+0x24e>
    61b0:	61 e0       	ldi	r22, 0x01	; 1
    61b2:	70 e0       	ldi	r23, 0x00	; 0
    61b4:	80 e0       	ldi	r24, 0x00	; 0
    61b6:	90 e0       	ldi	r25, 0x00	; 0
    61b8:	f5 db       	rcall	.-2070   	; 0x59a4 <delay>
    61ba:	8d 81       	ldd	r24, Y+5	; 0x05
    61bc:	81 11       	cpse	r24, r1
    61be:	04 c0       	rjmp	.+8      	; 0x61c8 <_ZN3PTP4InitEhhb+0x1ea>
    61c0:	b3 94       	inc	r11
    61c2:	ba 10       	cpse	r11, r10
    61c4:	c8 cf       	rjmp	.-112    	; 0x6156 <_ZN3PTP4InitEhhb+0x178>
    61c6:	11 c0       	rjmp	.+34     	; 0x61ea <_ZN3PTP4InitEhhb+0x20c>
    61c8:	8f 85       	ldd	r24, Y+15	; 0x0f
    61ca:	86 30       	cpi	r24, 0x06	; 6
    61cc:	c9 f7       	brne	.-14     	; 0x61c0 <_ZN3PTP4InitEhhb+0x1e2>
    61ce:	88 89       	ldd	r24, Y+16	; 0x10
    61d0:	81 30       	cpi	r24, 0x01	; 1
    61d2:	b1 f7       	brne	.-20     	; 0x61c0 <_ZN3PTP4InitEhhb+0x1e2>
    61d4:	89 89       	ldd	r24, Y+17	; 0x11
    61d6:	81 30       	cpi	r24, 0x01	; 1
    61d8:	99 f7       	brne	.-26     	; 0x61c0 <_ZN3PTP4InitEhhb+0x1e2>
    61da:	be 01       	movw	r22, r28
    61dc:	6d 5e       	subi	r22, 0xED	; 237
    61de:	7f 4f       	sbci	r23, 0xFF	; 255
    61e0:	c6 01       	movw	r24, r12
    61e2:	b5 de       	rcall	.-662    	; 0x5f4e <_ZN3PTP13FillEPRecordsEP23USB_ENDPOINT_DESCRIPTOR>
    61e4:	8e 81       	ldd	r24, Y+6	; 0x06
    61e6:	f6 01       	movw	r30, r12
    61e8:	83 87       	std	Z+11, r24	; 0x0b
    61ea:	d6 01       	movw	r26, r12
    61ec:	1b 96       	adiw	r26, 0x0b	; 11
    61ee:	2c 91       	ld	r18, X
    61f0:	1b 97       	sbiw	r26, 0x0b	; 11
    61f2:	22 23       	and	r18, r18
    61f4:	09 f4       	brne	.+2      	; 0x61f8 <_ZN3PTP4InitEhhb+0x21a>
    61f6:	4c cf       	rjmp	.-360    	; 0x6090 <_ZN3PTP4InitEhhb+0xb2>
    61f8:	40 e0       	ldi	r20, 0x00	; 0
    61fa:	1a 96       	adiw	r26, 0x0a	; 10
    61fc:	6c 91       	ld	r22, X
    61fe:	1a 97       	sbiw	r26, 0x0a	; 10
    6200:	1c 96       	adiw	r26, 0x0c	; 12
    6202:	8d 91       	ld	r24, X+
    6204:	9c 91       	ld	r25, X
    6206:	1d 97       	sbiw	r26, 0x0d	; 13
    6208:	0e 94 1e 3b 	call	0x763c	; 0x763c <_ZN3USB7setConfEhhh>
    620c:	18 2f       	mov	r17, r24
    620e:	81 11       	cpse	r24, r1
    6210:	0d c0       	rjmp	.+26     	; 0x622c <_ZN3PTP4InitEhhb+0x24e>
    6212:	f6 01       	movw	r30, r12
    6214:	16 82       	std	Z+6, r1	; 0x06
    6216:	15 82       	std	Z+5, r1	; 0x05
    6218:	8f ef       	ldi	r24, 0xFF	; 255
    621a:	9f ef       	ldi	r25, 0xFF	; 255
    621c:	94 83       	std	Z+4, r25	; 0x04
    621e:	83 83       	std	Z+3, r24	; 0x03
    6220:	82 e0       	ldi	r24, 0x02	; 2
    6222:	82 83       	std	Z+2, r24	; 0x02
    6224:	81 e0       	ldi	r24, 0x01	; 1
    6226:	81 87       	std	Z+9, r24	; 0x09
    6228:	80 e0       	ldi	r24, 0x00	; 0
    622a:	13 c0       	rjmp	.+38     	; 0x6252 <_ZN3PTP4InitEhhb+0x274>
    622c:	40 e1       	ldi	r20, 0x10	; 16
    622e:	50 e0       	ldi	r21, 0x00	; 0
    6230:	61 2f       	mov	r22, r17
    6232:	84 e7       	ldi	r24, 0x74	; 116
    6234:	94 e0       	ldi	r25, 0x04	; 4
    6236:	d1 da       	rcall	.-2654   	; 0x57da <_ZN5Print7printlnEhi>
    6238:	81 2f       	mov	r24, r17
    623a:	0b c0       	rjmp	.+22     	; 0x6252 <_ZN3PTP4InitEhhb+0x274>
    623c:	89 ed       	ldi	r24, 0xD9	; 217
    623e:	09 c0       	rjmp	.+18     	; 0x6252 <_ZN3PTP4InitEhhb+0x274>
    6240:	86 ed       	ldi	r24, 0xD6	; 214
    6242:	07 c0       	rjmp	.+14     	; 0x6252 <_ZN3PTP4InitEhhb+0x274>
    6244:	87 ed       	ldi	r24, 0xD7	; 215
    6246:	05 c0       	rjmp	.+10     	; 0x6252 <_ZN3PTP4InitEhhb+0x274>
    6248:	84 ed       	ldi	r24, 0xD4	; 212
    624a:	03 c0       	rjmp	.+6      	; 0x6252 <_ZN3PTP4InitEhhb+0x274>
    624c:	d7 01       	movw	r26, r14
    624e:	8d 92       	st	X+, r8
    6250:	9c 92       	st	X, r9
    6252:	a7 96       	adiw	r28, 0x27	; 39
    6254:	0f b6       	in	r0, 0x3f	; 63
    6256:	f8 94       	cli
    6258:	de bf       	out	0x3e, r29	; 62
    625a:	0f be       	out	0x3f, r0	; 63
    625c:	cd bf       	out	0x3d, r28	; 61
    625e:	df 91       	pop	r29
    6260:	cf 91       	pop	r28
    6262:	1f 91       	pop	r17
    6264:	0f 91       	pop	r16
    6266:	ff 90       	pop	r15
    6268:	ef 90       	pop	r14
    626a:	df 90       	pop	r13
    626c:	cf 90       	pop	r12
    626e:	bf 90       	pop	r11
    6270:	af 90       	pop	r10
    6272:	9f 90       	pop	r9
    6274:	8f 90       	pop	r8
    6276:	7f 90       	pop	r7
    6278:	6f 90       	pop	r6
    627a:	5f 90       	pop	r5
    627c:	4f 90       	pop	r4
    627e:	08 95       	ret

00006280 <_ZN3PTP4TaskEv>:
    6280:	bc 01       	movw	r22, r24
    6282:	dc 01       	movw	r26, r24
    6284:	12 96       	adiw	r26, 0x02	; 2
    6286:	8c 91       	ld	r24, X
    6288:	84 30       	cpi	r24, 0x04	; 4
    628a:	19 f1       	breq	.+70     	; 0x62d2 <_ZN3PTP4TaskEv+0x52>
    628c:	28 f4       	brcc	.+10     	; 0x6298 <_ZN3PTP4TaskEv+0x18>
    628e:	82 30       	cpi	r24, 0x02	; 2
    6290:	41 f0       	breq	.+16     	; 0x62a2 <_ZN3PTP4TaskEv+0x22>
    6292:	83 30       	cpi	r24, 0x03	; 3
    6294:	91 f0       	breq	.+36     	; 0x62ba <_ZN3PTP4TaskEv+0x3a>
    6296:	08 95       	ret
    6298:	85 30       	cpi	r24, 0x05	; 5
    629a:	39 f1       	breq	.+78     	; 0x62ea <_ZN3PTP4TaskEv+0x6a>
    629c:	86 30       	cpi	r24, 0x06	; 6
    629e:	89 f1       	breq	.+98     	; 0x6302 <_ZN3PTP4TaskEv+0x82>
    62a0:	08 95       	ret
    62a2:	fb 01       	movw	r30, r22
    62a4:	87 81       	ldd	r24, Z+7	; 0x07
    62a6:	90 85       	ldd	r25, Z+8	; 0x08
    62a8:	00 97       	sbiw	r24, 0x00	; 0
    62aa:	b9 f1       	breq	.+110    	; 0x631a <_ZN3PTP4TaskEv+0x9a>
    62ac:	dc 01       	movw	r26, r24
    62ae:	ed 91       	ld	r30, X+
    62b0:	fc 91       	ld	r31, X
    62b2:	02 80       	ldd	r0, Z+2	; 0x02
    62b4:	f3 81       	ldd	r31, Z+3	; 0x03
    62b6:	e0 2d       	mov	r30, r0
    62b8:	2f c0       	rjmp	.+94     	; 0x6318 <_ZN3PTP4TaskEv+0x98>
    62ba:	fb 01       	movw	r30, r22
    62bc:	87 81       	ldd	r24, Z+7	; 0x07
    62be:	90 85       	ldd	r25, Z+8	; 0x08
    62c0:	00 97       	sbiw	r24, 0x00	; 0
    62c2:	59 f1       	breq	.+86     	; 0x631a <_ZN3PTP4TaskEv+0x9a>
    62c4:	dc 01       	movw	r26, r24
    62c6:	ed 91       	ld	r30, X+
    62c8:	fc 91       	ld	r31, X
    62ca:	04 80       	ldd	r0, Z+4	; 0x04
    62cc:	f5 81       	ldd	r31, Z+5	; 0x05
    62ce:	e0 2d       	mov	r30, r0
    62d0:	23 c0       	rjmp	.+70     	; 0x6318 <_ZN3PTP4TaskEv+0x98>
    62d2:	fb 01       	movw	r30, r22
    62d4:	87 81       	ldd	r24, Z+7	; 0x07
    62d6:	90 85       	ldd	r25, Z+8	; 0x08
    62d8:	00 97       	sbiw	r24, 0x00	; 0
    62da:	f9 f0       	breq	.+62     	; 0x631a <_ZN3PTP4TaskEv+0x9a>
    62dc:	dc 01       	movw	r26, r24
    62de:	ed 91       	ld	r30, X+
    62e0:	fc 91       	ld	r31, X
    62e2:	06 80       	ldd	r0, Z+6	; 0x06
    62e4:	f7 81       	ldd	r31, Z+7	; 0x07
    62e6:	e0 2d       	mov	r30, r0
    62e8:	17 c0       	rjmp	.+46     	; 0x6318 <_ZN3PTP4TaskEv+0x98>
    62ea:	fb 01       	movw	r30, r22
    62ec:	87 81       	ldd	r24, Z+7	; 0x07
    62ee:	90 85       	ldd	r25, Z+8	; 0x08
    62f0:	00 97       	sbiw	r24, 0x00	; 0
    62f2:	99 f0       	breq	.+38     	; 0x631a <_ZN3PTP4TaskEv+0x9a>
    62f4:	dc 01       	movw	r26, r24
    62f6:	ed 91       	ld	r30, X+
    62f8:	fc 91       	ld	r31, X
    62fa:	00 84       	ldd	r0, Z+8	; 0x08
    62fc:	f1 85       	ldd	r31, Z+9	; 0x09
    62fe:	e0 2d       	mov	r30, r0
    6300:	0b c0       	rjmp	.+22     	; 0x6318 <_ZN3PTP4TaskEv+0x98>
    6302:	fb 01       	movw	r30, r22
    6304:	87 81       	ldd	r24, Z+7	; 0x07
    6306:	90 85       	ldd	r25, Z+8	; 0x08
    6308:	00 97       	sbiw	r24, 0x00	; 0
    630a:	39 f0       	breq	.+14     	; 0x631a <_ZN3PTP4TaskEv+0x9a>
    630c:	dc 01       	movw	r26, r24
    630e:	ed 91       	ld	r30, X+
    6310:	fc 91       	ld	r31, X
    6312:	02 84       	ldd	r0, Z+10	; 0x0a
    6314:	f3 85       	ldd	r31, Z+11	; 0x0b
    6316:	e0 2d       	mov	r30, r0
    6318:	09 94       	ijmp
    631a:	08 95       	ret

0000631c <_ZN3PTP4PollEv>:
    631c:	fc 01       	movw	r30, r24
    631e:	21 85       	ldd	r18, Z+9	; 0x09
    6320:	21 11       	cpse	r18, r1
    6322:	ae df       	rcall	.-164    	; 0x6280 <_ZN3PTP4TaskEv>
    6324:	80 e0       	ldi	r24, 0x00	; 0
    6326:	08 95       	ret

00006328 <_ZN3PTP11TransactionEjPNS_9OperFlagsEPmPv>:
    6328:	2f 92       	push	r2
    632a:	3f 92       	push	r3
    632c:	4f 92       	push	r4
    632e:	5f 92       	push	r5
    6330:	6f 92       	push	r6
    6332:	7f 92       	push	r7
    6334:	8f 92       	push	r8
    6336:	9f 92       	push	r9
    6338:	af 92       	push	r10
    633a:	bf 92       	push	r11
    633c:	cf 92       	push	r12
    633e:	df 92       	push	r13
    6340:	ef 92       	push	r14
    6342:	ff 92       	push	r15
    6344:	0f 93       	push	r16
    6346:	1f 93       	push	r17
    6348:	cf 93       	push	r28
    634a:	df 93       	push	r29
    634c:	cd b7       	in	r28, 0x3d	; 61
    634e:	de b7       	in	r29, 0x3e	; 62
    6350:	c0 56       	subi	r28, 0x60	; 96
    6352:	d1 09       	sbc	r29, r1
    6354:	0f b6       	in	r0, 0x3f	; 63
    6356:	f8 94       	cli
    6358:	de bf       	out	0x3e, r29	; 62
    635a:	0f be       	out	0x3f, r0	; 63
    635c:	cd bf       	out	0x3d, r28	; 61
    635e:	6c 01       	movw	r12, r24
    6360:	4b 01       	movw	r8, r22
    6362:	2d 96       	adiw	r28, 0x0d	; 13
    6364:	5f af       	std	Y+63, r21	; 0x3f
    6366:	4e af       	std	Y+62, r20	; 0x3e
    6368:	2d 97       	sbiw	r28, 0x0d	; 13
    636a:	2f 96       	adiw	r28, 0x0f	; 15
    636c:	3f af       	std	Y+63, r19	; 0x3f
    636e:	2e af       	std	Y+62, r18	; 0x3e
    6370:	2f 97       	sbiw	r28, 0x0f	; 15
    6372:	78 01       	movw	r14, r16
    6374:	dc 01       	movw	r26, r24
    6376:	13 96       	adiw	r26, 0x03	; 3
    6378:	8d 91       	ld	r24, X+
    637a:	9c 91       	ld	r25, X
    637c:	14 97       	sbiw	r26, 0x04	; 4
    637e:	01 96       	adiw	r24, 0x01	; 1
    6380:	14 96       	adiw	r26, 0x04	; 4
    6382:	9c 93       	st	X, r25
    6384:	8e 93       	st	-X, r24
    6386:	13 97       	sbiw	r26, 0x03	; 3
    6388:	21 e0       	ldi	r18, 0x01	; 1
    638a:	30 e0       	ldi	r19, 0x00	; 0
    638c:	3e 83       	std	Y+6, r19	; 0x06
    638e:	2d 83       	std	Y+5, r18	; 0x05
    6390:	78 87       	std	Y+8, r23	; 0x08
    6392:	6f 83       	std	Y+7, r22	; 0x07
    6394:	a0 e0       	ldi	r26, 0x00	; 0
    6396:	b0 e0       	ldi	r27, 0x00	; 0
    6398:	89 87       	std	Y+9, r24	; 0x09
    639a:	9a 87       	std	Y+10, r25	; 0x0a
    639c:	ab 87       	std	Y+11, r26	; 0x0b
    639e:	bc 87       	std	Y+12, r27	; 0x0c
    63a0:	1d 86       	std	Y+13, r1	; 0x0d
    63a2:	1e 86       	std	Y+14, r1	; 0x0e
    63a4:	1f 86       	std	Y+15, r1	; 0x0f
    63a6:	18 8a       	std	Y+16, r1	; 0x10
    63a8:	19 8a       	std	Y+17, r1	; 0x11
    63aa:	1a 8a       	std	Y+18, r1	; 0x12
    63ac:	1b 8a       	std	Y+19, r1	; 0x13
    63ae:	1c 8a       	std	Y+20, r1	; 0x14
    63b0:	1d 8a       	std	Y+21, r1	; 0x15
    63b2:	1e 8a       	std	Y+22, r1	; 0x16
    63b4:	1f 8a       	std	Y+23, r1	; 0x17
    63b6:	18 8e       	std	Y+24, r1	; 0x18
    63b8:	fa 01       	movw	r30, r20
    63ba:	20 81       	ld	r18, Z
    63bc:	27 70       	andi	r18, 0x07	; 7
    63be:	30 e0       	ldi	r19, 0x00	; 0
    63c0:	22 30       	cpi	r18, 0x02	; 2
    63c2:	31 05       	cpc	r19, r1
    63c4:	99 f0       	breq	.+38     	; 0x63ec <_ZN3PTP11TransactionEjPNS_9OperFlagsEPmPv+0xc4>
    63c6:	23 30       	cpi	r18, 0x03	; 3
    63c8:	31 05       	cpc	r19, r1
    63ca:	21 f0       	breq	.+8      	; 0x63d4 <_ZN3PTP11TransactionEjPNS_9OperFlagsEPmPv+0xac>
    63cc:	21 30       	cpi	r18, 0x01	; 1
    63ce:	31 05       	cpc	r19, r1
    63d0:	29 f5       	brne	.+74     	; 0x641c <_ZN3PTP11TransactionEjPNS_9OperFlagsEPmPv+0xf4>
    63d2:	18 c0       	rjmp	.+48     	; 0x6404 <_ZN3PTP11TransactionEjPNS_9OperFlagsEPmPv+0xdc>
    63d4:	2f 96       	adiw	r28, 0x0f	; 15
    63d6:	ee ad       	ldd	r30, Y+62	; 0x3e
    63d8:	ff ad       	ldd	r31, Y+63	; 0x3f
    63da:	2f 97       	sbiw	r28, 0x0f	; 15
    63dc:	80 85       	ldd	r24, Z+8	; 0x08
    63de:	91 85       	ldd	r25, Z+9	; 0x09
    63e0:	a2 85       	ldd	r26, Z+10	; 0x0a
    63e2:	b3 85       	ldd	r27, Z+11	; 0x0b
    63e4:	8d 8b       	std	Y+21, r24	; 0x15
    63e6:	9e 8b       	std	Y+22, r25	; 0x16
    63e8:	af 8b       	std	Y+23, r26	; 0x17
    63ea:	b8 8f       	std	Y+24, r27	; 0x18
    63ec:	2f 96       	adiw	r28, 0x0f	; 15
    63ee:	ee ad       	ldd	r30, Y+62	; 0x3e
    63f0:	ff ad       	ldd	r31, Y+63	; 0x3f
    63f2:	2f 97       	sbiw	r28, 0x0f	; 15
    63f4:	84 81       	ldd	r24, Z+4	; 0x04
    63f6:	95 81       	ldd	r25, Z+5	; 0x05
    63f8:	a6 81       	ldd	r26, Z+6	; 0x06
    63fa:	b7 81       	ldd	r27, Z+7	; 0x07
    63fc:	89 8b       	std	Y+17, r24	; 0x11
    63fe:	9a 8b       	std	Y+18, r25	; 0x12
    6400:	ab 8b       	std	Y+19, r26	; 0x13
    6402:	bc 8b       	std	Y+20, r27	; 0x14
    6404:	2f 96       	adiw	r28, 0x0f	; 15
    6406:	ee ad       	ldd	r30, Y+62	; 0x3e
    6408:	ff ad       	ldd	r31, Y+63	; 0x3f
    640a:	2f 97       	sbiw	r28, 0x0f	; 15
    640c:	80 81       	ld	r24, Z
    640e:	91 81       	ldd	r25, Z+1	; 0x01
    6410:	a2 81       	ldd	r26, Z+2	; 0x02
    6412:	b3 81       	ldd	r27, Z+3	; 0x03
    6414:	8d 87       	std	Y+13, r24	; 0x0d
    6416:	9e 87       	std	Y+14, r25	; 0x0e
    6418:	af 87       	std	Y+15, r26	; 0x0f
    641a:	b8 8b       	std	Y+16, r27	; 0x10
    641c:	22 0f       	add	r18, r18
    641e:	33 1f       	adc	r19, r19
    6420:	22 0f       	add	r18, r18
    6422:	33 1f       	adc	r19, r19
    6424:	24 5f       	subi	r18, 0xF4	; 244
    6426:	3f 4f       	sbci	r19, 0xFF	; 255
    6428:	c9 01       	movw	r24, r18
    642a:	a0 e0       	ldi	r26, 0x00	; 0
    642c:	b0 e0       	ldi	r27, 0x00	; 0
    642e:	89 83       	std	Y+1, r24	; 0x01
    6430:	9a 83       	std	Y+2, r25	; 0x02
    6432:	ab 83       	std	Y+3, r26	; 0x03
    6434:	bc 83       	std	Y+4, r27	; 0x04
    6436:	8e 01       	movw	r16, r28
    6438:	0f 5f       	subi	r16, 0xFF	; 255
    643a:	1f 4f       	sbci	r17, 0xFF	; 255
    643c:	58 01       	movw	r10, r16
    643e:	d6 01       	movw	r26, r12
    6440:	54 96       	adiw	r26, 0x14	; 20
    6442:	4c 91       	ld	r20, X
    6444:	54 97       	sbiw	r26, 0x14	; 20
    6446:	1a 96       	adiw	r26, 0x0a	; 10
    6448:	6c 91       	ld	r22, X
    644a:	1a 97       	sbiw	r26, 0x0a	; 10
    644c:	1c 96       	adiw	r26, 0x0c	; 12
    644e:	8d 91       	ld	r24, X+
    6450:	9c 91       	ld	r25, X
    6452:	1d 97       	sbiw	r26, 0x0d	; 13
    6454:	af d6       	rcall	.+3422   	; 0x71b4 <_ZN3USB11outTransferEhhjPh>
    6456:	81 11       	cpse	r24, r1
    6458:	dc c0       	rjmp	.+440    	; 0x6612 <_ZN3PTP11TransactionEjPNS_9OperFlagsEPmPv+0x2ea>
    645a:	2d 96       	adiw	r28, 0x0d	; 13
    645c:	ee ad       	ldd	r30, Y+62	; 0x3e
    645e:	ff ad       	ldd	r31, Y+63	; 0x3f
    6460:	2d 97       	sbiw	r28, 0x0d	; 13
    6462:	80 81       	ld	r24, Z
    6464:	86 ff       	sbrs	r24, 6
    6466:	9c c0       	rjmp	.+312    	; 0x65a0 <_ZN3PTP11TransactionEjPNS_9OperFlagsEPmPv+0x278>
    6468:	41 81       	ldd	r20, Z+1	; 0x01
    646a:	84 2f       	mov	r24, r20
    646c:	83 70       	andi	r24, 0x03	; 3
    646e:	21 f0       	breq	.+8      	; 0x6478 <_ZN3PTP11TransactionEjPNS_9OperFlagsEPmPv+0x150>
    6470:	e1 14       	cp	r14, r1
    6472:	f1 04       	cpc	r15, r1
    6474:	09 f4       	brne	.+2      	; 0x6478 <_ZN3PTP11TransactionEjPNS_9OperFlagsEPmPv+0x150>
    6476:	d2 c0       	rjmp	.+420    	; 0x661c <_ZN3PTP11TransactionEjPNS_9OperFlagsEPmPv+0x2f4>
    6478:	d6 01       	movw	r26, r12
    647a:	13 96       	adiw	r26, 0x03	; 3
    647c:	8d 91       	ld	r24, X+
    647e:	9c 91       	ld	r25, X
    6480:	14 97       	sbiw	r26, 0x04	; 4
    6482:	a0 e0       	ldi	r26, 0x00	; 0
    6484:	b0 e0       	ldi	r27, 0x00	; 0
    6486:	19 82       	std	Y+1, r1	; 0x01
    6488:	1a 82       	std	Y+2, r1	; 0x02
    648a:	1b 82       	std	Y+3, r1	; 0x03
    648c:	1c 82       	std	Y+4, r1	; 0x04
    648e:	22 e0       	ldi	r18, 0x02	; 2
    6490:	30 e0       	ldi	r19, 0x00	; 0
    6492:	3e 83       	std	Y+6, r19	; 0x06
    6494:	2d 83       	std	Y+5, r18	; 0x05
    6496:	98 86       	std	Y+8, r9	; 0x08
    6498:	8f 82       	std	Y+7, r8	; 0x07
    649a:	89 87       	std	Y+9, r24	; 0x09
    649c:	9a 87       	std	Y+10, r25	; 0x0a
    649e:	ab 87       	std	Y+11, r26	; 0x0b
    64a0:	bc 87       	std	Y+12, r27	; 0x0c
    64a2:	84 2f       	mov	r24, r20
    64a4:	83 70       	andi	r24, 0x03	; 3
    64a6:	90 e0       	ldi	r25, 0x00	; 0
    64a8:	81 30       	cpi	r24, 0x01	; 1
    64aa:	91 05       	cpc	r25, r1
    64ac:	91 f0       	breq	.+36     	; 0x64d2 <_ZN3PTP11TransactionEjPNS_9OperFlagsEPmPv+0x1aa>
    64ae:	03 97       	sbiw	r24, 0x03	; 3
    64b0:	61 f5       	brne	.+88     	; 0x650a <_ZN3PTP11TransactionEjPNS_9OperFlagsEPmPv+0x1e2>
    64b2:	46 95       	lsr	r20
    64b4:	46 95       	lsr	r20
    64b6:	50 e0       	ldi	r21, 0x00	; 0
    64b8:	4a 01       	movw	r8, r20
    64ba:	fc e0       	ldi	r31, 0x0C	; 12
    64bc:	8f 0e       	add	r8, r31
    64be:	91 1c       	adc	r9, r1
    64c0:	24 01       	movw	r4, r8
    64c2:	61 2c       	mov	r6, r1
    64c4:	71 2c       	mov	r7, r1
    64c6:	b7 01       	movw	r22, r14
    64c8:	ce 01       	movw	r24, r28
    64ca:	0d 96       	adiw	r24, 0x0d	; 13
    64cc:	0e 94 ec 3e 	call	0x7dd8	; 0x7dd8 <memcpy>
    64d0:	24 c0       	rjmp	.+72     	; 0x651a <_ZN3PTP11TransactionEjPNS_9OperFlagsEPmPv+0x1f2>
    64d2:	d7 01       	movw	r26, r14
    64d4:	ed 91       	ld	r30, X+
    64d6:	fc 91       	ld	r31, X
    64d8:	01 90       	ld	r0, Z+
    64da:	f0 81       	ld	r31, Z
    64dc:	e0 2d       	mov	r30, r0
    64de:	c7 01       	movw	r24, r14
    64e0:	09 95       	icall
    64e2:	2b 01       	movw	r4, r22
    64e4:	3c 01       	movw	r6, r24
    64e6:	bc e0       	ldi	r27, 0x0C	; 12
    64e8:	4b 0e       	add	r4, r27
    64ea:	51 1c       	adc	r5, r1
    64ec:	61 1c       	adc	r6, r1
    64ee:	71 1c       	adc	r7, r1
    64f0:	94 2d       	mov	r25, r4
    64f2:	85 2d       	mov	r24, r5
    64f4:	e1 e4       	ldi	r30, 0x41	; 65
    64f6:	4e 16       	cp	r4, r30
    64f8:	51 04       	cpc	r5, r1
    64fa:	61 04       	cpc	r6, r1
    64fc:	71 04       	cpc	r7, r1
    64fe:	10 f0       	brcs	.+4      	; 0x6504 <_ZN3PTP11TransactionEjPNS_9OperFlagsEPmPv+0x1dc>
    6500:	90 e4       	ldi	r25, 0x40	; 64
    6502:	80 e0       	ldi	r24, 0x00	; 0
    6504:	89 2e       	mov	r8, r25
    6506:	98 2e       	mov	r9, r24
    6508:	08 c0       	rjmp	.+16     	; 0x651a <_ZN3PTP11TransactionEjPNS_9OperFlagsEPmPv+0x1f2>
    650a:	ac e0       	ldi	r26, 0x0C	; 12
    650c:	8a 2e       	mov	r8, r26
    650e:	91 2c       	mov	r9, r1
    6510:	bc e0       	ldi	r27, 0x0C	; 12
    6512:	4b 2e       	mov	r4, r27
    6514:	51 2c       	mov	r5, r1
    6516:	61 2c       	mov	r6, r1
    6518:	71 2c       	mov	r7, r1
    651a:	49 82       	std	Y+1, r4	; 0x01
    651c:	5a 82       	std	Y+2, r5	; 0x02
    651e:	6b 82       	std	Y+3, r6	; 0x03
    6520:	7c 82       	std	Y+4, r7	; 0x04
    6522:	91 e0       	ldi	r25, 0x01	; 1
    6524:	1e 01       	movw	r2, r28
    6526:	0d e0       	ldi	r16, 0x0D	; 13
    6528:	20 0e       	add	r2, r16
    652a:	31 1c       	adc	r3, r1
    652c:	41 14       	cp	r4, r1
    652e:	51 04       	cpc	r5, r1
    6530:	61 04       	cpc	r6, r1
    6532:	71 04       	cpc	r7, r1
    6534:	a9 f1       	breq	.+106    	; 0x65a0 <_ZN3PTP11TransactionEjPNS_9OperFlagsEPmPv+0x278>
    6536:	2d 96       	adiw	r28, 0x0d	; 13
    6538:	ae ad       	ldd	r26, Y+62	; 0x3e
    653a:	bf ad       	ldd	r27, Y+63	; 0x3f
    653c:	2d 97       	sbiw	r28, 0x0d	; 13
    653e:	11 96       	adiw	r26, 0x01	; 1
    6540:	8c 91       	ld	r24, X
    6542:	83 70       	andi	r24, 0x03	; 3
    6544:	81 30       	cpi	r24, 0x01	; 1
    6546:	81 f4       	brne	.+32     	; 0x6568 <_ZN3PTP11TransactionEjPNS_9OperFlagsEPmPv+0x240>
    6548:	b4 01       	movw	r22, r8
    654a:	99 23       	and	r25, r25
    654c:	21 f0       	breq	.+8      	; 0x6556 <_ZN3PTP11TransactionEjPNS_9OperFlagsEPmPv+0x22e>
    654e:	6c 50       	subi	r22, 0x0C	; 12
    6550:	71 09       	sbc	r23, r1
    6552:	a1 01       	movw	r20, r2
    6554:	01 c0       	rjmp	.+2      	; 0x6558 <_ZN3PTP11TransactionEjPNS_9OperFlagsEPmPv+0x230>
    6556:	a5 01       	movw	r20, r10
    6558:	d7 01       	movw	r26, r14
    655a:	ed 91       	ld	r30, X+
    655c:	fc 91       	ld	r31, X
    655e:	02 80       	ldd	r0, Z+2	; 0x02
    6560:	f3 81       	ldd	r31, Z+3	; 0x03
    6562:	e0 2d       	mov	r30, r0
    6564:	c7 01       	movw	r24, r14
    6566:	09 95       	icall
    6568:	85 01       	movw	r16, r10
    656a:	94 01       	movw	r18, r8
    656c:	f6 01       	movw	r30, r12
    656e:	44 89       	ldd	r20, Z+20	; 0x14
    6570:	62 85       	ldd	r22, Z+10	; 0x0a
    6572:	84 85       	ldd	r24, Z+12	; 0x0c
    6574:	95 85       	ldd	r25, Z+13	; 0x0d
    6576:	1e d6       	rcall	.+3132   	; 0x71b4 <_ZN3USB11outTransferEhhjPh>
    6578:	81 11       	cpse	r24, r1
    657a:	4b c0       	rjmp	.+150    	; 0x6612 <_ZN3PTP11TransactionEjPNS_9OperFlagsEPmPv+0x2ea>
    657c:	48 18       	sub	r4, r8
    657e:	59 08       	sbc	r5, r9
    6580:	61 08       	sbc	r6, r1
    6582:	71 08       	sbc	r7, r1
    6584:	94 2d       	mov	r25, r4
    6586:	85 2d       	mov	r24, r5
    6588:	f1 e4       	ldi	r31, 0x41	; 65
    658a:	4f 16       	cp	r4, r31
    658c:	51 04       	cpc	r5, r1
    658e:	61 04       	cpc	r6, r1
    6590:	71 04       	cpc	r7, r1
    6592:	10 f0       	brcs	.+4      	; 0x6598 <_ZN3PTP11TransactionEjPNS_9OperFlagsEPmPv+0x270>
    6594:	90 e4       	ldi	r25, 0x40	; 64
    6596:	80 e0       	ldi	r24, 0x00	; 0
    6598:	89 2e       	mov	r8, r25
    659a:	98 2e       	mov	r9, r24
    659c:	90 e0       	ldi	r25, 0x00	; 0
    659e:	c6 cf       	rjmp	.-116    	; 0x652c <_ZN3PTP11TransactionEjPNS_9OperFlagsEPmPv+0x204>
    65a0:	1e 01       	movw	r2, r28
    65a2:	05 e4       	ldi	r16, 0x45	; 69
    65a4:	20 0e       	add	r2, r16
    65a6:	31 1c       	adc	r3, r1
    65a8:	d1 01       	movw	r26, r2
    65aa:	1d 92       	st	X+, r1
    65ac:	1d 92       	st	X+, r1
    65ae:	1d 92       	st	X+, r1
    65b0:	1c 92       	st	X, r1
    65b2:	13 97       	sbiw	r26, 0x03	; 3
    65b4:	19 82       	std	Y+1, r1	; 0x01
    65b6:	1a 82       	std	Y+2, r1	; 0x02
    65b8:	1b 82       	std	Y+3, r1	; 0x03
    65ba:	1c 82       	std	Y+4, r1	; 0x04
    65bc:	1e 82       	std	Y+6, r1	; 0x06
    65be:	1d 82       	std	Y+5, r1	; 0x05
    65c0:	82 e0       	ldi	r24, 0x02	; 2
    65c2:	90 e2       	ldi	r25, 0x20	; 32
    65c4:	98 87       	std	Y+8, r25	; 0x08
    65c6:	8f 83       	std	Y+7, r24	; 0x07
    65c8:	19 86       	std	Y+9, r1	; 0x09
    65ca:	1a 86       	std	Y+10, r1	; 0x0a
    65cc:	1b 86       	std	Y+11, r1	; 0x0b
    65ce:	1c 86       	std	Y+12, r1	; 0x0c
    65d0:	81 2c       	mov	r8, r1
    65d2:	91 2c       	mov	r9, r1
    65d4:	a1 96       	adiw	r28, 0x21	; 33
    65d6:	1c ae       	std	Y+60, r1	; 0x3c
    65d8:	1d ae       	std	Y+61, r1	; 0x3d
    65da:	1e ae       	std	Y+62, r1	; 0x3e
    65dc:	1f ae       	std	Y+63, r1	; 0x3f
    65de:	a1 97       	sbiw	r28, 0x21	; 33
    65e0:	e0 e4       	ldi	r30, 0x40	; 64
    65e2:	f0 e0       	ldi	r31, 0x00	; 0
    65e4:	2b 96       	adiw	r28, 0x0b	; 11
    65e6:	ff af       	std	Y+63, r31	; 0x3f
    65e8:	ee af       	std	Y+62, r30	; 0x3e
    65ea:	2b 97       	sbiw	r28, 0x0b	; 11
    65ec:	85 01       	movw	r16, r10
    65ee:	9e 01       	movw	r18, r28
    65f0:	27 5b       	subi	r18, 0xB7	; 183
    65f2:	3f 4f       	sbci	r19, 0xFF	; 255
    65f4:	d6 01       	movw	r26, r12
    65f6:	51 96       	adiw	r26, 0x11	; 17
    65f8:	4c 91       	ld	r20, X
    65fa:	51 97       	sbiw	r26, 0x11	; 17
    65fc:	1a 96       	adiw	r26, 0x0a	; 10
    65fe:	6c 91       	ld	r22, X
    6600:	1a 97       	sbiw	r26, 0x0a	; 10
    6602:	1c 96       	adiw	r26, 0x0c	; 12
    6604:	8d 91       	ld	r24, X+
    6606:	9c 91       	ld	r25, X
    6608:	1d 97       	sbiw	r26, 0x0d	; 13
    660a:	0e 94 62 3b 	call	0x76c4	; 0x76c4 <_ZN3USB10inTransferEhhPjPh>
    660e:	88 23       	and	r24, r24
    6610:	41 f0       	breq	.+16     	; 0x6622 <_ZN3PTP11TransactionEjPNS_9OperFlagsEPmPv+0x2fa>
    6612:	61 e0       	ldi	r22, 0x01	; 1
    6614:	70 e0       	ldi	r23, 0x00	; 0
    6616:	80 e0       	ldi	r24, 0x00	; 0
    6618:	90 e0       	ldi	r25, 0x00	; 0
    661a:	c4 d9       	rcall	.-3192   	; 0x59a4 <delay>
    661c:	82 e0       	ldi	r24, 0x02	; 2
    661e:	90 e2       	ldi	r25, 0x20	; 32
    6620:	2a c1       	rjmp	.+596    	; 0x6876 <_ZN3PTP11TransactionEjPNS_9OperFlagsEPmPv+0x54e>
    6622:	81 14       	cp	r8, r1
    6624:	91 04       	cpc	r9, r1
    6626:	91 f0       	breq	.+36     	; 0x664c <_ZN3PTP11TransactionEjPNS_9OperFlagsEPmPv+0x324>
    6628:	29 96       	adiw	r28, 0x09	; 9
    662a:	8c ad       	ldd	r24, Y+60	; 0x3c
    662c:	9d ad       	ldd	r25, Y+61	; 0x3d
    662e:	ae ad       	ldd	r26, Y+62	; 0x3e
    6630:	bf ad       	ldd	r27, Y+63	; 0x3f
    6632:	29 97       	sbiw	r28, 0x09	; 9
    6634:	a1 96       	adiw	r28, 0x21	; 33
    6636:	4c ac       	ldd	r4, Y+60	; 0x3c
    6638:	5d ac       	ldd	r5, Y+61	; 0x3d
    663a:	6e ac       	ldd	r6, Y+62	; 0x3e
    663c:	7f ac       	ldd	r7, Y+63	; 0x3f
    663e:	a1 97       	sbiw	r28, 0x21	; 33
    6640:	48 16       	cp	r4, r24
    6642:	59 06       	cpc	r5, r25
    6644:	6a 06       	cpc	r6, r26
    6646:	7b 06       	cpc	r7, r27
    6648:	09 f0       	breq	.+2      	; 0x664c <_ZN3PTP11TransactionEjPNS_9OperFlagsEPmPv+0x324>
    664a:	74 c0       	rjmp	.+232    	; 0x6734 <_ZN3PTP11TransactionEjPNS_9OperFlagsEPmPv+0x40c>
    664c:	8d 81       	ldd	r24, Y+5	; 0x05
    664e:	9e 81       	ldd	r25, Y+6	; 0x06
    6650:	03 97       	sbiw	r24, 0x03	; 3
    6652:	09 f0       	breq	.+2      	; 0x6656 <_ZN3PTP11TransactionEjPNS_9OperFlagsEPmPv+0x32e>
    6654:	57 c0       	rjmp	.+174    	; 0x6704 <_ZN3PTP11TransactionEjPNS_9OperFlagsEPmPv+0x3dc>
    6656:	8f 81       	ldd	r24, Y+7	; 0x07
    6658:	98 85       	ldd	r25, Y+8	; 0x08
    665a:	81 30       	cpi	r24, 0x01	; 1
    665c:	90 42       	sbci	r25, 0x20	; 32
    665e:	09 f0       	breq	.+2      	; 0x6662 <_ZN3PTP11TransactionEjPNS_9OperFlagsEPmPv+0x33a>
    6660:	4e c0       	rjmp	.+156    	; 0x66fe <_ZN3PTP11TransactionEjPNS_9OperFlagsEPmPv+0x3d6>
    6662:	69 81       	ldd	r22, Y+1	; 0x01
    6664:	7a 81       	ldd	r23, Y+2	; 0x02
    6666:	8b 81       	ldd	r24, Y+3	; 0x03
    6668:	9c 81       	ldd	r25, Y+4	; 0x04
    666a:	6c 30       	cpi	r22, 0x0C	; 12
    666c:	71 05       	cpc	r23, r1
    666e:	81 05       	cpc	r24, r1
    6670:	91 05       	cpc	r25, r1
    6672:	08 f4       	brcc	.+2      	; 0x6676 <_ZN3PTP11TransactionEjPNS_9OperFlagsEPmPv+0x34e>
    6674:	44 c0       	rjmp	.+136    	; 0x66fe <_ZN3PTP11TransactionEjPNS_9OperFlagsEPmPv+0x3d6>
    6676:	8b 01       	movw	r16, r22
    6678:	9c 01       	movw	r18, r24
    667a:	0c 50       	subi	r16, 0x0C	; 12
    667c:	11 09       	sbc	r17, r1
    667e:	21 09       	sbc	r18, r1
    6680:	31 09       	sbc	r19, r1
    6682:	f2 e0       	ldi	r31, 0x02	; 2
    6684:	36 95       	lsr	r19
    6686:	27 95       	ror	r18
    6688:	17 95       	ror	r17
    668a:	07 95       	ror	r16
    668c:	fa 95       	dec	r31
    668e:	d1 f7       	brne	.-12     	; 0x6684 <_ZN3PTP11TransactionEjPNS_9OperFlagsEPmPv+0x35c>
    6690:	07 70       	andi	r16, 0x07	; 7
    6692:	00 0f       	add	r16, r16
    6694:	00 0f       	add	r16, r16
    6696:	00 0f       	add	r16, r16
    6698:	2d 96       	adiw	r28, 0x0d	; 13
    669a:	ae ad       	ldd	r26, Y+62	; 0x3e
    669c:	bf ad       	ldd	r27, Y+63	; 0x3f
    669e:	2d 97       	sbiw	r28, 0x0d	; 13
    66a0:	2c 91       	ld	r18, X
    66a2:	27 7c       	andi	r18, 0xC7	; 199
    66a4:	20 2b       	or	r18, r16
    66a6:	2c 93       	st	X, r18
    66a8:	e1 14       	cp	r14, r1
    66aa:	f1 04       	cpc	r15, r1
    66ac:	41 f1       	breq	.+80     	; 0x66fe <_ZN3PTP11TransactionEjPNS_9OperFlagsEPmPv+0x3d6>
    66ae:	11 96       	adiw	r26, 0x01	; 1
    66b0:	4c 91       	ld	r20, X
    66b2:	24 2f       	mov	r18, r20
    66b4:	23 70       	andi	r18, 0x03	; 3
    66b6:	30 e0       	ldi	r19, 0x00	; 0
    66b8:	21 30       	cpi	r18, 0x01	; 1
    66ba:	31 05       	cpc	r19, r1
    66bc:	71 f0       	breq	.+28     	; 0x66da <_ZN3PTP11TransactionEjPNS_9OperFlagsEPmPv+0x3b2>
    66be:	23 30       	cpi	r18, 0x03	; 3
    66c0:	31 05       	cpc	r19, r1
    66c2:	e9 f4       	brne	.+58     	; 0x66fe <_ZN3PTP11TransactionEjPNS_9OperFlagsEPmPv+0x3d6>
    66c4:	46 95       	lsr	r20
    66c6:	46 95       	lsr	r20
    66c8:	50 e0       	ldi	r21, 0x00	; 0
    66ca:	b5 01       	movw	r22, r10
    66cc:	2f 96       	adiw	r28, 0x0f	; 15
    66ce:	8e ad       	ldd	r24, Y+62	; 0x3e
    66d0:	9f ad       	ldd	r25, Y+63	; 0x3f
    66d2:	2f 97       	sbiw	r28, 0x0f	; 15
    66d4:	0e 94 ec 3e 	call	0x7dd8	; 0x7dd8 <memcpy>
    66d8:	12 c0       	rjmp	.+36     	; 0x66fe <_ZN3PTP11TransactionEjPNS_9OperFlagsEPmPv+0x3d6>
    66da:	d7 01       	movw	r26, r14
    66dc:	ed 91       	ld	r30, X+
    66de:	fc 91       	ld	r31, X
    66e0:	01 90       	ld	r0, Z+
    66e2:	f0 81       	ld	r31, Z
    66e4:	e0 2d       	mov	r30, r0
    66e6:	25 96       	adiw	r28, 0x05	; 5
    66e8:	1c ae       	std	Y+60, r1	; 0x3c
    66ea:	1d ae       	std	Y+61, r1	; 0x3d
    66ec:	1e ae       	std	Y+62, r1	; 0x3e
    66ee:	1f ae       	std	Y+63, r1	; 0x3f
    66f0:	25 97       	sbiw	r28, 0x05	; 5
    66f2:	9e 01       	movw	r18, r28
    66f4:	2f 5b       	subi	r18, 0xBF	; 191
    66f6:	3f 4f       	sbci	r19, 0xFF	; 255
    66f8:	a5 01       	movw	r20, r10
    66fa:	c7 01       	movw	r24, r14
    66fc:	09 95       	icall
    66fe:	8f 81       	ldd	r24, Y+7	; 0x07
    6700:	98 85       	ldd	r25, Y+8	; 0x08
    6702:	b9 c0       	rjmp	.+370    	; 0x6876 <_ZN3PTP11TransactionEjPNS_9OperFlagsEPmPv+0x54e>
    6704:	81 14       	cp	r8, r1
    6706:	91 04       	cpc	r9, r1
    6708:	a9 f4       	brne	.+42     	; 0x6734 <_ZN3PTP11TransactionEjPNS_9OperFlagsEPmPv+0x40c>
    670a:	49 80       	ldd	r4, Y+1	; 0x01
    670c:	5a 80       	ldd	r5, Y+2	; 0x02
    670e:	6b 80       	ldd	r6, Y+3	; 0x03
    6710:	7c 80       	ldd	r7, Y+4	; 0x04
    6712:	a1 96       	adiw	r28, 0x21	; 33
    6714:	4c ae       	std	Y+60, r4	; 0x3c
    6716:	5d ae       	std	Y+61, r5	; 0x3d
    6718:	6e ae       	std	Y+62, r6	; 0x3e
    671a:	7f ae       	std	Y+63, r7	; 0x3f
    671c:	a1 97       	sbiw	r28, 0x21	; 33
    671e:	93 01       	movw	r18, r6
    6720:	82 01       	movw	r16, r4
    6722:	00 34       	cpi	r16, 0x40	; 64
    6724:	11 05       	cpc	r17, r1
    6726:	21 05       	cpc	r18, r1
    6728:	31 05       	cpc	r19, r1
    672a:	f0 f4       	brcc	.+60     	; 0x6768 <_ZN3PTP11TransactionEjPNS_9OperFlagsEPmPv+0x440>
    672c:	6e 96       	adiw	r28, 0x1e	; 30
    672e:	6f ad       	ldd	r22, Y+63	; 0x3f
    6730:	6e 97       	sbiw	r28, 0x1e	; 30
    6732:	1b c0       	rjmp	.+54     	; 0x676a <_ZN3PTP11TransactionEjPNS_9OperFlagsEPmPv+0x442>
    6734:	29 96       	adiw	r28, 0x09	; 9
    6736:	8c ad       	ldd	r24, Y+60	; 0x3c
    6738:	9d ad       	ldd	r25, Y+61	; 0x3d
    673a:	ae ad       	ldd	r26, Y+62	; 0x3e
    673c:	bf ad       	ldd	r27, Y+63	; 0x3f
    673e:	29 97       	sbiw	r28, 0x09	; 9
    6740:	a1 96       	adiw	r28, 0x21	; 33
    6742:	4c ad       	ldd	r20, Y+60	; 0x3c
    6744:	5d ad       	ldd	r21, Y+61	; 0x3d
    6746:	6e ad       	ldd	r22, Y+62	; 0x3e
    6748:	7f ad       	ldd	r23, Y+63	; 0x3f
    674a:	a1 97       	sbiw	r28, 0x21	; 33
    674c:	48 1b       	sub	r20, r24
    674e:	59 0b       	sbc	r21, r25
    6750:	6a 0b       	sbc	r22, r26
    6752:	7b 0b       	sbc	r23, r27
    6754:	41 34       	cpi	r20, 0x41	; 65
    6756:	51 05       	cpc	r21, r1
    6758:	61 05       	cpc	r22, r1
    675a:	71 05       	cpc	r23, r1
    675c:	28 f4       	brcc	.+10     	; 0x6768 <_ZN3PTP11TransactionEjPNS_9OperFlagsEPmPv+0x440>
    675e:	6e 96       	adiw	r28, 0x1e	; 30
    6760:	6f ad       	ldd	r22, Y+63	; 0x3f
    6762:	6e 97       	sbiw	r28, 0x1e	; 30
    6764:	68 1b       	sub	r22, r24
    6766:	01 c0       	rjmp	.+2      	; 0x676a <_ZN3PTP11TransactionEjPNS_9OperFlagsEPmPv+0x442>
    6768:	60 e4       	ldi	r22, 0x40	; 64
    676a:	46 2e       	mov	r4, r22
    676c:	51 2c       	mov	r5, r1
    676e:	61 2c       	mov	r6, r1
    6770:	71 2c       	mov	r7, r1
    6772:	63 96       	adiw	r28, 0x13	; 19
    6774:	4c ae       	std	Y+60, r4	; 0x3c
    6776:	5d ae       	std	Y+61, r5	; 0x3d
    6778:	6e ae       	std	Y+62, r6	; 0x3e
    677a:	7f ae       	std	Y+63, r7	; 0x3f
    677c:	63 97       	sbiw	r28, 0x13	; 19
    677e:	e1 14       	cp	r14, r1
    6780:	f1 04       	cpc	r15, r1
    6782:	09 f4       	brne	.+2      	; 0x6786 <_ZN3PTP11TransactionEjPNS_9OperFlagsEPmPv+0x45e>
    6784:	5e c0       	rjmp	.+188    	; 0x6842 <_ZN3PTP11TransactionEjPNS_9OperFlagsEPmPv+0x51a>
    6786:	2d 96       	adiw	r28, 0x0d	; 13
    6788:	ae ad       	ldd	r26, Y+62	; 0x3e
    678a:	bf ad       	ldd	r27, Y+63	; 0x3f
    678c:	2d 97       	sbiw	r28, 0x0d	; 13
    678e:	11 96       	adiw	r26, 0x01	; 1
    6790:	8c 91       	ld	r24, X
    6792:	83 70       	andi	r24, 0x03	; 3
    6794:	81 30       	cpi	r24, 0x01	; 1
    6796:	59 f4       	brne	.+22     	; 0x67ae <_ZN3PTP11TransactionEjPNS_9OperFlagsEPmPv+0x486>
    6798:	d7 01       	movw	r26, r14
    679a:	ed 91       	ld	r30, X+
    679c:	fc 91       	ld	r31, X
    679e:	70 e0       	ldi	r23, 0x00	; 0
    67a0:	01 90       	ld	r0, Z+
    67a2:	f0 81       	ld	r31, Z
    67a4:	e0 2d       	mov	r30, r0
    67a6:	91 01       	movw	r18, r2
    67a8:	a5 01       	movw	r20, r10
    67aa:	c7 01       	movw	r24, r14
    67ac:	09 95       	icall
    67ae:	2d 96       	adiw	r28, 0x0d	; 13
    67b0:	ee ad       	ldd	r30, Y+62	; 0x3e
    67b2:	ff ad       	ldd	r31, Y+63	; 0x3f
    67b4:	2d 97       	sbiw	r28, 0x0d	; 13
    67b6:	81 81       	ldd	r24, Z+1	; 0x01
    67b8:	83 70       	andi	r24, 0x03	; 3
    67ba:	83 30       	cpi	r24, 0x03	; 3
    67bc:	09 f0       	breq	.+2      	; 0x67c0 <_ZN3PTP11TransactionEjPNS_9OperFlagsEPmPv+0x498>
    67be:	41 c0       	rjmp	.+130    	; 0x6842 <_ZN3PTP11TransactionEjPNS_9OperFlagsEPmPv+0x51a>
    67c0:	29 96       	adiw	r28, 0x09	; 9
    67c2:	4c ac       	ldd	r4, Y+60	; 0x3c
    67c4:	5d ac       	ldd	r5, Y+61	; 0x3d
    67c6:	6e ac       	ldd	r6, Y+62	; 0x3e
    67c8:	7f ac       	ldd	r7, Y+63	; 0x3f
    67ca:	29 97       	sbiw	r28, 0x09	; 9
    67cc:	6d 96       	adiw	r28, 0x1d	; 29
    67ce:	4c ae       	std	Y+60, r4	; 0x3c
    67d0:	5d ae       	std	Y+61, r5	; 0x3d
    67d2:	6e ae       	std	Y+62, r6	; 0x3e
    67d4:	7f ae       	std	Y+63, r7	; 0x3f
    67d6:	6d 97       	sbiw	r28, 0x1d	; 29
    67d8:	b5 01       	movw	r22, r10
    67da:	d3 01       	movw	r26, r6
    67dc:	c2 01       	movw	r24, r4
    67de:	2c 01       	movw	r4, r24
    67e0:	3d 01       	movw	r6, r26
    67e2:	6d 96       	adiw	r28, 0x1d	; 29
    67e4:	0c ad       	ldd	r16, Y+60	; 0x3c
    67e6:	1d ad       	ldd	r17, Y+61	; 0x3d
    67e8:	2e ad       	ldd	r18, Y+62	; 0x3e
    67ea:	3f ad       	ldd	r19, Y+63	; 0x3f
    67ec:	6d 97       	sbiw	r28, 0x1d	; 29
    67ee:	40 1a       	sub	r4, r16
    67f0:	51 0a       	sbc	r5, r17
    67f2:	62 0a       	sbc	r6, r18
    67f4:	73 0a       	sbc	r7, r19
    67f6:	63 96       	adiw	r28, 0x13	; 19
    67f8:	2c ad       	ldd	r18, Y+60	; 0x3c
    67fa:	3d ad       	ldd	r19, Y+61	; 0x3d
    67fc:	4e ad       	ldd	r20, Y+62	; 0x3e
    67fe:	5f ad       	ldd	r21, Y+63	; 0x3f
    6800:	63 97       	sbiw	r28, 0x13	; 19
    6802:	42 16       	cp	r4, r18
    6804:	53 06       	cpc	r5, r19
    6806:	64 06       	cpc	r6, r20
    6808:	75 06       	cpc	r7, r21
    680a:	d8 f4       	brcc	.+54     	; 0x6842 <_ZN3PTP11TransactionEjPNS_9OperFlagsEPmPv+0x51a>
    680c:	2d 96       	adiw	r28, 0x0d	; 13
    680e:	ee ad       	ldd	r30, Y+62	; 0x3e
    6810:	ff ad       	ldd	r31, Y+63	; 0x3f
    6812:	2d 97       	sbiw	r28, 0x0d	; 13
    6814:	01 81       	ldd	r16, Z+1	; 0x01
    6816:	06 95       	lsr	r16
    6818:	06 95       	lsr	r16
    681a:	10 e0       	ldi	r17, 0x00	; 0
    681c:	20 e0       	ldi	r18, 0x00	; 0
    681e:	30 e0       	ldi	r19, 0x00	; 0
    6820:	80 17       	cp	r24, r16
    6822:	91 07       	cpc	r25, r17
    6824:	a2 07       	cpc	r26, r18
    6826:	b3 07       	cpc	r27, r19
    6828:	60 f4       	brcc	.+24     	; 0x6842 <_ZN3PTP11TransactionEjPNS_9OperFlagsEPmPv+0x51a>
    682a:	fb 01       	movw	r30, r22
    682c:	21 91       	ld	r18, Z+
    682e:	bf 01       	movw	r22, r30
    6830:	87 01       	movw	r16, r14
    6832:	08 0f       	add	r16, r24
    6834:	19 1f       	adc	r17, r25
    6836:	f8 01       	movw	r30, r16
    6838:	20 83       	st	Z, r18
    683a:	01 96       	adiw	r24, 0x01	; 1
    683c:	a1 1d       	adc	r26, r1
    683e:	b1 1d       	adc	r27, r1
    6840:	ce cf       	rjmp	.-100    	; 0x67de <_ZN3PTP11TransactionEjPNS_9OperFlagsEPmPv+0x4b6>
    6842:	29 96       	adiw	r28, 0x09	; 9
    6844:	8c ad       	ldd	r24, Y+60	; 0x3c
    6846:	9d ad       	ldd	r25, Y+61	; 0x3d
    6848:	ae ad       	ldd	r26, Y+62	; 0x3e
    684a:	bf ad       	ldd	r27, Y+63	; 0x3f
    684c:	29 97       	sbiw	r28, 0x09	; 9
    684e:	63 96       	adiw	r28, 0x13	; 19
    6850:	4c ac       	ldd	r4, Y+60	; 0x3c
    6852:	5d ac       	ldd	r5, Y+61	; 0x3d
    6854:	6e ac       	ldd	r6, Y+62	; 0x3e
    6856:	7f ac       	ldd	r7, Y+63	; 0x3f
    6858:	63 97       	sbiw	r28, 0x13	; 19
    685a:	84 0d       	add	r24, r4
    685c:	95 1d       	adc	r25, r5
    685e:	a6 1d       	adc	r26, r6
    6860:	b7 1d       	adc	r27, r7
    6862:	29 96       	adiw	r28, 0x09	; 9
    6864:	8c af       	std	Y+60, r24	; 0x3c
    6866:	9d af       	std	Y+61, r25	; 0x3d
    6868:	ae af       	std	Y+62, r26	; 0x3e
    686a:	bf af       	std	Y+63, r27	; 0x3f
    686c:	29 97       	sbiw	r28, 0x09	; 9
    686e:	0f ef       	ldi	r16, 0xFF	; 255
    6870:	80 1a       	sub	r8, r16
    6872:	90 0a       	sbc	r9, r16
    6874:	b5 ce       	rjmp	.-662    	; 0x65e0 <_ZN3PTP11TransactionEjPNS_9OperFlagsEPmPv+0x2b8>
    6876:	c0 5a       	subi	r28, 0xA0	; 160
    6878:	df 4f       	sbci	r29, 0xFF	; 255
    687a:	0f b6       	in	r0, 0x3f	; 63
    687c:	f8 94       	cli
    687e:	de bf       	out	0x3e, r29	; 62
    6880:	0f be       	out	0x3f, r0	; 63
    6882:	cd bf       	out	0x3d, r28	; 61
    6884:	df 91       	pop	r29
    6886:	cf 91       	pop	r28
    6888:	1f 91       	pop	r17
    688a:	0f 91       	pop	r16
    688c:	ff 90       	pop	r15
    688e:	ef 90       	pop	r14
    6890:	df 90       	pop	r13
    6892:	cf 90       	pop	r12
    6894:	bf 90       	pop	r11
    6896:	af 90       	pop	r10
    6898:	9f 90       	pop	r9
    689a:	8f 90       	pop	r8
    689c:	7f 90       	pop	r7
    689e:	6f 90       	pop	r6
    68a0:	5f 90       	pop	r5
    68a2:	4f 90       	pop	r4
    68a4:	3f 90       	pop	r3
    68a6:	2f 90       	pop	r2
    68a8:	08 95       	ret

000068aa <_ZN3PTP12CloseSessionEv>:
    68aa:	ef 92       	push	r14
    68ac:	ff 92       	push	r15
    68ae:	0f 93       	push	r16
    68b0:	1f 93       	push	r17
    68b2:	cf 93       	push	r28
    68b4:	df 93       	push	r29
    68b6:	00 d0       	rcall	.+0      	; 0x68b8 <_ZN3PTP12CloseSessionEv+0xe>
    68b8:	cd b7       	in	r28, 0x3d	; 61
    68ba:	de b7       	in	r29, 0x3e	; 62
    68bc:	7c 01       	movw	r14, r24
    68be:	1a 82       	std	Y+2, r1	; 0x02
    68c0:	19 82       	std	Y+1, r1	; 0x01
    68c2:	00 e0       	ldi	r16, 0x00	; 0
    68c4:	10 e0       	ldi	r17, 0x00	; 0
    68c6:	20 e0       	ldi	r18, 0x00	; 0
    68c8:	30 e0       	ldi	r19, 0x00	; 0
    68ca:	ae 01       	movw	r20, r28
    68cc:	4f 5f       	subi	r20, 0xFF	; 255
    68ce:	5f 4f       	sbci	r21, 0xFF	; 255
    68d0:	63 e0       	ldi	r22, 0x03	; 3
    68d2:	70 e1       	ldi	r23, 0x10	; 16
    68d4:	29 dd       	rcall	.-1454   	; 0x6328 <_ZN3PTP11TransactionEjPNS_9OperFlagsEPmPv>
    68d6:	81 30       	cpi	r24, 0x01	; 1
    68d8:	20 e2       	ldi	r18, 0x20	; 32
    68da:	92 07       	cpc	r25, r18
    68dc:	39 f4       	brne	.+14     	; 0x68ec <_ZN3PTP12CloseSessionEv+0x42>
    68de:	f7 01       	movw	r30, r14
    68e0:	16 82       	std	Z+6, r1	; 0x06
    68e2:	15 82       	std	Z+5, r1	; 0x05
    68e4:	2f ef       	ldi	r18, 0xFF	; 255
    68e6:	3f ef       	ldi	r19, 0xFF	; 255
    68e8:	34 83       	std	Z+4, r19	; 0x04
    68ea:	23 83       	std	Z+3, r18	; 0x03
    68ec:	0f 90       	pop	r0
    68ee:	0f 90       	pop	r0
    68f0:	df 91       	pop	r29
    68f2:	cf 91       	pop	r28
    68f4:	1f 91       	pop	r17
    68f6:	0f 91       	pop	r16
    68f8:	ff 90       	pop	r15
    68fa:	ef 90       	pop	r14
    68fc:	08 95       	ret

000068fe <_ZN3PTP11OpenSessionEv>:
    68fe:	ef 92       	push	r14
    6900:	ff 92       	push	r15
    6902:	0f 93       	push	r16
    6904:	1f 93       	push	r17
    6906:	cf 93       	push	r28
    6908:	df 93       	push	r29
    690a:	00 d0       	rcall	.+0      	; 0x690c <_ZN3PTP11OpenSessionEv+0xe>
    690c:	00 d0       	rcall	.+0      	; 0x690e <_ZN3PTP11OpenSessionEv+0x10>
    690e:	00 d0       	rcall	.+0      	; 0x6910 <_ZN3PTP11OpenSessionEv+0x12>
    6910:	cd b7       	in	r28, 0x3d	; 61
    6912:	de b7       	in	r29, 0x3e	; 62
    6914:	7c 01       	movw	r14, r24
    6916:	8d 81       	ldd	r24, Y+5	; 0x05
    6918:	80 78       	andi	r24, 0x80	; 128
    691a:	81 60       	ori	r24, 0x01	; 1
    691c:	8f 77       	andi	r24, 0x7F	; 127
    691e:	8d 83       	std	Y+5, r24	; 0x05
    6920:	1e 82       	std	Y+6, r1	; 0x06
    6922:	81 e0       	ldi	r24, 0x01	; 1
    6924:	90 e0       	ldi	r25, 0x00	; 0
    6926:	f7 01       	movw	r30, r14
    6928:	96 83       	std	Z+6, r25	; 0x06
    692a:	85 83       	std	Z+5, r24	; 0x05
    692c:	8f ef       	ldi	r24, 0xFF	; 255
    692e:	9f ef       	ldi	r25, 0xFF	; 255
    6930:	94 83       	std	Z+4, r25	; 0x04
    6932:	83 83       	std	Z+3, r24	; 0x03
    6934:	41 e0       	ldi	r20, 0x01	; 1
    6936:	50 e0       	ldi	r21, 0x00	; 0
    6938:	60 e0       	ldi	r22, 0x00	; 0
    693a:	70 e0       	ldi	r23, 0x00	; 0
    693c:	49 83       	std	Y+1, r20	; 0x01
    693e:	5a 83       	std	Y+2, r21	; 0x02
    6940:	6b 83       	std	Y+3, r22	; 0x03
    6942:	7c 83       	std	Y+4, r23	; 0x04
    6944:	00 e0       	ldi	r16, 0x00	; 0
    6946:	10 e0       	ldi	r17, 0x00	; 0
    6948:	9e 01       	movw	r18, r28
    694a:	2f 5f       	subi	r18, 0xFF	; 255
    694c:	3f 4f       	sbci	r19, 0xFF	; 255
    694e:	ae 01       	movw	r20, r28
    6950:	4b 5f       	subi	r20, 0xFB	; 251
    6952:	5f 4f       	sbci	r21, 0xFF	; 255
    6954:	62 e0       	ldi	r22, 0x02	; 2
    6956:	70 e1       	ldi	r23, 0x10	; 16
    6958:	c7 01       	movw	r24, r14
    695a:	e6 dc       	rcall	.-1588   	; 0x6328 <_ZN3PTP11TransactionEjPNS_9OperFlagsEPmPv>
    695c:	8c 01       	movw	r16, r24
    695e:	8e 31       	cpi	r24, 0x1E	; 30
    6960:	f0 e2       	ldi	r31, 0x20	; 32
    6962:	9f 07       	cpc	r25, r31
    6964:	11 f4       	brne	.+4      	; 0x696a <_ZN3PTP11OpenSessionEv+0x6c>
    6966:	c7 01       	movw	r24, r14
    6968:	a0 df       	rcall	.-192    	; 0x68aa <_ZN3PTP12CloseSessionEv>
    696a:	c8 01       	movw	r24, r16
    696c:	26 96       	adiw	r28, 0x06	; 6
    696e:	0f b6       	in	r0, 0x3f	; 63
    6970:	f8 94       	cli
    6972:	de bf       	out	0x3e, r29	; 62
    6974:	0f be       	out	0x3f, r0	; 63
    6976:	cd bf       	out	0x3d, r28	; 61
    6978:	df 91       	pop	r29
    697a:	cf 91       	pop	r28
    697c:	1f 91       	pop	r17
    697e:	0f 91       	pop	r16
    6980:	ff 90       	pop	r15
    6982:	ef 90       	pop	r14
    6984:	08 95       	ret

00006986 <_ZN16PTPStateHandlers23OnSessionNotOpenedStateEP3PTP>:
    6986:	cf 93       	push	r28
    6988:	df 93       	push	r29
    698a:	eb 01       	movw	r28, r22
    698c:	cb 01       	movw	r24, r22
    698e:	b7 df       	rcall	.-146    	; 0x68fe <_ZN3PTP11OpenSessionEv>
    6990:	81 30       	cpi	r24, 0x01	; 1
    6992:	90 42       	sbci	r25, 0x20	; 32
    6994:	11 f4       	brne	.+4      	; 0x699a <_ZN16PTPStateHandlers23OnSessionNotOpenedStateEP3PTP+0x14>
    6996:	83 e0       	ldi	r24, 0x03	; 3
    6998:	8a 83       	std	Y+2, r24	; 0x02
    699a:	df 91       	pop	r29
    699c:	cf 91       	pop	r28
    699e:	08 95       	ret

000069a0 <_ZN3PTP9OperationEjhPm>:
    69a0:	0f 93       	push	r16
    69a2:	1f 93       	push	r17
    69a4:	cf 93       	push	r28
    69a6:	df 93       	push	r29
    69a8:	00 d0       	rcall	.+0      	; 0x69aa <_ZN3PTP9OperationEjhPm+0xa>
    69aa:	cd b7       	in	r28, 0x3d	; 61
    69ac:	de b7       	in	r29, 0x3e	; 62
    69ae:	1a 82       	std	Y+2, r1	; 0x02
    69b0:	19 82       	std	Y+1, r1	; 0x01
    69b2:	47 70       	andi	r20, 0x07	; 7
    69b4:	49 83       	std	Y+1, r20	; 0x01
    69b6:	00 e0       	ldi	r16, 0x00	; 0
    69b8:	10 e0       	ldi	r17, 0x00	; 0
    69ba:	ae 01       	movw	r20, r28
    69bc:	4f 5f       	subi	r20, 0xFF	; 255
    69be:	5f 4f       	sbci	r21, 0xFF	; 255
    69c0:	b3 dc       	rcall	.-1690   	; 0x6328 <_ZN3PTP11TransactionEjPNS_9OperFlagsEPmPv>
    69c2:	0f 90       	pop	r0
    69c4:	0f 90       	pop	r0
    69c6:	df 91       	pop	r29
    69c8:	cf 91       	pop	r28
    69ca:	1f 91       	pop	r17
    69cc:	0f 91       	pop	r16
    69ce:	08 95       	ret

000069d0 <_ZN20MultiByteValueParser5ParseEPPhPj>:
    69d0:	cf 93       	push	r28
    69d2:	df 93       	push	r29
    69d4:	fc 01       	movw	r30, r24
    69d6:	ea 01       	movw	r28, r20
    69d8:	80 81       	ld	r24, Z
    69da:	91 81       	ldd	r25, Z+1	; 0x01
    69dc:	89 2b       	or	r24, r25
    69de:	49 f5       	brne	.+82     	; 0x6a32 <_ZN20MultiByteValueParser5ParseEPPhPj+0x62>
    69e0:	60 e8       	ldi	r22, 0x80	; 128
    69e2:	70 e0       	ldi	r23, 0x00	; 0
    69e4:	80 e3       	ldi	r24, 0x30	; 48
    69e6:	93 e0       	ldi	r25, 0x03	; 3
    69e8:	0e 94 66 3e 	call	0x7ccc	; 0x7ccc <_Z8E_NotifyPKci>
    69ec:	26 c0       	rjmp	.+76     	; 0x6a3a <_ZN20MultiByteValueParser5ParseEPPhPj+0x6a>
    69ee:	88 81       	ld	r24, Y
    69f0:	99 81       	ldd	r25, Y+1	; 0x01
    69f2:	89 2b       	or	r24, r25
    69f4:	11 f1       	breq	.+68     	; 0x6a3a <_ZN20MultiByteValueParser5ParseEPPhPj+0x6a>
    69f6:	db 01       	movw	r26, r22
    69f8:	8d 91       	ld	r24, X+
    69fa:	9c 91       	ld	r25, X
    69fc:	dc 01       	movw	r26, r24
    69fe:	5c 91       	ld	r21, X
    6a00:	23 81       	ldd	r18, Z+3	; 0x03
    6a02:	30 e0       	ldi	r19, 0x00	; 0
    6a04:	24 1b       	sub	r18, r20
    6a06:	31 09       	sbc	r19, r1
    6a08:	80 81       	ld	r24, Z
    6a0a:	91 81       	ldd	r25, Z+1	; 0x01
    6a0c:	82 0f       	add	r24, r18
    6a0e:	93 1f       	adc	r25, r19
    6a10:	dc 01       	movw	r26, r24
    6a12:	5c 93       	st	X, r21
    6a14:	82 81       	ldd	r24, Z+2	; 0x02
    6a16:	81 50       	subi	r24, 0x01	; 1
    6a18:	82 83       	std	Z+2, r24	; 0x02
    6a1a:	88 81       	ld	r24, Y
    6a1c:	99 81       	ldd	r25, Y+1	; 0x01
    6a1e:	01 97       	sbiw	r24, 0x01	; 1
    6a20:	99 83       	std	Y+1, r25	; 0x01
    6a22:	88 83       	st	Y, r24
    6a24:	db 01       	movw	r26, r22
    6a26:	8d 91       	ld	r24, X+
    6a28:	9c 91       	ld	r25, X
    6a2a:	11 97       	sbiw	r26, 0x01	; 1
    6a2c:	01 96       	adiw	r24, 0x01	; 1
    6a2e:	8d 93       	st	X+, r24
    6a30:	9c 93       	st	X, r25
    6a32:	42 81       	ldd	r20, Z+2	; 0x02
    6a34:	41 11       	cpse	r20, r1
    6a36:	db cf       	rjmp	.-74     	; 0x69ee <_ZN20MultiByteValueParser5ParseEPPhPj+0x1e>
    6a38:	02 c0       	rjmp	.+4      	; 0x6a3e <_ZN20MultiByteValueParser5ParseEPPhPj+0x6e>
    6a3a:	80 e0       	ldi	r24, 0x00	; 0
    6a3c:	03 c0       	rjmp	.+6      	; 0x6a44 <_ZN20MultiByteValueParser5ParseEPPhPj+0x74>
    6a3e:	83 81       	ldd	r24, Z+3	; 0x03
    6a40:	82 83       	std	Z+2, r24	; 0x02
    6a42:	81 e0       	ldi	r24, 0x01	; 1
    6a44:	df 91       	pop	r29
    6a46:	cf 91       	pop	r28
    6a48:	08 95       	ret

00006a4a <_ZN3USBC1Ev>:
    6a4a:	fc 01       	movw	r30, r24
    6a4c:	84 e6       	ldi	r24, 0x64	; 100
    6a4e:	92 e0       	ldi	r25, 0x02	; 2
    6a50:	91 83       	std	Z+1, r25	; 0x01
    6a52:	80 83       	st	Z, r24
    6a54:	15 82       	std	Z+5, r1	; 0x05
    6a56:	10 86       	std	Z+8, r1	; 0x08
    6a58:	81 e0       	ldi	r24, 0x01	; 1
    6a5a:	81 87       	std	Z+9, r24	; 0x09
    6a5c:	12 86       	std	Z+10, r1	; 0x0a
    6a5e:	9f 01       	movw	r18, r30
    6a60:	2e 5f       	subi	r18, 0xFE	; 254
    6a62:	3f 4f       	sbci	r19, 0xFF	; 255
    6a64:	37 83       	std	Z+7, r19	; 0x07
    6a66:	26 83       	std	Z+6, r18	; 0x06
    6a68:	12 82       	std	Z+2, r1	; 0x02
    6a6a:	88 e0       	ldi	r24, 0x08	; 8
    6a6c:	83 83       	std	Z+3, r24	; 0x03
    6a6e:	8c e3       	ldi	r24, 0x3C	; 60
    6a70:	84 83       	std	Z+4, r24	; 0x04
    6a72:	80 e0       	ldi	r24, 0x00	; 0
    6a74:	90 e0       	ldi	r25, 0x00	; 0
    6a76:	41 e0       	ldi	r20, 0x01	; 1
    6a78:	df 01       	movw	r26, r30
    6a7a:	a8 0f       	add	r26, r24
    6a7c:	b9 1f       	adc	r27, r25
    6a7e:	1d 96       	adiw	r26, 0x0d	; 13
    6a80:	1c 92       	st	X, r1
    6a82:	1d 97       	sbiw	r26, 0x0d	; 13
    6a84:	1e 96       	adiw	r26, 0x0e	; 14
    6a86:	4c 93       	st	X, r20
    6a88:	1e 97       	sbiw	r26, 0x0e	; 14
    6a8a:	1f 96       	adiw	r26, 0x0f	; 15
    6a8c:	1c 92       	st	X, r1
    6a8e:	1f 97       	sbiw	r26, 0x0f	; 15
    6a90:	1c 96       	adiw	r26, 0x0c	; 12
    6a92:	3c 93       	st	X, r19
    6a94:	2e 93       	st	-X, r18
    6a96:	1b 97       	sbiw	r26, 0x0b	; 11
    6a98:	05 96       	adiw	r24, 0x05	; 5
    6a9a:	8b 34       	cpi	r24, 0x4B	; 75
    6a9c:	91 05       	cpc	r25, r1
    6a9e:	61 f7       	brne	.-40     	; 0x6a78 <_ZN3USBC1Ev+0x2e>
    6aa0:	ea 58       	subi	r30, 0x8A	; 138
    6aa2:	ff 4f       	sbci	r31, 0xFF	; 255
    6aa4:	10 82       	st	Z, r1
    6aa6:	81 e1       	ldi	r24, 0x11	; 17
    6aa8:	80 93 2b 05 	sts	0x052B, r24
    6aac:	08 95       	ret

00006aae <_ZN15AddressPoolImplILh16EE16FindAddressIndexEh>:
    6aae:	20 e0       	ldi	r18, 0x00	; 0
    6ab0:	30 e0       	ldi	r19, 0x00	; 0
    6ab2:	41 e0       	ldi	r20, 0x01	; 1
    6ab4:	fc 01       	movw	r30, r24
    6ab6:	e2 0f       	add	r30, r18
    6ab8:	f3 1f       	adc	r31, r19
    6aba:	55 85       	ldd	r21, Z+13	; 0x0d
    6abc:	56 17       	cp	r21, r22
    6abe:	39 f0       	breq	.+14     	; 0x6ace <_ZN15AddressPoolImplILh16EE16FindAddressIndexEh+0x20>
    6ac0:	4f 5f       	subi	r20, 0xFF	; 255
    6ac2:	2b 5f       	subi	r18, 0xFB	; 251
    6ac4:	3f 4f       	sbci	r19, 0xFF	; 255
    6ac6:	40 31       	cpi	r20, 0x10	; 16
    6ac8:	a9 f7       	brne	.-22     	; 0x6ab4 <_ZN15AddressPoolImplILh16EE16FindAddressIndexEh+0x6>
    6aca:	80 e0       	ldi	r24, 0x00	; 0
    6acc:	08 95       	ret
    6ace:	84 2f       	mov	r24, r20
    6ad0:	08 95       	ret

00006ad2 <_ZN15AddressPoolImplILh16EE12AllocAddressEhbh>:
    6ad2:	ef 92       	push	r14
    6ad4:	ff 92       	push	r15
    6ad6:	1f 93       	push	r17
    6ad8:	cf 93       	push	r28
    6ada:	df 93       	push	r29
    6adc:	00 d0       	rcall	.+0      	; 0x6ade <_ZN15AddressPoolImplILh16EE12AllocAddressEhbh+0xc>
    6ade:	cd b7       	in	r28, 0x3d	; 61
    6ae0:	de b7       	in	r29, 0x3e	; 62
    6ae2:	7c 01       	movw	r14, r24
    6ae4:	16 2f       	mov	r17, r22
    6ae6:	67 fd       	sbrc	r22, 7
    6ae8:	5e c0       	rjmp	.+188    	; 0x6ba6 <_ZN15AddressPoolImplILh16EE12AllocAddressEhbh+0xd4>
    6aea:	28 30       	cpi	r18, 0x08	; 8
    6aec:	08 f0       	brcs	.+2      	; 0x6af0 <_ZN15AddressPoolImplILh16EE12AllocAddressEhbh+0x1e>
    6aee:	5b c0       	rjmp	.+182    	; 0x6ba6 <_ZN15AddressPoolImplILh16EE12AllocAddressEhbh+0xd4>
    6af0:	44 23       	and	r20, r20
    6af2:	31 f0       	breq	.+12     	; 0x6b00 <_ZN15AddressPoolImplILh16EE12AllocAddressEhbh+0x2e>
    6af4:	dc 01       	movw	r26, r24
    6af6:	15 96       	adiw	r26, 0x05	; 5
    6af8:	8c 91       	ld	r24, X
    6afa:	87 30       	cpi	r24, 0x07	; 7
    6afc:	09 f4       	brne	.+2      	; 0x6b00 <_ZN15AddressPoolImplILh16EE12AllocAddressEhbh+0x2e>
    6afe:	53 c0       	rjmp	.+166    	; 0x6ba6 <_ZN15AddressPoolImplILh16EE12AllocAddressEhbh+0xd4>
    6b00:	60 e0       	ldi	r22, 0x00	; 0
    6b02:	c7 01       	movw	r24, r14
    6b04:	2a 83       	std	Y+2, r18	; 0x02
    6b06:	49 83       	std	Y+1, r20	; 0x01
    6b08:	d2 df       	rcall	.-92     	; 0x6aae <_ZN15AddressPoolImplILh16EE16FindAddressIndexEh>
    6b0a:	2a 81       	ldd	r18, Y+2	; 0x02
    6b0c:	49 81       	ldd	r20, Y+1	; 0x01
    6b0e:	88 23       	and	r24, r24
    6b10:	09 f4       	brne	.+2      	; 0x6b14 <_ZN15AddressPoolImplILh16EE12AllocAddressEhbh+0x42>
    6b12:	49 c0       	rjmp	.+146    	; 0x6ba6 <_ZN15AddressPoolImplILh16EE12AllocAddressEhbh+0xd4>
    6b14:	e8 2f       	mov	r30, r24
    6b16:	f0 e0       	ldi	r31, 0x00	; 0
    6b18:	11 11       	cpse	r17, r1
    6b1a:	23 c0       	rjmp	.+70     	; 0x6b62 <_ZN15AddressPoolImplILh16EE12AllocAddressEhbh+0x90>
    6b1c:	85 e0       	ldi	r24, 0x05	; 5
    6b1e:	8e 9f       	mul	r24, r30
    6b20:	d0 01       	movw	r26, r0
    6b22:	8f 9f       	mul	r24, r31
    6b24:	b0 0d       	add	r27, r0
    6b26:	11 24       	eor	r1, r1
    6b28:	ae 0d       	add	r26, r14
    6b2a:	bf 1d       	adc	r27, r15
    6b2c:	44 23       	and	r20, r20
    6b2e:	59 f0       	breq	.+22     	; 0x6b46 <_ZN15AddressPoolImplILh16EE12AllocAddressEhbh+0x74>
    6b30:	81 e4       	ldi	r24, 0x41	; 65
    6b32:	18 96       	adiw	r26, 0x08	; 8
    6b34:	8c 93       	st	X, r24
    6b36:	d7 01       	movw	r26, r14
    6b38:	15 96       	adiw	r26, 0x05	; 5
    6b3a:	8c 91       	ld	r24, X
    6b3c:	15 97       	sbiw	r26, 0x05	; 5
    6b3e:	8f 5f       	subi	r24, 0xFF	; 255
    6b40:	15 96       	adiw	r26, 0x05	; 5
    6b42:	8c 93       	st	X, r24
    6b44:	03 c0       	rjmp	.+6      	; 0x6b4c <_ZN15AddressPoolImplILh16EE12AllocAddressEhbh+0x7a>
    6b46:	81 e0       	ldi	r24, 0x01	; 1
    6b48:	18 96       	adiw	r26, 0x08	; 8
    6b4a:	8c 93       	st	X, r24
    6b4c:	85 e0       	ldi	r24, 0x05	; 5
    6b4e:	8e 9f       	mul	r24, r30
    6b50:	d0 01       	movw	r26, r0
    6b52:	8f 9f       	mul	r24, r31
    6b54:	b0 0d       	add	r27, r0
    6b56:	11 24       	eor	r1, r1
    6b58:	ae 0d       	add	r26, r14
    6b5a:	bf 1d       	adc	r27, r15
    6b5c:	18 96       	adiw	r26, 0x08	; 8
    6b5e:	8c 91       	ld	r24, X
    6b60:	23 c0       	rjmp	.+70     	; 0x6ba8 <_ZN15AddressPoolImplILh16EE12AllocAddressEhbh+0xd6>
    6b62:	61 2f       	mov	r22, r17
    6b64:	67 70       	andi	r22, 0x07	; 7
    6b66:	66 0f       	add	r22, r22
    6b68:	66 0f       	add	r22, r22
    6b6a:	66 0f       	add	r22, r22
    6b6c:	44 23       	and	r20, r20
    6b6e:	61 f0       	breq	.+24     	; 0x6b88 <_ZN15AddressPoolImplILh16EE12AllocAddressEhbh+0xb6>
    6b70:	60 64       	ori	r22, 0x40	; 64
    6b72:	d7 01       	movw	r26, r14
    6b74:	15 96       	adiw	r26, 0x05	; 5
    6b76:	8c 91       	ld	r24, X
    6b78:	15 97       	sbiw	r26, 0x05	; 5
    6b7a:	8f 5f       	subi	r24, 0xFF	; 255
    6b7c:	15 96       	adiw	r26, 0x05	; 5
    6b7e:	8c 93       	st	X, r24
    6b80:	87 70       	andi	r24, 0x07	; 7
    6b82:	68 7f       	andi	r22, 0xF8	; 248
    6b84:	68 2b       	or	r22, r24
    6b86:	03 c0       	rjmp	.+6      	; 0x6b8e <_ZN15AddressPoolImplILh16EE12AllocAddressEhbh+0xbc>
    6b88:	27 70       	andi	r18, 0x07	; 7
    6b8a:	68 7b       	andi	r22, 0xB8	; 184
    6b8c:	62 2b       	or	r22, r18
    6b8e:	85 e0       	ldi	r24, 0x05	; 5
    6b90:	8e 9f       	mul	r24, r30
    6b92:	d0 01       	movw	r26, r0
    6b94:	8f 9f       	mul	r24, r31
    6b96:	b0 0d       	add	r27, r0
    6b98:	11 24       	eor	r1, r1
    6b9a:	ae 0d       	add	r26, r14
    6b9c:	bf 1d       	adc	r27, r15
    6b9e:	18 96       	adiw	r26, 0x08	; 8
    6ba0:	6c 93       	st	X, r22
    6ba2:	86 2f       	mov	r24, r22
    6ba4:	01 c0       	rjmp	.+2      	; 0x6ba8 <_ZN15AddressPoolImplILh16EE12AllocAddressEhbh+0xd6>
    6ba6:	80 e0       	ldi	r24, 0x00	; 0
    6ba8:	0f 90       	pop	r0
    6baa:	0f 90       	pop	r0
    6bac:	df 91       	pop	r29
    6bae:	cf 91       	pop	r28
    6bb0:	1f 91       	pop	r17
    6bb2:	ff 90       	pop	r15
    6bb4:	ef 90       	pop	r14
    6bb6:	08 95       	ret

00006bb8 <_ZN15AddressPoolImplILh16EE15GetUsbDevicePtrEh>:
    6bb8:	cf 93       	push	r28
    6bba:	df 93       	push	r29
    6bbc:	ec 01       	movw	r28, r24
    6bbe:	66 23       	and	r22, r22
    6bc0:	51 f0       	breq	.+20     	; 0x6bd6 <_ZN15AddressPoolImplILh16EE15GetUsbDevicePtrEh+0x1e>
    6bc2:	75 df       	rcall	.-278    	; 0x6aae <_ZN15AddressPoolImplILh16EE16FindAddressIndexEh>
    6bc4:	88 23       	and	r24, r24
    6bc6:	49 f0       	breq	.+18     	; 0x6bda <_ZN15AddressPoolImplILh16EE15GetUsbDevicePtrEh+0x22>
    6bc8:	9e 01       	movw	r18, r28
    6bca:	45 e0       	ldi	r20, 0x05	; 5
    6bcc:	84 9f       	mul	r24, r20
    6bce:	20 0d       	add	r18, r0
    6bd0:	31 1d       	adc	r19, r1
    6bd2:	11 24       	eor	r1, r1
    6bd4:	c9 01       	movw	r24, r18
    6bd6:	06 96       	adiw	r24, 0x06	; 6
    6bd8:	02 c0       	rjmp	.+4      	; 0x6bde <_ZN15AddressPoolImplILh16EE15GetUsbDevicePtrEh+0x26>
    6bda:	80 e0       	ldi	r24, 0x00	; 0
    6bdc:	90 e0       	ldi	r25, 0x00	; 0
    6bde:	df 91       	pop	r29
    6be0:	cf 91       	pop	r28
    6be2:	08 95       	ret

00006be4 <_ZN3USB14getEpInfoEntryEhh>:
    6be4:	cf 93       	push	r28
    6be6:	df 93       	push	r29
    6be8:	1f 92       	push	r1
    6bea:	cd b7       	in	r28, 0x3d	; 61
    6bec:	de b7       	in	r29, 0x3e	; 62
    6bee:	49 83       	std	Y+1, r20	; 0x01
    6bf0:	e3 df       	rcall	.-58     	; 0x6bb8 <_ZN15AddressPoolImplILh16EE15GetUsbDevicePtrEh>
    6bf2:	49 81       	ldd	r20, Y+1	; 0x01
    6bf4:	00 97       	sbiw	r24, 0x00	; 0
    6bf6:	89 f0       	breq	.+34     	; 0x6c1a <_ZN3USB14getEpInfoEntryEhh+0x36>
    6bf8:	dc 01       	movw	r26, r24
    6bfa:	ed 91       	ld	r30, X+
    6bfc:	fc 91       	ld	r31, X
    6bfe:	11 97       	sbiw	r26, 0x01	; 1
    6c00:	30 97       	sbiw	r30, 0x00	; 0
    6c02:	59 f0       	breq	.+22     	; 0x6c1a <_ZN3USB14getEpInfoEntryEhh+0x36>
    6c04:	13 96       	adiw	r26, 0x03	; 3
    6c06:	9c 91       	ld	r25, X
    6c08:	80 e0       	ldi	r24, 0x00	; 0
    6c0a:	89 17       	cp	r24, r25
    6c0c:	31 f0       	breq	.+12     	; 0x6c1a <_ZN3USB14getEpInfoEntryEhh+0x36>
    6c0e:	20 81       	ld	r18, Z
    6c10:	24 17       	cp	r18, r20
    6c12:	31 f0       	breq	.+12     	; 0x6c20 <_ZN3USB14getEpInfoEntryEhh+0x3c>
    6c14:	33 96       	adiw	r30, 0x03	; 3
    6c16:	8f 5f       	subi	r24, 0xFF	; 255
    6c18:	f8 cf       	rjmp	.-16     	; 0x6c0a <_ZN3USB14getEpInfoEntryEhh+0x26>
    6c1a:	80 e0       	ldi	r24, 0x00	; 0
    6c1c:	90 e0       	ldi	r25, 0x00	; 0
    6c1e:	01 c0       	rjmp	.+2      	; 0x6c22 <_ZN3USB14getEpInfoEntryEhh+0x3e>
    6c20:	cf 01       	movw	r24, r30
    6c22:	0f 90       	pop	r0
    6c24:	df 91       	pop	r29
    6c26:	cf 91       	pop	r28
    6c28:	08 95       	ret

00006c2a <_ZN3USB14setEpInfoEntryEhhP6EpInfo>:
    6c2a:	ef 92       	push	r14
    6c2c:	ff 92       	push	r15
    6c2e:	1f 93       	push	r17
    6c30:	cf 93       	push	r28
    6c32:	df 93       	push	r29
    6c34:	1f 92       	push	r1
    6c36:	cd b7       	in	r28, 0x3d	; 61
    6c38:	de b7       	in	r29, 0x3e	; 62
    6c3a:	16 2f       	mov	r17, r22
    6c3c:	79 01       	movw	r14, r18
    6c3e:	21 15       	cp	r18, r1
    6c40:	31 05       	cpc	r19, r1
    6c42:	61 f0       	breq	.+24     	; 0x6c5c <_ZN3USB14setEpInfoEntryEhhP6EpInfo+0x32>
    6c44:	49 83       	std	Y+1, r20	; 0x01
    6c46:	b8 df       	rcall	.-144    	; 0x6bb8 <_ZN15AddressPoolImplILh16EE15GetUsbDevicePtrEh>
    6c48:	fc 01       	movw	r30, r24
    6c4a:	49 81       	ldd	r20, Y+1	; 0x01
    6c4c:	00 97       	sbiw	r24, 0x00	; 0
    6c4e:	41 f0       	breq	.+16     	; 0x6c60 <_ZN3USB14setEpInfoEntryEhhP6EpInfo+0x36>
    6c50:	12 83       	std	Z+2, r17	; 0x02
    6c52:	f1 82       	std	Z+1, r15	; 0x01
    6c54:	e0 82       	st	Z, r14
    6c56:	43 83       	std	Z+3, r20	; 0x03
    6c58:	80 e0       	ldi	r24, 0x00	; 0
    6c5a:	03 c0       	rjmp	.+6      	; 0x6c62 <_ZN3USB14setEpInfoEntryEhhP6EpInfo+0x38>
    6c5c:	88 ed       	ldi	r24, 0xD8	; 216
    6c5e:	01 c0       	rjmp	.+2      	; 0x6c62 <_ZN3USB14setEpInfoEntryEhhP6EpInfo+0x38>
    6c60:	86 ed       	ldi	r24, 0xD6	; 214
    6c62:	0f 90       	pop	r0
    6c64:	df 91       	pop	r29
    6c66:	cf 91       	pop	r28
    6c68:	1f 91       	pop	r17
    6c6a:	ff 90       	pop	r15
    6c6c:	ef 90       	pop	r14
    6c6e:	08 95       	ret

00006c70 <_ZN8MAX3421eI4TPinI5PortbLh2EES0_IS1_Lh1EEE5regRdEh.isra.2>:
    6c70:	cf 93       	push	r28
    6c72:	df 93       	push	r29
    6c74:	1f 92       	push	r1
    6c76:	cd b7       	in	r28, 0x3d	; 61
    6c78:	de b7       	in	r29, 0x3e	; 62
    6c7a:	89 83       	std	Y+1, r24	; 0x01
    6c7c:	0e 94 3b 0f 	call	0x1e76	; 0x1e76 <_ZN4TPinI5PortbLh2EE5ClearEv>
    6c80:	89 81       	ldd	r24, Y+1	; 0x01
    6c82:	8e bd       	out	0x2e, r24	; 46
    6c84:	0d b4       	in	r0, 0x2d	; 45
    6c86:	07 fe       	sbrs	r0, 7
    6c88:	fd cf       	rjmp	.-6      	; 0x6c84 <_ZN8MAX3421eI4TPinI5PortbLh2EES0_IS1_Lh1EEE5regRdEh.isra.2+0x14>
    6c8a:	1e bc       	out	0x2e, r1	; 46
    6c8c:	0d b4       	in	r0, 0x2d	; 45
    6c8e:	07 fe       	sbrs	r0, 7
    6c90:	fd cf       	rjmp	.-6      	; 0x6c8c <_ZN8MAX3421eI4TPinI5PortbLh2EES0_IS1_Lh1EEE5regRdEh.isra.2+0x1c>
    6c92:	0e 94 e0 0d 	call	0x1bc0	; 0x1bc0 <_ZN4TPinI5PortbLh2EE3SetEv>
    6c96:	8e b5       	in	r24, 0x2e	; 46
    6c98:	0f 90       	pop	r0
    6c9a:	df 91       	pop	r29
    6c9c:	cf 91       	pop	r28
    6c9e:	08 95       	ret

00006ca0 <_ZN8MAX3421eI4TPinI5PortbLh2EES0_IS1_Lh1EEE5regWrEhh.isra.3>:
    6ca0:	cf 93       	push	r28
    6ca2:	df 93       	push	r29
    6ca4:	00 d0       	rcall	.+0      	; 0x6ca6 <_ZN8MAX3421eI4TPinI5PortbLh2EES0_IS1_Lh1EEE5regWrEhh.isra.3+0x6>
    6ca6:	cd b7       	in	r28, 0x3d	; 61
    6ca8:	de b7       	in	r29, 0x3e	; 62
    6caa:	6a 83       	std	Y+2, r22	; 0x02
    6cac:	89 83       	std	Y+1, r24	; 0x01
    6cae:	0e 94 3b 0f 	call	0x1e76	; 0x1e76 <_ZN4TPinI5PortbLh2EE5ClearEv>
    6cb2:	89 81       	ldd	r24, Y+1	; 0x01
    6cb4:	82 60       	ori	r24, 0x02	; 2
    6cb6:	8e bd       	out	0x2e, r24	; 46
    6cb8:	6a 81       	ldd	r22, Y+2	; 0x02
    6cba:	0d b4       	in	r0, 0x2d	; 45
    6cbc:	07 fe       	sbrs	r0, 7
    6cbe:	fd cf       	rjmp	.-6      	; 0x6cba <_ZN8MAX3421eI4TPinI5PortbLh2EES0_IS1_Lh1EEE5regWrEhh.isra.3+0x1a>
    6cc0:	6e bd       	out	0x2e, r22	; 46
    6cc2:	0d b4       	in	r0, 0x2d	; 45
    6cc4:	07 fe       	sbrs	r0, 7
    6cc6:	fd cf       	rjmp	.-6      	; 0x6cc2 <_ZN8MAX3421eI4TPinI5PortbLh2EES0_IS1_Lh1EEE5regWrEhh.isra.3+0x22>
    6cc8:	0f 90       	pop	r0
    6cca:	0f 90       	pop	r0
    6ccc:	df 91       	pop	r29
    6cce:	cf 91       	pop	r28
    6cd0:	0c 94 e0 0d 	jmp	0x1bc0	; 0x1bc0 <_ZN4TPinI5PortbLh2EE3SetEv>

00006cd4 <_ZN3USB10SetAddressEhhPP6EpInfoRj>:
    6cd4:	8f 92       	push	r8
    6cd6:	9f 92       	push	r9
    6cd8:	bf 92       	push	r11
    6cda:	cf 92       	push	r12
    6cdc:	df 92       	push	r13
    6cde:	ef 92       	push	r14
    6ce0:	ff 92       	push	r15
    6ce2:	0f 93       	push	r16
    6ce4:	1f 93       	push	r17
    6ce6:	cf 93       	push	r28
    6ce8:	df 93       	push	r29
    6cea:	1f 92       	push	r1
    6cec:	cd b7       	in	r28, 0x3d	; 61
    6cee:	de b7       	in	r29, 0x3e	; 62
    6cf0:	4c 01       	movw	r8, r24
    6cf2:	b6 2e       	mov	r11, r22
    6cf4:	69 01       	movw	r12, r18
    6cf6:	49 83       	std	Y+1, r20	; 0x01
    6cf8:	5f df       	rcall	.-322    	; 0x6bb8 <_ZN15AddressPoolImplILh16EE15GetUsbDevicePtrEh>
    6cfa:	7c 01       	movw	r14, r24
    6cfc:	49 81       	ldd	r20, Y+1	; 0x01
    6cfe:	00 97       	sbiw	r24, 0x00	; 0
    6d00:	09 f4       	brne	.+2      	; 0x6d04 <_ZN3USB10SetAddressEhhPP6EpInfoRj+0x30>
    6d02:	3f c0       	rjmp	.+126    	; 0x6d82 <_ZN3USB10SetAddressEhhPP6EpInfoRj+0xae>
    6d04:	fc 01       	movw	r30, r24
    6d06:	80 81       	ld	r24, Z
    6d08:	91 81       	ldd	r25, Z+1	; 0x01
    6d0a:	89 2b       	or	r24, r25
    6d0c:	09 f4       	brne	.+2      	; 0x6d10 <_ZN3USB10SetAddressEhhPP6EpInfoRj+0x3c>
    6d0e:	3b c0       	rjmp	.+118    	; 0x6d86 <_ZN3USB10SetAddressEhhPP6EpInfoRj+0xb2>
    6d10:	6b 2d       	mov	r22, r11
    6d12:	c4 01       	movw	r24, r8
    6d14:	67 df       	rcall	.-306    	; 0x6be4 <_ZN3USB14getEpInfoEntryEhh>
    6d16:	f6 01       	movw	r30, r12
    6d18:	91 83       	std	Z+1, r25	; 0x01
    6d1a:	80 83       	st	Z, r24
    6d1c:	00 97       	sbiw	r24, 0x00	; 0
    6d1e:	a9 f1       	breq	.+106    	; 0x6d8a <_ZN3USB10SetAddressEhhPP6EpInfoRj+0xb6>
    6d20:	fc 01       	movw	r30, r24
    6d22:	22 81       	ldd	r18, Z+2	; 0x02
    6d24:	26 95       	lsr	r18
    6d26:	26 95       	lsr	r18
    6d28:	82 2f       	mov	r24, r18
    6d2a:	90 e0       	ldi	r25, 0x00	; 0
    6d2c:	40 97       	sbiw	r24, 0x10	; 16
    6d2e:	64 f4       	brge	.+24     	; 0x6d48 <_ZN3USB10SetAddressEhhPP6EpInfoRj+0x74>
    6d30:	41 e0       	ldi	r20, 0x01	; 1
    6d32:	50 e0       	ldi	r21, 0x00	; 0
    6d34:	60 e0       	ldi	r22, 0x00	; 0
    6d36:	70 e0       	ldi	r23, 0x00	; 0
    6d38:	04 c0       	rjmp	.+8      	; 0x6d42 <_ZN3USB10SetAddressEhhPP6EpInfoRj+0x6e>
    6d3a:	44 0f       	add	r20, r20
    6d3c:	55 1f       	adc	r21, r21
    6d3e:	66 1f       	adc	r22, r22
    6d40:	77 1f       	adc	r23, r23
    6d42:	2a 95       	dec	r18
    6d44:	d2 f7       	brpl	.-12     	; 0x6d3a <_ZN3USB10SetAddressEhhPP6EpInfoRj+0x66>
    6d46:	02 c0       	rjmp	.+4      	; 0x6d4c <_ZN3USB10SetAddressEhhPP6EpInfoRj+0x78>
    6d48:	40 e0       	ldi	r20, 0x00	; 0
    6d4a:	50 e8       	ldi	r21, 0x80	; 128
    6d4c:	41 50       	subi	r20, 0x01	; 1
    6d4e:	51 09       	sbc	r21, r1
    6d50:	f8 01       	movw	r30, r16
    6d52:	51 83       	std	Z+1, r21	; 0x01
    6d54:	40 83       	st	Z, r20
    6d56:	6b 2d       	mov	r22, r11
    6d58:	80 ee       	ldi	r24, 0xE0	; 224
    6d5a:	a2 df       	rcall	.-188    	; 0x6ca0 <_ZN8MAX3421eI4TPinI5PortbLh2EES0_IS1_Lh1EEE5regWrEhh.isra.3>
    6d5c:	88 ed       	ldi	r24, 0xD8	; 216
    6d5e:	88 df       	rcall	.-240    	; 0x6c70 <_ZN8MAX3421eI4TPinI5PortbLh2EES0_IS1_Lh1EEE5regRdEh.isra.2>
    6d60:	f7 01       	movw	r30, r14
    6d62:	94 81       	ldd	r25, Z+4	; 0x04
    6d64:	99 23       	and	r25, r25
    6d66:	39 f0       	breq	.+14     	; 0x6d76 <_ZN3USB10SetAddressEhhPP6EpInfoRj+0xa2>
    6d68:	f4 01       	movw	r30, r8
    6d6a:	ea 58       	subi	r30, 0x8A	; 138
    6d6c:	ff 4f       	sbci	r31, 0xFF	; 255
    6d6e:	60 81       	ld	r22, Z
    6d70:	62 60       	ori	r22, 0x02	; 2
    6d72:	68 2b       	or	r22, r24
    6d74:	02 c0       	rjmp	.+4      	; 0x6d7a <_ZN3USB10SetAddressEhhPP6EpInfoRj+0xa6>
    6d76:	68 2f       	mov	r22, r24
    6d78:	69 7f       	andi	r22, 0xF9	; 249
    6d7a:	88 ed       	ldi	r24, 0xD8	; 216
    6d7c:	91 df       	rcall	.-222    	; 0x6ca0 <_ZN8MAX3421eI4TPinI5PortbLh2EES0_IS1_Lh1EEE5regWrEhh.isra.3>
    6d7e:	80 e0       	ldi	r24, 0x00	; 0
    6d80:	05 c0       	rjmp	.+10     	; 0x6d8c <_ZN3USB10SetAddressEhhPP6EpInfoRj+0xb8>
    6d82:	86 ed       	ldi	r24, 0xD6	; 214
    6d84:	03 c0       	rjmp	.+6      	; 0x6d8c <_ZN3USB10SetAddressEhhPP6EpInfoRj+0xb8>
    6d86:	87 ed       	ldi	r24, 0xD7	; 215
    6d88:	01 c0       	rjmp	.+2      	; 0x6d8c <_ZN3USB10SetAddressEhhPP6EpInfoRj+0xb8>
    6d8a:	8b ed       	ldi	r24, 0xDB	; 219
    6d8c:	0f 90       	pop	r0
    6d8e:	df 91       	pop	r29
    6d90:	cf 91       	pop	r28
    6d92:	1f 91       	pop	r17
    6d94:	0f 91       	pop	r16
    6d96:	ff 90       	pop	r15
    6d98:	ef 90       	pop	r14
    6d9a:	df 90       	pop	r13
    6d9c:	cf 90       	pop	r12
    6d9e:	bf 90       	pop	r11
    6da0:	9f 90       	pop	r9
    6da2:	8f 90       	pop	r8
    6da4:	08 95       	ret

00006da6 <_ZN3USB11dispatchPktEhhj>:
    6da6:	8f 92       	push	r8
    6da8:	9f 92       	push	r9
    6daa:	af 92       	push	r10
    6dac:	bf 92       	push	r11
    6dae:	cf 92       	push	r12
    6db0:	df 92       	push	r13
    6db2:	ef 92       	push	r14
    6db4:	ff 92       	push	r15
    6db6:	0f 93       	push	r16
    6db8:	1f 93       	push	r17
    6dba:	cf 93       	push	r28
    6dbc:	df 93       	push	r29
    6dbe:	1f 92       	push	r1
    6dc0:	cd b7       	in	r28, 0x3d	; 61
    6dc2:	de b7       	in	r29, 0x3e	; 62
    6dc4:	a6 2e       	mov	r10, r22
    6dc6:	89 01       	movw	r16, r18
    6dc8:	49 83       	std	Y+1, r20	; 0x01
    6dca:	0e 94 96 2c 	call	0x592c	; 0x592c <millis>
    6dce:	6b 01       	movw	r12, r22
    6dd0:	7c 01       	movw	r14, r24
    6dd2:	80 e1       	ldi	r24, 0x10	; 16
    6dd4:	c8 0e       	add	r12, r24
    6dd6:	87 e2       	ldi	r24, 0x27	; 39
    6dd8:	d8 1e       	adc	r13, r24
    6dda:	e1 1c       	adc	r14, r1
    6ddc:	f1 1c       	adc	r15, r1
    6dde:	81 2c       	mov	r8, r1
    6de0:	91 2c       	mov	r9, r1
    6de2:	b1 2c       	mov	r11, r1
    6de4:	20 e0       	ldi	r18, 0x00	; 0
    6de6:	49 81       	ldd	r20, Y+1	; 0x01
    6de8:	a4 2a       	or	r10, r20
    6dea:	29 83       	std	Y+1, r18	; 0x01
    6dec:	0e 94 96 2c 	call	0x592c	; 0x592c <millis>
    6df0:	29 81       	ldd	r18, Y+1	; 0x01
    6df2:	6c 15       	cp	r22, r12
    6df4:	7d 05       	cpc	r23, r13
    6df6:	8e 05       	cpc	r24, r14
    6df8:	9f 05       	cpc	r25, r15
    6dfa:	40 f5       	brcc	.+80     	; 0x6e4c <_ZN3USB11dispatchPktEhhj+0xa6>
    6dfc:	6a 2d       	mov	r22, r10
    6dfe:	80 ef       	ldi	r24, 0xF0	; 240
    6e00:	4f df       	rcall	.-354    	; 0x6ca0 <_ZN8MAX3421eI4TPinI5PortbLh2EES0_IS1_Lh1EEE5regWrEhh.isra.3>
    6e02:	0e 94 96 2c 	call	0x592c	; 0x592c <millis>
    6e06:	6c 15       	cp	r22, r12
    6e08:	7d 05       	cpc	r23, r13
    6e0a:	8e 05       	cpc	r24, r14
    6e0c:	9f 05       	cpc	r25, r15
    6e0e:	38 f4       	brcc	.+14     	; 0x6e1e <_ZN3USB11dispatchPktEhhj+0x78>
    6e10:	88 ec       	ldi	r24, 0xC8	; 200
    6e12:	2e df       	rcall	.-420    	; 0x6c70 <_ZN8MAX3421eI4TPinI5PortbLh2EES0_IS1_Lh1EEE5regRdEh.isra.2>
    6e14:	87 ff       	sbrs	r24, 7
    6e16:	f5 cf       	rjmp	.-22     	; 0x6e02 <_ZN3USB11dispatchPktEhhj+0x5c>
    6e18:	60 e8       	ldi	r22, 0x80	; 128
    6e1a:	88 ec       	ldi	r24, 0xC8	; 200
    6e1c:	41 df       	rcall	.-382    	; 0x6ca0 <_ZN8MAX3421eI4TPinI5PortbLh2EES0_IS1_Lh1EEE5regWrEhh.isra.3>
    6e1e:	88 ef       	ldi	r24, 0xF8	; 248
    6e20:	27 df       	rcall	.-434    	; 0x6c70 <_ZN8MAX3421eI4TPinI5PortbLh2EES0_IS1_Lh1EEE5regRdEh.isra.2>
    6e22:	28 2f       	mov	r18, r24
    6e24:	2f 70       	andi	r18, 0x0F	; 15
    6e26:	24 30       	cpi	r18, 0x04	; 4
    6e28:	19 f0       	breq	.+6      	; 0x6e30 <_ZN3USB11dispatchPktEhhj+0x8a>
    6e2a:	2e 30       	cpi	r18, 0x0E	; 14
    6e2c:	59 f0       	breq	.+22     	; 0x6e44 <_ZN3USB11dispatchPktEhhj+0x9e>
    6e2e:	0e c0       	rjmp	.+28     	; 0x6e4c <_ZN3USB11dispatchPktEhhj+0xa6>
    6e30:	ef ef       	ldi	r30, 0xFF	; 255
    6e32:	8e 1a       	sub	r8, r30
    6e34:	9e 0a       	sbc	r9, r30
    6e36:	01 15       	cp	r16, r1
    6e38:	11 05       	cpc	r17, r1
    6e3a:	b9 f2       	breq	.-82     	; 0x6dea <_ZN3USB11dispatchPktEhhj+0x44>
    6e3c:	80 16       	cp	r8, r16
    6e3e:	91 06       	cpc	r9, r17
    6e40:	a1 f6       	brne	.-88     	; 0x6dea <_ZN3USB11dispatchPktEhhj+0x44>
    6e42:	04 c0       	rjmp	.+8      	; 0x6e4c <_ZN3USB11dispatchPktEhhj+0xa6>
    6e44:	b3 94       	inc	r11
    6e46:	f3 e0       	ldi	r31, 0x03	; 3
    6e48:	bf 12       	cpse	r11, r31
    6e4a:	cf cf       	rjmp	.-98     	; 0x6dea <_ZN3USB11dispatchPktEhhj+0x44>
    6e4c:	82 2f       	mov	r24, r18
    6e4e:	0f 90       	pop	r0
    6e50:	df 91       	pop	r29
    6e52:	cf 91       	pop	r28
    6e54:	1f 91       	pop	r17
    6e56:	0f 91       	pop	r16
    6e58:	ff 90       	pop	r15
    6e5a:	ef 90       	pop	r14
    6e5c:	df 90       	pop	r13
    6e5e:	cf 90       	pop	r12
    6e60:	bf 90       	pop	r11
    6e62:	af 90       	pop	r10
    6e64:	9f 90       	pop	r9
    6e66:	8f 90       	pop	r8
    6e68:	08 95       	ret

00006e6a <_ZN3USB13AttemptConfigEhhhb>:
    6e6a:	9f 92       	push	r9
    6e6c:	af 92       	push	r10
    6e6e:	bf 92       	push	r11
    6e70:	cf 92       	push	r12
    6e72:	df 92       	push	r13
    6e74:	ef 92       	push	r14
    6e76:	ff 92       	push	r15
    6e78:	0f 93       	push	r16
    6e7a:	1f 93       	push	r17
    6e7c:	cf 93       	push	r28
    6e7e:	df 93       	push	r29
    6e80:	7c 01       	movw	r14, r24
    6e82:	b4 2e       	mov	r11, r20
    6e84:	12 2f       	mov	r17, r18
    6e86:	aa 24       	eor	r10, r10
    6e88:	a3 94       	inc	r10
    6e8a:	dc 01       	movw	r26, r24
    6e8c:	a6 0f       	add	r26, r22
    6e8e:	b1 1d       	adc	r27, r1
    6e90:	a6 0f       	add	r26, r22
    6e92:	b1 1d       	adc	r27, r1
    6e94:	6d 01       	movw	r12, r26
    6e96:	86 e5       	ldi	r24, 0x56	; 86
    6e98:	c8 0e       	add	r12, r24
    6e9a:	d1 1c       	adc	r13, r1
    6e9c:	c4 2f       	mov	r28, r20
    6e9e:	d0 e0       	ldi	r29, 0x00	; 0
    6ea0:	ab 96       	adiw	r28, 0x2b	; 43
    6ea2:	cc 0f       	add	r28, r28
    6ea4:	dd 1f       	adc	r29, r29
    6ea6:	ce 0d       	add	r28, r14
    6ea8:	df 1d       	adc	r29, r15
    6eaa:	d6 01       	movw	r26, r12
    6eac:	8d 91       	ld	r24, X+
    6eae:	9c 91       	ld	r25, X
    6eb0:	dc 01       	movw	r26, r24
    6eb2:	ed 91       	ld	r30, X+
    6eb4:	fc 91       	ld	r31, X
    6eb6:	02 80       	ldd	r0, Z+2	; 0x02
    6eb8:	f3 81       	ldd	r31, Z+3	; 0x03
    6eba:	e0 2d       	mov	r30, r0
    6ebc:	20 2f       	mov	r18, r16
    6ebe:	41 2f       	mov	r20, r17
    6ec0:	6b 2d       	mov	r22, r11
    6ec2:	09 95       	icall
    6ec4:	80 3e       	cpi	r24, 0xE0	; 224
    6ec6:	b9 f4       	brne	.+46     	; 0x6ef6 <_ZN3USB13AttemptConfigEhhhb+0x8c>
    6ec8:	b1 10       	cpse	r11, r1
    6eca:	0a c0       	rjmp	.+20     	; 0x6ee0 <_ZN3USB13AttemptConfigEhhhb+0x76>
    6ecc:	61 e0       	ldi	r22, 0x01	; 1
    6ece:	88 ee       	ldi	r24, 0xE8	; 232
    6ed0:	e7 de       	rcall	.-562    	; 0x6ca0 <_ZN8MAX3421eI4TPinI5PortbLh2EES0_IS1_Lh1EEE5regWrEhh.isra.3>
    6ed2:	66 e6       	ldi	r22, 0x66	; 102
    6ed4:	70 e0       	ldi	r23, 0x00	; 0
    6ed6:	80 e0       	ldi	r24, 0x00	; 0
    6ed8:	90 e0       	ldi	r25, 0x00	; 0
    6eda:	0e 94 d2 2c 	call	0x59a4	; 0x59a4 <delay>
    6ede:	15 c0       	rjmp	.+42     	; 0x6f0a <_ZN3USB13AttemptConfigEhhhb+0xa0>
    6ee0:	88 81       	ld	r24, Y
    6ee2:	99 81       	ldd	r25, Y+1	; 0x01
    6ee4:	dc 01       	movw	r26, r24
    6ee6:	ed 91       	ld	r30, X+
    6ee8:	fc 91       	ld	r31, X
    6eea:	02 84       	ldd	r0, Z+10	; 0x0a
    6eec:	f3 85       	ldd	r31, Z+11	; 0x0b
    6eee:	e0 2d       	mov	r30, r0
    6ef0:	61 2f       	mov	r22, r17
    6ef2:	09 95       	icall
    6ef4:	0a c0       	rjmp	.+20     	; 0x6f0a <_ZN3USB13AttemptConfigEhhhb+0xa0>
    6ef6:	8d 30       	cpi	r24, 0x0D	; 13
    6ef8:	31 f4       	brne	.+12     	; 0x6f06 <_ZN3USB13AttemptConfigEhhhb+0x9c>
    6efa:	8f ef       	ldi	r24, 0xFF	; 255
    6efc:	8a 0d       	add	r24, r10
    6efe:	83 30       	cpi	r24, 0x03	; 3
    6f00:	08 f0       	brcs	.+2      	; 0x6f04 <_ZN3USB13AttemptConfigEhhhb+0x9a>
    6f02:	41 c0       	rjmp	.+130    	; 0x6f86 <_ZN3USB13AttemptConfigEhhhb+0x11c>
    6f04:	17 c0       	rjmp	.+46     	; 0x6f34 <_ZN3USB13AttemptConfigEhhhb+0xca>
    6f06:	81 11       	cpse	r24, r1
    6f08:	41 c0       	rjmp	.+130    	; 0x6f8c <_ZN3USB13AttemptConfigEhhhb+0x122>
    6f0a:	f6 01       	movw	r30, r12
    6f0c:	80 81       	ld	r24, Z
    6f0e:	91 81       	ldd	r25, Z+1	; 0x01
    6f10:	dc 01       	movw	r26, r24
    6f12:	ed 91       	ld	r30, X+
    6f14:	fc 91       	ld	r31, X
    6f16:	01 90       	ld	r0, Z+
    6f18:	f0 81       	ld	r31, Z
    6f1a:	e0 2d       	mov	r30, r0
    6f1c:	20 2f       	mov	r18, r16
    6f1e:	41 2f       	mov	r20, r17
    6f20:	6b 2d       	mov	r22, r11
    6f22:	09 95       	icall
    6f24:	98 2e       	mov	r9, r24
    6f26:	bd e0       	ldi	r27, 0x0D	; 13
    6f28:	8b 13       	cpse	r24, r27
    6f2a:	0c c0       	rjmp	.+24     	; 0x6f44 <_ZN3USB13AttemptConfigEhhhb+0xda>
    6f2c:	8f ef       	ldi	r24, 0xFF	; 255
    6f2e:	8a 0d       	add	r24, r10
    6f30:	83 30       	cpi	r24, 0x03	; 3
    6f32:	50 f4       	brcc	.+20     	; 0x6f48 <_ZN3USB13AttemptConfigEhhhb+0xde>
    6f34:	64 e6       	ldi	r22, 0x64	; 100
    6f36:	70 e0       	ldi	r23, 0x00	; 0
    6f38:	80 e0       	ldi	r24, 0x00	; 0
    6f3a:	90 e0       	ldi	r25, 0x00	; 0
    6f3c:	0e 94 d2 2c 	call	0x59a4	; 0x59a4 <delay>
    6f40:	a3 94       	inc	r10
    6f42:	b3 cf       	rjmp	.-154    	; 0x6eaa <_ZN3USB13AttemptConfigEhhhb+0x40>
    6f44:	88 23       	and	r24, r24
    6f46:	09 f1       	breq	.+66     	; 0x6f8a <_ZN3USB13AttemptConfigEhhhb+0x120>
    6f48:	b1 10       	cpse	r11, r1
    6f4a:	0a c0       	rjmp	.+20     	; 0x6f60 <_ZN3USB13AttemptConfigEhhhb+0xf6>
    6f4c:	61 e0       	ldi	r22, 0x01	; 1
    6f4e:	88 ee       	ldi	r24, 0xE8	; 232
    6f50:	a7 de       	rcall	.-690    	; 0x6ca0 <_ZN8MAX3421eI4TPinI5PortbLh2EES0_IS1_Lh1EEE5regWrEhh.isra.3>
    6f52:	66 e6       	ldi	r22, 0x66	; 102
    6f54:	70 e0       	ldi	r23, 0x00	; 0
    6f56:	80 e0       	ldi	r24, 0x00	; 0
    6f58:	90 e0       	ldi	r25, 0x00	; 0
    6f5a:	0e 94 d2 2c 	call	0x59a4	; 0x59a4 <delay>
    6f5e:	11 c0       	rjmp	.+34     	; 0x6f82 <_ZN3USB13AttemptConfigEhhhb+0x118>
    6f60:	eb 2d       	mov	r30, r11
    6f62:	f0 e0       	ldi	r31, 0x00	; 0
    6f64:	bb 96       	adiw	r30, 0x2b	; 43
    6f66:	ee 0f       	add	r30, r30
    6f68:	ff 1f       	adc	r31, r31
    6f6a:	ee 0d       	add	r30, r14
    6f6c:	ff 1d       	adc	r31, r15
    6f6e:	80 81       	ld	r24, Z
    6f70:	91 81       	ldd	r25, Z+1	; 0x01
    6f72:	dc 01       	movw	r26, r24
    6f74:	ed 91       	ld	r30, X+
    6f76:	fc 91       	ld	r31, X
    6f78:	02 84       	ldd	r0, Z+10	; 0x0a
    6f7a:	f3 85       	ldd	r31, Z+11	; 0x0b
    6f7c:	e0 2d       	mov	r30, r0
    6f7e:	61 2f       	mov	r22, r17
    6f80:	09 95       	icall
    6f82:	89 2d       	mov	r24, r9
    6f84:	03 c0       	rjmp	.+6      	; 0x6f8c <_ZN3USB13AttemptConfigEhhhb+0x122>
    6f86:	8d e0       	ldi	r24, 0x0D	; 13
    6f88:	01 c0       	rjmp	.+2      	; 0x6f8c <_ZN3USB13AttemptConfigEhhhb+0x122>
    6f8a:	80 e0       	ldi	r24, 0x00	; 0
    6f8c:	df 91       	pop	r29
    6f8e:	cf 91       	pop	r28
    6f90:	1f 91       	pop	r17
    6f92:	0f 91       	pop	r16
    6f94:	ff 90       	pop	r15
    6f96:	ef 90       	pop	r14
    6f98:	df 90       	pop	r13
    6f9a:	cf 90       	pop	r12
    6f9c:	bf 90       	pop	r11
    6f9e:	af 90       	pop	r10
    6fa0:	9f 90       	pop	r9
    6fa2:	08 95       	ret

00006fa4 <_ZN8MAX3421eI4TPinI5PortbLh2EES0_IS1_Lh1EEE7bytesWrEhhPh.isra.4>:
    6fa4:	0f 93       	push	r16
    6fa6:	1f 93       	push	r17
    6fa8:	cf 93       	push	r28
    6faa:	df 93       	push	r29
    6fac:	00 d0       	rcall	.+0      	; 0x6fae <_ZN8MAX3421eI4TPinI5PortbLh2EES0_IS1_Lh1EEE7bytesWrEhhPh.isra.4+0xa>
    6fae:	cd b7       	in	r28, 0x3d	; 61
    6fb0:	de b7       	in	r29, 0x3e	; 62
    6fb2:	8a 01       	movw	r16, r20
    6fb4:	6a 83       	std	Y+2, r22	; 0x02
    6fb6:	89 83       	std	Y+1, r24	; 0x01
    6fb8:	0e 94 3b 0f 	call	0x1e76	; 0x1e76 <_ZN4TPinI5PortbLh2EE5ClearEv>
    6fbc:	89 81       	ldd	r24, Y+1	; 0x01
    6fbe:	82 60       	ori	r24, 0x02	; 2
    6fc0:	8e bd       	out	0x2e, r24	; 46
    6fc2:	f8 01       	movw	r30, r16
    6fc4:	6a 81       	ldd	r22, Y+2	; 0x02
    6fc6:	86 2f       	mov	r24, r22
    6fc8:	88 23       	and	r24, r24
    6fca:	39 f0       	breq	.+14     	; 0x6fda <_ZN8MAX3421eI4TPinI5PortbLh2EES0_IS1_Lh1EEE7bytesWrEhhPh.isra.4+0x36>
    6fcc:	0d b4       	in	r0, 0x2d	; 45
    6fce:	07 fe       	sbrs	r0, 7
    6fd0:	fd cf       	rjmp	.-6      	; 0x6fcc <_ZN8MAX3421eI4TPinI5PortbLh2EES0_IS1_Lh1EEE7bytesWrEhhPh.isra.4+0x28>
    6fd2:	91 91       	ld	r25, Z+
    6fd4:	9e bd       	out	0x2e, r25	; 46
    6fd6:	81 50       	subi	r24, 0x01	; 1
    6fd8:	f7 cf       	rjmp	.-18     	; 0x6fc8 <_ZN8MAX3421eI4TPinI5PortbLh2EES0_IS1_Lh1EEE7bytesWrEhhPh.isra.4+0x24>
    6fda:	06 0f       	add	r16, r22
    6fdc:	11 1d       	adc	r17, r1
    6fde:	0d b4       	in	r0, 0x2d	; 45
    6fe0:	07 fe       	sbrs	r0, 7
    6fe2:	fd cf       	rjmp	.-6      	; 0x6fde <_ZN8MAX3421eI4TPinI5PortbLh2EES0_IS1_Lh1EEE7bytesWrEhhPh.isra.4+0x3a>
    6fe4:	0e 94 e0 0d 	call	0x1bc0	; 0x1bc0 <_ZN4TPinI5PortbLh2EE3SetEv>
    6fe8:	c8 01       	movw	r24, r16
    6fea:	0f 90       	pop	r0
    6fec:	0f 90       	pop	r0
    6fee:	df 91       	pop	r29
    6ff0:	cf 91       	pop	r28
    6ff2:	1f 91       	pop	r17
    6ff4:	0f 91       	pop	r16
    6ff6:	08 95       	ret

00006ff8 <_ZN3USB11OutTransferEP6EpInfojjPh>:
    6ff8:	2f 92       	push	r2
    6ffa:	3f 92       	push	r3
    6ffc:	4f 92       	push	r4
    6ffe:	5f 92       	push	r5
    7000:	6f 92       	push	r6
    7002:	7f 92       	push	r7
    7004:	8f 92       	push	r8
    7006:	9f 92       	push	r9
    7008:	af 92       	push	r10
    700a:	bf 92       	push	r11
    700c:	cf 92       	push	r12
    700e:	df 92       	push	r13
    7010:	ef 92       	push	r14
    7012:	ff 92       	push	r15
    7014:	0f 93       	push	r16
    7016:	1f 93       	push	r17
    7018:	cf 93       	push	r28
    701a:	df 93       	push	r29
    701c:	00 d0       	rcall	.+0      	; 0x701e <_ZN3USB11OutTransferEP6EpInfojjPh+0x26>
    701e:	00 d0       	rcall	.+0      	; 0x7020 <_ZN3USB11OutTransferEP6EpInfojjPh+0x28>
    7020:	1f 92       	push	r1
    7022:	cd b7       	in	r28, 0x3d	; 61
    7024:	de b7       	in	r29, 0x3e	; 62
    7026:	7d 83       	std	Y+5, r23	; 0x05
    7028:	6c 83       	std	Y+4, r22	; 0x04
    702a:	5a 01       	movw	r10, r20
    702c:	69 01       	movw	r12, r18
    702e:	fb 01       	movw	r30, r22
    7030:	21 80       	ldd	r2, Z+1	; 0x01
    7032:	8f ef       	ldi	r24, 0xFF	; 255
    7034:	82 0d       	add	r24, r2
    7036:	80 34       	cpi	r24, 0x40	; 64
    7038:	08 f0       	brcs	.+2      	; 0x703c <_ZN3USB11OutTransferEP6EpInfojjPh+0x44>
    703a:	67 c0       	rjmp	.+206    	; 0x710a <_ZN3USB11OutTransferEP6EpInfojjPh+0x112>
    703c:	0e 94 96 2c 	call	0x592c	; 0x592c <millis>
    7040:	2b 01       	movw	r4, r22
    7042:	3c 01       	movw	r6, r24
    7044:	f0 e1       	ldi	r31, 0x10	; 16
    7046:	4f 0e       	add	r4, r31
    7048:	f7 e2       	ldi	r31, 0x27	; 39
    704a:	5f 1e       	adc	r5, r31
    704c:	61 1c       	adc	r6, r1
    704e:	71 1c       	adc	r7, r1
    7050:	ec 81       	ldd	r30, Y+4	; 0x04
    7052:	fd 81       	ldd	r31, Y+5	; 0x05
    7054:	82 81       	ldd	r24, Z+2	; 0x02
    7056:	80 ff       	sbrs	r24, 0
    7058:	02 c0       	rjmp	.+4      	; 0x705e <_ZN3USB11OutTransferEP6EpInfojjPh+0x66>
    705a:	60 e8       	ldi	r22, 0x80	; 128
    705c:	01 c0       	rjmp	.+2      	; 0x7060 <_ZN3USB11OutTransferEP6EpInfojjPh+0x68>
    705e:	60 e4       	ldi	r22, 0x40	; 64
    7060:	88 ee       	ldi	r24, 0xE8	; 232
    7062:	1e de       	rcall	.-964    	; 0x6ca0 <_ZN8MAX3421eI4TPinI5PortbLh2EES0_IS1_Lh1EEE5regWrEhh.isra.3>
    7064:	20 e0       	ldi	r18, 0x00	; 0
    7066:	31 2c       	mov	r3, r1
    7068:	c1 14       	cp	r12, r1
    706a:	d1 04       	cpc	r13, r1
    706c:	09 f4       	brne	.+2      	; 0x7070 <_ZN3USB11OutTransferEP6EpInfojjPh+0x78>
    706e:	3e c0       	rjmp	.+124    	; 0x70ec <_ZN3USB11OutTransferEP6EpInfojjPh+0xf4>
    7070:	76 01       	movw	r14, r12
    7072:	2c 14       	cp	r2, r12
    7074:	3d 04       	cpc	r3, r13
    7076:	08 f4       	brcc	.+2      	; 0x707a <_ZN3USB11OutTransferEP6EpInfojjPh+0x82>
    7078:	71 01       	movw	r14, r2
    707a:	ea 82       	std	Y+2, r14	; 0x02
    707c:	a8 01       	movw	r20, r16
    707e:	6e 2d       	mov	r22, r14
    7080:	80 e1       	ldi	r24, 0x10	; 16
    7082:	90 df       	rcall	.-224    	; 0x6fa4 <_ZN8MAX3421eI4TPinI5PortbLh2EES0_IS1_Lh1EEE7bytesWrEhhPh.isra.4>
    7084:	6e 2d       	mov	r22, r14
    7086:	88 e3       	ldi	r24, 0x38	; 56
    7088:	0b de       	rcall	.-1002   	; 0x6ca0 <_ZN8MAX3421eI4TPinI5PortbLh2EES0_IS1_Lh1EEE5regWrEhh.isra.3>
    708a:	ec 81       	ldd	r30, Y+4	; 0x04
    708c:	fd 81       	ldd	r31, Y+5	; 0x05
    708e:	60 81       	ld	r22, Z
    7090:	60 62       	ori	r22, 0x20	; 32
    7092:	80 ef       	ldi	r24, 0xF0	; 240
    7094:	05 de       	rcall	.-1014   	; 0x6ca0 <_ZN8MAX3421eI4TPinI5PortbLh2EES0_IS1_Lh1EEE5regWrEhh.isra.3>
    7096:	88 ec       	ldi	r24, 0xC8	; 200
    7098:	eb dd       	rcall	.-1066   	; 0x6c70 <_ZN8MAX3421eI4TPinI5PortbLh2EES0_IS1_Lh1EEE5regRdEh.isra.2>
    709a:	87 ff       	sbrs	r24, 7
    709c:	fc cf       	rjmp	.-8      	; 0x7096 <_ZN3USB11OutTransferEP6EpInfojjPh+0x9e>
    709e:	60 e8       	ldi	r22, 0x80	; 128
    70a0:	88 ec       	ldi	r24, 0xC8	; 200
    70a2:	fe dd       	rcall	.-1028   	; 0x6ca0 <_ZN8MAX3421eI4TPinI5PortbLh2EES0_IS1_Lh1EEE5regWrEhh.isra.3>
    70a4:	88 ef       	ldi	r24, 0xF8	; 248
    70a6:	e4 dd       	rcall	.-1080   	; 0x6c70 <_ZN8MAX3421eI4TPinI5PortbLh2EES0_IS1_Lh1EEE5regRdEh.isra.2>
    70a8:	28 2f       	mov	r18, r24
    70aa:	2f 70       	andi	r18, 0x0F	; 15
    70ac:	81 2c       	mov	r8, r1
    70ae:	91 2c       	mov	r9, r1
    70b0:	19 82       	std	Y+1, r1	; 0x01
    70b2:	22 23       	and	r18, r18
    70b4:	09 f4       	brne	.+2      	; 0x70b8 <_ZN3USB11OutTransferEP6EpInfojjPh+0xc0>
    70b6:	61 c0       	rjmp	.+194    	; 0x717a <_ZN3USB11OutTransferEP6EpInfojjPh+0x182>
    70b8:	2b 83       	std	Y+3, r18	; 0x03
    70ba:	0e 94 96 2c 	call	0x592c	; 0x592c <millis>
    70be:	2b 81       	ldd	r18, Y+3	; 0x03
    70c0:	64 15       	cp	r22, r4
    70c2:	75 05       	cpc	r23, r5
    70c4:	86 05       	cpc	r24, r6
    70c6:	97 05       	cpc	r25, r7
    70c8:	08 f0       	brcs	.+2      	; 0x70cc <_ZN3USB11OutTransferEP6EpInfojjPh+0xd4>
    70ca:	57 c0       	rjmp	.+174    	; 0x717a <_ZN3USB11OutTransferEP6EpInfojjPh+0x182>
    70cc:	26 30       	cpi	r18, 0x06	; 6
    70ce:	f9 f0       	breq	.+62     	; 0x710e <_ZN3USB11OutTransferEP6EpInfojjPh+0x116>
    70d0:	2e 30       	cpi	r18, 0x0E	; 14
    70d2:	09 f4       	brne	.+2      	; 0x70d6 <_ZN3USB11OutTransferEP6EpInfojjPh+0xde>
    70d4:	4c c0       	rjmp	.+152    	; 0x716e <_ZN3USB11OutTransferEP6EpInfojjPh+0x176>
    70d6:	24 30       	cpi	r18, 0x04	; 4
    70d8:	49 f4       	brne	.+18     	; 0x70ec <_ZN3USB11OutTransferEP6EpInfojjPh+0xf4>
    70da:	ff ef       	ldi	r31, 0xFF	; 255
    70dc:	8f 1a       	sub	r8, r31
    70de:	9f 0a       	sbc	r9, r31
    70e0:	a1 14       	cp	r10, r1
    70e2:	b1 04       	cpc	r11, r1
    70e4:	41 f1       	breq	.+80     	; 0x7136 <_ZN3USB11OutTransferEP6EpInfojjPh+0x13e>
    70e6:	8a 14       	cp	r8, r10
    70e8:	9b 04       	cpc	r9, r11
    70ea:	29 f5       	brne	.+74     	; 0x7136 <_ZN3USB11OutTransferEP6EpInfojjPh+0x13e>
    70ec:	88 ef       	ldi	r24, 0xF8	; 248
    70ee:	2b 83       	std	Y+3, r18	; 0x03
    70f0:	bf dd       	rcall	.-1154   	; 0x6c70 <_ZN8MAX3421eI4TPinI5PortbLh2EES0_IS1_Lh1EEE5regRdEh.isra.2>
    70f2:	85 fb       	bst	r24, 5
    70f4:	88 27       	eor	r24, r24
    70f6:	80 f9       	bld	r24, 0
    70f8:	ec 81       	ldd	r30, Y+4	; 0x04
    70fa:	fd 81       	ldd	r31, Y+5	; 0x05
    70fc:	92 81       	ldd	r25, Z+2	; 0x02
    70fe:	80 fb       	bst	r24, 0
    7100:	90 f9       	bld	r25, 0
    7102:	92 83       	std	Z+2, r25	; 0x02
    7104:	2b 81       	ldd	r18, Y+3	; 0x03
    7106:	82 2f       	mov	r24, r18
    7108:	3d c0       	rjmp	.+122    	; 0x7184 <_ZN3USB11OutTransferEP6EpInfojjPh+0x18c>
    710a:	8a ed       	ldi	r24, 0xDA	; 218
    710c:	3b c0       	rjmp	.+118    	; 0x7184 <_ZN3USB11OutTransferEP6EpInfojjPh+0x18c>
    710e:	88 ef       	ldi	r24, 0xF8	; 248
    7110:	af dd       	rcall	.-1186   	; 0x6c70 <_ZN8MAX3421eI4TPinI5PortbLh2EES0_IS1_Lh1EEE5regRdEh.isra.2>
    7112:	85 fb       	bst	r24, 5
    7114:	88 27       	eor	r24, r24
    7116:	80 f9       	bld	r24, 0
    7118:	91 e0       	ldi	r25, 0x01	; 1
    711a:	89 27       	eor	r24, r25
    711c:	ec 81       	ldd	r30, Y+4	; 0x04
    711e:	fd 81       	ldd	r31, Y+5	; 0x05
    7120:	92 81       	ldd	r25, Z+2	; 0x02
    7122:	80 fb       	bst	r24, 0
    7124:	90 f9       	bld	r25, 0
    7126:	92 83       	std	Z+2, r25	; 0x02
    7128:	90 ff       	sbrs	r25, 0
    712a:	02 c0       	rjmp	.+4      	; 0x7130 <_ZN3USB11OutTransferEP6EpInfojjPh+0x138>
    712c:	60 e8       	ldi	r22, 0x80	; 128
    712e:	01 c0       	rjmp	.+2      	; 0x7132 <_ZN3USB11OutTransferEP6EpInfojjPh+0x13a>
    7130:	60 e4       	ldi	r22, 0x40	; 64
    7132:	88 ee       	ldi	r24, 0xE8	; 232
    7134:	b5 dd       	rcall	.-1174   	; 0x6ca0 <_ZN8MAX3421eI4TPinI5PortbLh2EES0_IS1_Lh1EEE5regWrEhh.isra.3>
    7136:	60 e0       	ldi	r22, 0x00	; 0
    7138:	88 e3       	ldi	r24, 0x38	; 56
    713a:	b2 dd       	rcall	.-1180   	; 0x6ca0 <_ZN8MAX3421eI4TPinI5PortbLh2EES0_IS1_Lh1EEE5regWrEhh.isra.3>
    713c:	f8 01       	movw	r30, r16
    713e:	60 81       	ld	r22, Z
    7140:	80 e1       	ldi	r24, 0x10	; 16
    7142:	ae dd       	rcall	.-1188   	; 0x6ca0 <_ZN8MAX3421eI4TPinI5PortbLh2EES0_IS1_Lh1EEE5regWrEhh.isra.3>
    7144:	6a 81       	ldd	r22, Y+2	; 0x02
    7146:	88 e3       	ldi	r24, 0x38	; 56
    7148:	ab dd       	rcall	.-1194   	; 0x6ca0 <_ZN8MAX3421eI4TPinI5PortbLh2EES0_IS1_Lh1EEE5regWrEhh.isra.3>
    714a:	ec 81       	ldd	r30, Y+4	; 0x04
    714c:	fd 81       	ldd	r31, Y+5	; 0x05
    714e:	60 81       	ld	r22, Z
    7150:	60 62       	ori	r22, 0x20	; 32
    7152:	80 ef       	ldi	r24, 0xF0	; 240
    7154:	a5 dd       	rcall	.-1206   	; 0x6ca0 <_ZN8MAX3421eI4TPinI5PortbLh2EES0_IS1_Lh1EEE5regWrEhh.isra.3>
    7156:	88 ec       	ldi	r24, 0xC8	; 200
    7158:	8b dd       	rcall	.-1258   	; 0x6c70 <_ZN8MAX3421eI4TPinI5PortbLh2EES0_IS1_Lh1EEE5regRdEh.isra.2>
    715a:	87 ff       	sbrs	r24, 7
    715c:	fc cf       	rjmp	.-8      	; 0x7156 <_ZN3USB11OutTransferEP6EpInfojjPh+0x15e>
    715e:	60 e8       	ldi	r22, 0x80	; 128
    7160:	88 ec       	ldi	r24, 0xC8	; 200
    7162:	9e dd       	rcall	.-1220   	; 0x6ca0 <_ZN8MAX3421eI4TPinI5PortbLh2EES0_IS1_Lh1EEE5regWrEhh.isra.3>
    7164:	88 ef       	ldi	r24, 0xF8	; 248
    7166:	84 dd       	rcall	.-1272   	; 0x6c70 <_ZN8MAX3421eI4TPinI5PortbLh2EES0_IS1_Lh1EEE5regRdEh.isra.2>
    7168:	28 2f       	mov	r18, r24
    716a:	2f 70       	andi	r18, 0x0F	; 15
    716c:	a2 cf       	rjmp	.-188    	; 0x70b2 <_ZN3USB11OutTransferEP6EpInfojjPh+0xba>
    716e:	89 81       	ldd	r24, Y+1	; 0x01
    7170:	8f 5f       	subi	r24, 0xFF	; 255
    7172:	89 83       	std	Y+1, r24	; 0x01
    7174:	83 30       	cpi	r24, 0x03	; 3
    7176:	f9 f6       	brne	.-66     	; 0x7136 <_ZN3USB11OutTransferEP6EpInfojjPh+0x13e>
    7178:	b9 cf       	rjmp	.-142    	; 0x70ec <_ZN3USB11OutTransferEP6EpInfojjPh+0xf4>
    717a:	ce 18       	sub	r12, r14
    717c:	df 08       	sbc	r13, r15
    717e:	0e 0d       	add	r16, r14
    7180:	1f 1d       	adc	r17, r15
    7182:	72 cf       	rjmp	.-284    	; 0x7068 <_ZN3USB11OutTransferEP6EpInfojjPh+0x70>
    7184:	0f 90       	pop	r0
    7186:	0f 90       	pop	r0
    7188:	0f 90       	pop	r0
    718a:	0f 90       	pop	r0
    718c:	0f 90       	pop	r0
    718e:	df 91       	pop	r29
    7190:	cf 91       	pop	r28
    7192:	1f 91       	pop	r17
    7194:	0f 91       	pop	r16
    7196:	ff 90       	pop	r15
    7198:	ef 90       	pop	r14
    719a:	df 90       	pop	r13
    719c:	cf 90       	pop	r12
    719e:	bf 90       	pop	r11
    71a0:	af 90       	pop	r10
    71a2:	9f 90       	pop	r9
    71a4:	8f 90       	pop	r8
    71a6:	7f 90       	pop	r7
    71a8:	6f 90       	pop	r6
    71aa:	5f 90       	pop	r5
    71ac:	4f 90       	pop	r4
    71ae:	3f 90       	pop	r3
    71b0:	2f 90       	pop	r2
    71b2:	08 95       	ret

000071b4 <_ZN3USB11outTransferEhhjPh>:
    71b4:	af 92       	push	r10
    71b6:	bf 92       	push	r11
    71b8:	cf 92       	push	r12
    71ba:	df 92       	push	r13
    71bc:	ef 92       	push	r14
    71be:	ff 92       	push	r15
    71c0:	0f 93       	push	r16
    71c2:	1f 93       	push	r17
    71c4:	cf 93       	push	r28
    71c6:	df 93       	push	r29
    71c8:	00 d0       	rcall	.+0      	; 0x71ca <_ZN3USB11outTransferEhhjPh+0x16>
    71ca:	00 d0       	rcall	.+0      	; 0x71cc <_ZN3USB11outTransferEhhjPh+0x18>
    71cc:	cd b7       	in	r28, 0x3d	; 61
    71ce:	de b7       	in	r29, 0x3e	; 62
    71d0:	7c 01       	movw	r14, r24
    71d2:	69 01       	movw	r12, r18
    71d4:	58 01       	movw	r10, r16
    71d6:	1c 82       	std	Y+4, r1	; 0x04
    71d8:	1b 82       	std	Y+3, r1	; 0x03
    71da:	1a 82       	std	Y+2, r1	; 0x02
    71dc:	19 82       	std	Y+1, r1	; 0x01
    71de:	8e 01       	movw	r16, r28
    71e0:	0f 5f       	subi	r16, 0xFF	; 255
    71e2:	1f 4f       	sbci	r17, 0xFF	; 255
    71e4:	9e 01       	movw	r18, r28
    71e6:	2d 5f       	subi	r18, 0xFD	; 253
    71e8:	3f 4f       	sbci	r19, 0xFF	; 255
    71ea:	74 dd       	rcall	.-1304   	; 0x6cd4 <_ZN3USB10SetAddressEhhPP6EpInfoRj>
    71ec:	81 11       	cpse	r24, r1
    71ee:	08 c0       	rjmp	.+16     	; 0x7200 <_ZN3USB11outTransferEhhjPh+0x4c>
    71f0:	49 81       	ldd	r20, Y+1	; 0x01
    71f2:	5a 81       	ldd	r21, Y+2	; 0x02
    71f4:	6b 81       	ldd	r22, Y+3	; 0x03
    71f6:	7c 81       	ldd	r23, Y+4	; 0x04
    71f8:	85 01       	movw	r16, r10
    71fa:	96 01       	movw	r18, r12
    71fc:	c7 01       	movw	r24, r14
    71fe:	fc de       	rcall	.-520    	; 0x6ff8 <_ZN3USB11OutTransferEP6EpInfojjPh>
    7200:	0f 90       	pop	r0
    7202:	0f 90       	pop	r0
    7204:	0f 90       	pop	r0
    7206:	0f 90       	pop	r0
    7208:	df 91       	pop	r29
    720a:	cf 91       	pop	r28
    720c:	1f 91       	pop	r17
    720e:	0f 91       	pop	r16
    7210:	ff 90       	pop	r15
    7212:	ef 90       	pop	r14
    7214:	df 90       	pop	r13
    7216:	cf 90       	pop	r12
    7218:	bf 90       	pop	r11
    721a:	af 90       	pop	r10
    721c:	08 95       	ret

0000721e <_ZN3USB10InTransferEP6EpInfojPjPh>:
    721e:	2f 92       	push	r2
    7220:	3f 92       	push	r3
    7222:	4f 92       	push	r4
    7224:	5f 92       	push	r5
    7226:	6f 92       	push	r6
    7228:	7f 92       	push	r7
    722a:	8f 92       	push	r8
    722c:	9f 92       	push	r9
    722e:	af 92       	push	r10
    7230:	bf 92       	push	r11
    7232:	cf 92       	push	r12
    7234:	df 92       	push	r13
    7236:	ef 92       	push	r14
    7238:	ff 92       	push	r15
    723a:	0f 93       	push	r16
    723c:	1f 93       	push	r17
    723e:	cf 93       	push	r28
    7240:	df 93       	push	r29
    7242:	00 d0       	rcall	.+0      	; 0x7244 <_ZN3USB10InTransferEP6EpInfojPjPh+0x26>
    7244:	00 d0       	rcall	.+0      	; 0x7246 <_ZN3USB10InTransferEP6EpInfojPjPh+0x28>
    7246:	cd b7       	in	r28, 0x3d	; 61
    7248:	de b7       	in	r29, 0x3e	; 62
    724a:	5c 01       	movw	r10, r24
    724c:	7c 83       	std	Y+4, r23	; 0x04
    724e:	6b 83       	std	Y+3, r22	; 0x03
    7250:	4a 01       	movw	r8, r20
    7252:	79 01       	movw	r14, r18
    7254:	f9 01       	movw	r30, r18
    7256:	c0 80       	ld	r12, Z
    7258:	d1 80       	ldd	r13, Z+1	; 0x01
    725a:	fb 01       	movw	r30, r22
    725c:	41 80       	ldd	r4, Z+1	; 0x01
    725e:	f9 01       	movw	r30, r18
    7260:	11 82       	std	Z+1, r1	; 0x01
    7262:	10 82       	st	Z, r1
    7264:	fb 01       	movw	r30, r22
    7266:	82 81       	ldd	r24, Z+2	; 0x02
    7268:	81 ff       	sbrs	r24, 1
    726a:	02 c0       	rjmp	.+4      	; 0x7270 <_ZN3USB10InTransferEP6EpInfojPjPh+0x52>
    726c:	60 e2       	ldi	r22, 0x20	; 32
    726e:	01 c0       	rjmp	.+2      	; 0x7272 <_ZN3USB10InTransferEP6EpInfojPjPh+0x54>
    7270:	60 e1       	ldi	r22, 0x10	; 16
    7272:	88 ee       	ldi	r24, 0xE8	; 232
    7274:	15 dd       	rcall	.-1494   	; 0x6ca0 <_ZN8MAX3421eI4TPinI5PortbLh2EES0_IS1_Lh1EEE5regWrEhh.isra.3>
    7276:	3c 2c       	mov	r3, r12
    7278:	94 01       	movw	r18, r8
    727a:	eb 81       	ldd	r30, Y+3	; 0x03
    727c:	fc 81       	ldd	r31, Y+4	; 0x04
    727e:	40 81       	ld	r20, Z
    7280:	60 e0       	ldi	r22, 0x00	; 0
    7282:	c5 01       	movw	r24, r10
    7284:	90 dd       	rcall	.-1248   	; 0x6da6 <_ZN3USB11dispatchPktEhhj>
    7286:	58 2e       	mov	r5, r24
    7288:	f6 e0       	ldi	r31, 0x06	; 6
    728a:	8f 13       	cpse	r24, r31
    728c:	15 c0       	rjmp	.+42     	; 0x72b8 <_ZN3USB10InTransferEP6EpInfojPjPh+0x9a>
    728e:	88 ef       	ldi	r24, 0xF8	; 248
    7290:	ef dc       	rcall	.-1570   	; 0x6c70 <_ZN8MAX3421eI4TPinI5PortbLh2EES0_IS1_Lh1EEE5regRdEh.isra.2>
    7292:	85 fb       	bst	r24, 5
    7294:	88 27       	eor	r24, r24
    7296:	80 f9       	bld	r24, 0
    7298:	91 e0       	ldi	r25, 0x01	; 1
    729a:	89 27       	eor	r24, r25
    729c:	eb 81       	ldd	r30, Y+3	; 0x03
    729e:	fc 81       	ldd	r31, Y+4	; 0x04
    72a0:	92 81       	ldd	r25, Z+2	; 0x02
    72a2:	80 fb       	bst	r24, 0
    72a4:	91 f9       	bld	r25, 1
    72a6:	92 83       	std	Z+2, r25	; 0x02
    72a8:	91 ff       	sbrs	r25, 1
    72aa:	02 c0       	rjmp	.+4      	; 0x72b0 <_ZN3USB10InTransferEP6EpInfojPjPh+0x92>
    72ac:	60 e2       	ldi	r22, 0x20	; 32
    72ae:	01 c0       	rjmp	.+2      	; 0x72b2 <_ZN3USB10InTransferEP6EpInfojPjPh+0x94>
    72b0:	60 e1       	ldi	r22, 0x10	; 16
    72b2:	88 ee       	ldi	r24, 0xE8	; 232
    72b4:	f5 dc       	rcall	.-1558   	; 0x6ca0 <_ZN8MAX3421eI4TPinI5PortbLh2EES0_IS1_Lh1EEE5regWrEhh.isra.3>
    72b6:	e0 cf       	rjmp	.-64     	; 0x7278 <_ZN3USB10InTransferEP6EpInfojPjPh+0x5a>
    72b8:	81 11       	cpse	r24, r1
    72ba:	56 c0       	rjmp	.+172    	; 0x7368 <_ZN3USB10InTransferEP6EpInfojPjPh+0x14a>
    72bc:	88 ec       	ldi	r24, 0xC8	; 200
    72be:	d8 dc       	rcall	.-1616   	; 0x6c70 <_ZN8MAX3421eI4TPinI5PortbLh2EES0_IS1_Lh1EEE5regRdEh.isra.2>
    72c0:	82 ff       	sbrs	r24, 2
    72c2:	50 c0       	rjmp	.+160    	; 0x7364 <_ZN3USB10InTransferEP6EpInfojPjPh+0x146>
    72c4:	80 e3       	ldi	r24, 0x30	; 48
    72c6:	d4 dc       	rcall	.-1624   	; 0x6c70 <_ZN8MAX3421eI4TPinI5PortbLh2EES0_IS1_Lh1EEE5regRdEh.isra.2>
    72c8:	28 2e       	mov	r2, r24
    72ca:	28 2f       	mov	r18, r24
    72cc:	30 e0       	ldi	r19, 0x00	; 0
    72ce:	c2 16       	cp	r12, r18
    72d0:	d3 06       	cpc	r13, r19
    72d2:	08 f4       	brcc	.+2      	; 0x72d6 <_ZN3USB10InTransferEP6EpInfojPjPh+0xb8>
    72d4:	23 2c       	mov	r2, r3
    72d6:	f7 01       	movw	r30, r14
    72d8:	20 81       	ld	r18, Z
    72da:	31 81       	ldd	r19, Z+1	; 0x01
    72dc:	62 2c       	mov	r6, r2
    72de:	71 2c       	mov	r7, r1
    72e0:	a6 01       	movw	r20, r12
    72e2:	42 1b       	sub	r20, r18
    72e4:	53 0b       	sbc	r21, r19
    72e6:	57 ff       	sbrs	r21, 7
    72e8:	02 c0       	rjmp	.+4      	; 0x72ee <_ZN3USB10InTransferEP6EpInfojPjPh+0xd0>
    72ea:	40 e0       	ldi	r20, 0x00	; 0
    72ec:	50 e0       	ldi	r21, 0x00	; 0
    72ee:	93 01       	movw	r18, r6
    72f0:	46 15       	cp	r20, r6
    72f2:	57 05       	cpc	r21, r7
    72f4:	0c f4       	brge	.+2      	; 0x72f8 <_ZN3USB10InTransferEP6EpInfojPjPh+0xda>
    72f6:	9a 01       	movw	r18, r20
    72f8:	29 83       	std	Y+1, r18	; 0x01
    72fa:	3a 83       	std	Y+2, r19	; 0x02
    72fc:	0e 94 3b 0f 	call	0x1e76	; 0x1e76 <_ZN4TPinI5PortbLh2EE5ClearEv>
    7300:	f8 e0       	ldi	r31, 0x08	; 8
    7302:	fe bd       	out	0x2e, r31	; 46
    7304:	3a 81       	ldd	r19, Y+2	; 0x02
    7306:	29 81       	ldd	r18, Y+1	; 0x01
    7308:	0d b4       	in	r0, 0x2d	; 45
    730a:	07 fe       	sbrs	r0, 7
    730c:	fd cf       	rjmp	.-6      	; 0x7308 <_ZN3USB10InTransferEP6EpInfojPjPh+0xea>
    730e:	f8 01       	movw	r30, r16
    7310:	82 2f       	mov	r24, r18
    7312:	80 0f       	add	r24, r16
    7314:	8e 17       	cp	r24, r30
    7316:	39 f0       	breq	.+14     	; 0x7326 <_ZN3USB10InTransferEP6EpInfojPjPh+0x108>
    7318:	1e bc       	out	0x2e, r1	; 46
    731a:	0d b4       	in	r0, 0x2d	; 45
    731c:	07 fe       	sbrs	r0, 7
    731e:	fd cf       	rjmp	.-6      	; 0x731a <_ZN3USB10InTransferEP6EpInfojPjPh+0xfc>
    7320:	4e b5       	in	r20, 0x2e	; 46
    7322:	41 93       	st	Z+, r20
    7324:	f7 cf       	rjmp	.-18     	; 0x7314 <_ZN3USB10InTransferEP6EpInfojPjPh+0xf6>
    7326:	02 0f       	add	r16, r18
    7328:	13 1f       	adc	r17, r19
    732a:	0e 94 e0 0d 	call	0x1bc0	; 0x1bc0 <_ZN4TPinI5PortbLh2EE3SetEv>
    732e:	64 e0       	ldi	r22, 0x04	; 4
    7330:	88 ec       	ldi	r24, 0xC8	; 200
    7332:	b6 dc       	rcall	.-1684   	; 0x6ca0 <_ZN8MAX3421eI4TPinI5PortbLh2EES0_IS1_Lh1EEE5regWrEhh.isra.3>
    7334:	f7 01       	movw	r30, r14
    7336:	20 81       	ld	r18, Z
    7338:	31 81       	ldd	r19, Z+1	; 0x01
    733a:	26 0d       	add	r18, r6
    733c:	37 1d       	adc	r19, r7
    733e:	31 83       	std	Z+1, r19	; 0x01
    7340:	20 83       	st	Z, r18
    7342:	24 14       	cp	r2, r4
    7344:	20 f0       	brcs	.+8      	; 0x734e <_ZN3USB10InTransferEP6EpInfojPjPh+0x130>
    7346:	2c 15       	cp	r18, r12
    7348:	3d 05       	cpc	r19, r13
    734a:	08 f4       	brcc	.+2      	; 0x734e <_ZN3USB10InTransferEP6EpInfojPjPh+0x130>
    734c:	95 cf       	rjmp	.-214    	; 0x7278 <_ZN3USB10InTransferEP6EpInfojPjPh+0x5a>
    734e:	88 ef       	ldi	r24, 0xF8	; 248
    7350:	8f dc       	rcall	.-1762   	; 0x6c70 <_ZN8MAX3421eI4TPinI5PortbLh2EES0_IS1_Lh1EEE5regRdEh.isra.2>
    7352:	82 95       	swap	r24
    7354:	81 70       	andi	r24, 0x01	; 1
    7356:	eb 81       	ldd	r30, Y+3	; 0x03
    7358:	fc 81       	ldd	r31, Y+4	; 0x04
    735a:	92 81       	ldd	r25, Z+2	; 0x02
    735c:	80 fb       	bst	r24, 0
    735e:	91 f9       	bld	r25, 1
    7360:	92 83       	std	Z+2, r25	; 0x02
    7362:	02 c0       	rjmp	.+4      	; 0x7368 <_ZN3USB10InTransferEP6EpInfojPjPh+0x14a>
    7364:	30 ef       	ldi	r19, 0xF0	; 240
    7366:	53 2e       	mov	r5, r19
    7368:	85 2d       	mov	r24, r5
    736a:	0f 90       	pop	r0
    736c:	0f 90       	pop	r0
    736e:	0f 90       	pop	r0
    7370:	0f 90       	pop	r0
    7372:	df 91       	pop	r29
    7374:	cf 91       	pop	r28
    7376:	1f 91       	pop	r17
    7378:	0f 91       	pop	r16
    737a:	ff 90       	pop	r15
    737c:	ef 90       	pop	r14
    737e:	df 90       	pop	r13
    7380:	cf 90       	pop	r12
    7382:	bf 90       	pop	r11
    7384:	af 90       	pop	r10
    7386:	9f 90       	pop	r9
    7388:	8f 90       	pop	r8
    738a:	7f 90       	pop	r7
    738c:	6f 90       	pop	r6
    738e:	5f 90       	pop	r5
    7390:	4f 90       	pop	r4
    7392:	3f 90       	pop	r3
    7394:	2f 90       	pop	r2
    7396:	08 95       	ret

00007398 <_ZN3USB7ctrlReqEhhhhhhjjjPhP13USBReadParser>:
    7398:	2f 92       	push	r2
    739a:	3f 92       	push	r3
    739c:	4f 92       	push	r4
    739e:	5f 92       	push	r5
    73a0:	6f 92       	push	r6
    73a2:	7f 92       	push	r7
    73a4:	8f 92       	push	r8
    73a6:	9f 92       	push	r9
    73a8:	af 92       	push	r10
    73aa:	bf 92       	push	r11
    73ac:	cf 92       	push	r12
    73ae:	df 92       	push	r13
    73b0:	ef 92       	push	r14
    73b2:	ff 92       	push	r15
    73b4:	0f 93       	push	r16
    73b6:	1f 93       	push	r17
    73b8:	cf 93       	push	r28
    73ba:	df 93       	push	r29
    73bc:	cd b7       	in	r28, 0x3d	; 61
    73be:	de b7       	in	r29, 0x3e	; 62
    73c0:	62 97       	sbiw	r28, 0x12	; 18
    73c2:	0f b6       	in	r0, 0x3f	; 63
    73c4:	f8 94       	cli
    73c6:	de bf       	out	0x3e, r29	; 62
    73c8:	0f be       	out	0x3f, r0	; 63
    73ca:	cd bf       	out	0x3d, r28	; 61
    73cc:	3c 01       	movw	r6, r24
    73ce:	54 2e       	mov	r5, r20
    73d0:	d2 2e       	mov	r13, r18
    73d2:	40 2e       	mov	r4, r16
    73d4:	5e 2d       	mov	r21, r14
    73d6:	2f a0       	ldd	r2, Y+39	; 0x27
    73d8:	38 a4       	ldd	r3, Y+40	; 0x28
    73da:	e9 a4       	ldd	r14, Y+41	; 0x29
    73dc:	fa a4       	ldd	r15, Y+42	; 0x2a
    73de:	18 8a       	std	Y+16, r1	; 0x10
    73e0:	1f 86       	std	Y+15, r1	; 0x0f
    73e2:	1e 86       	std	Y+14, r1	; 0x0e
    73e4:	1d 86       	std	Y+13, r1	; 0x0d
    73e6:	8e 01       	movw	r16, r28
    73e8:	03 5f       	subi	r16, 0xF3	; 243
    73ea:	1f 4f       	sbci	r17, 0xFF	; 255
    73ec:	9e 01       	movw	r18, r28
    73ee:	21 5f       	subi	r18, 0xF1	; 241
    73f0:	3f 4f       	sbci	r19, 0xFF	; 255
    73f2:	59 8b       	std	Y+17, r21	; 0x11
    73f4:	6f dc       	rcall	.-1826   	; 0x6cd4 <_ZN3USB10SetAddressEhhPP6EpInfoRj>
    73f6:	59 89       	ldd	r21, Y+17	; 0x11
    73f8:	81 11       	cpse	r24, r1
    73fa:	8d c0       	rjmp	.+282    	; 0x7516 <_ZN3USB7ctrlReqEhhhhhhjjjPhP13USBReadParser+0x17e>
    73fc:	d9 82       	std	Y+1, r13	; 0x01
    73fe:	4a 82       	std	Y+2, r4	; 0x02
    7400:	5b 83       	std	Y+3, r21	; 0x03
    7402:	cc 82       	std	Y+4, r12	; 0x04
    7404:	be 82       	std	Y+6, r11	; 0x06
    7406:	ad 82       	std	Y+5, r10	; 0x05
    7408:	98 86       	std	Y+8, r9	; 0x08
    740a:	8f 82       	std	Y+7, r8	; 0x07
    740c:	ae 01       	movw	r20, r28
    740e:	4f 5f       	subi	r20, 0xFF	; 255
    7410:	5f 4f       	sbci	r21, 0xFF	; 255
    7412:	68 e0       	ldi	r22, 0x08	; 8
    7414:	80 e2       	ldi	r24, 0x20	; 32
    7416:	c6 dd       	rcall	.-1140   	; 0x6fa4 <_ZN8MAX3421eI4TPinI5PortbLh2EES0_IS1_Lh1EEE7bytesWrEhhPh.isra.4>
    7418:	2d 85       	ldd	r18, Y+13	; 0x0d
    741a:	3e 85       	ldd	r19, Y+14	; 0x0e
    741c:	45 2d       	mov	r20, r5
    741e:	60 e1       	ldi	r22, 0x10	; 16
    7420:	c3 01       	movw	r24, r6
    7422:	c1 dc       	rcall	.-1662   	; 0x6da6 <_ZN3USB11dispatchPktEhhj>
    7424:	18 2f       	mov	r17, r24
    7426:	81 11       	cpse	r24, r1
    7428:	75 c0       	rjmp	.+234    	; 0x7514 <_ZN3USB7ctrlReqEhhhhhhjjjPhP13USBReadParser+0x17c>
    742a:	bd 2c       	mov	r11, r13
    742c:	bb 1c       	adc	r11, r11
    742e:	bb 24       	eor	r11, r11
    7430:	bb 1c       	adc	r11, r11
    7432:	e1 14       	cp	r14, r1
    7434:	f1 04       	cpc	r15, r1
    7436:	09 f4       	brne	.+2      	; 0x743a <_ZN3USB7ctrlReqEhhhhhhjjjPhP13USBReadParser+0xa2>
    7438:	62 c0       	rjmp	.+196    	; 0x74fe <_ZN3USB7ctrlReqEhhhhhhjjjPhP13USBReadParser+0x166>
    743a:	ef 85       	ldd	r30, Y+15	; 0x0f
    743c:	f8 89       	ldd	r31, Y+16	; 0x10
    743e:	82 81       	ldd	r24, Z+2	; 0x02
    7440:	bb 20       	and	r11, r11
    7442:	09 f4       	brne	.+2      	; 0x7446 <_ZN3USB7ctrlReqEhhhhhhjjjPhP13USBReadParser+0xae>
    7444:	50 c0       	rjmp	.+160    	; 0x74e6 <_ZN3USB7ctrlReqEhhhhhhjjjPhP13USBReadParser+0x14e>
    7446:	82 60       	ori	r24, 0x02	; 2
    7448:	82 83       	std	Z+2, r24	; 0x02
    744a:	64 01       	movw	r12, r8
    744c:	aa 24       	eor	r10, r10
    744e:	a3 94       	inc	r10
    7450:	c1 14       	cp	r12, r1
    7452:	d1 04       	cpc	r13, r1
    7454:	09 f4       	brne	.+2      	; 0x7458 <_ZN3USB7ctrlReqEhhhhhhjjjPhP13USBReadParser+0xc0>
    7456:	51 c0       	rjmp	.+162    	; 0x74fa <_ZN3USB7ctrlReqEhhhhhhjjjPhP13USBReadParser+0x162>
    7458:	3c 86       	std	Y+12, r3	; 0x0c
    745a:	2b 86       	std	Y+11, r2	; 0x0b
    745c:	4d 85       	ldd	r20, Y+13	; 0x0d
    745e:	5e 85       	ldd	r21, Y+14	; 0x0e
    7460:	6f 85       	ldd	r22, Y+15	; 0x0f
    7462:	78 89       	ldd	r23, Y+16	; 0x10
    7464:	87 01       	movw	r16, r14
    7466:	9e 01       	movw	r18, r28
    7468:	25 5f       	subi	r18, 0xF5	; 245
    746a:	3f 4f       	sbci	r19, 0xFF	; 255
    746c:	c3 01       	movw	r24, r6
    746e:	d7 de       	rcall	.-594    	; 0x721e <_ZN3USB10InTransferEP6EpInfojPjPh>
    7470:	18 2f       	mov	r17, r24
    7472:	86 30       	cpi	r24, 0x06	; 6
    7474:	a9 f4       	brne	.+42     	; 0x74a0 <_ZN3USB7ctrlReqEhhhhhhjjjPhP13USBReadParser+0x108>
    7476:	2f 85       	ldd	r18, Y+15	; 0x0f
    7478:	38 89       	ldd	r19, Y+16	; 0x10
    747a:	88 ef       	ldi	r24, 0xF8	; 248
    747c:	29 8b       	std	Y+17, r18	; 0x11
    747e:	3a 8b       	std	Y+18, r19	; 0x12
    7480:	f7 db       	rcall	.-2066   	; 0x6c70 <_ZN8MAX3421eI4TPinI5PortbLh2EES0_IS1_Lh1EEE5regRdEh.isra.2>
    7482:	85 fb       	bst	r24, 5
    7484:	88 27       	eor	r24, r24
    7486:	80 f9       	bld	r24, 0
    7488:	8a 25       	eor	r24, r10
    748a:	29 89       	ldd	r18, Y+17	; 0x11
    748c:	3a 89       	ldd	r19, Y+18	; 0x12
    748e:	d9 01       	movw	r26, r18
    7490:	12 96       	adiw	r26, 0x02	; 2
    7492:	9c 91       	ld	r25, X
    7494:	12 97       	sbiw	r26, 0x02	; 2
    7496:	80 fb       	bst	r24, 0
    7498:	91 f9       	bld	r25, 1
    749a:	12 96       	adiw	r26, 0x02	; 2
    749c:	9c 93       	st	X, r25
    749e:	d8 cf       	rjmp	.-80     	; 0x7450 <_ZN3USB7ctrlReqEhhhhhhjjjPhP13USBReadParser+0xb8>
    74a0:	81 11       	cpse	r24, r1
    74a2:	38 c0       	rjmp	.+112    	; 0x7514 <_ZN3USB7ctrlReqEhhhhhhjjjPhP13USBReadParser+0x17c>
    74a4:	eb a5       	ldd	r30, Y+43	; 0x2b
    74a6:	fc a5       	ldd	r31, Y+44	; 0x2c
    74a8:	30 97       	sbiw	r30, 0x00	; 0
    74aa:	a1 f0       	breq	.+40     	; 0x74d4 <_ZN3USB7ctrlReqEhhhhhhjjjPhP13USBReadParser+0x13c>
    74ac:	01 90       	ld	r0, Z+
    74ae:	f0 81       	ld	r31, Z
    74b0:	e0 2d       	mov	r30, r0
    74b2:	01 90       	ld	r0, Z+
    74b4:	f0 81       	ld	r31, Z
    74b6:	e0 2d       	mov	r30, r0
    74b8:	c4 01       	movw	r24, r8
    74ba:	8c 19       	sub	r24, r12
    74bc:	9d 09       	sbc	r25, r13
    74be:	9a 87       	std	Y+10, r25	; 0x0a
    74c0:	89 87       	std	Y+9, r24	; 0x09
    74c2:	6b 85       	ldd	r22, Y+11	; 0x0b
    74c4:	7c 85       	ldd	r23, Y+12	; 0x0c
    74c6:	9e 01       	movw	r18, r28
    74c8:	27 5f       	subi	r18, 0xF7	; 247
    74ca:	3f 4f       	sbci	r19, 0xFF	; 255
    74cc:	a7 01       	movw	r20, r14
    74ce:	8b a5       	ldd	r24, Y+43	; 0x2b
    74d0:	9c a5       	ldd	r25, Y+44	; 0x2c
    74d2:	09 95       	icall
    74d4:	8b 85       	ldd	r24, Y+11	; 0x0b
    74d6:	9c 85       	ldd	r25, Y+12	; 0x0c
    74d8:	c8 1a       	sub	r12, r24
    74da:	d9 0a       	sbc	r13, r25
    74dc:	82 15       	cp	r24, r2
    74de:	93 05       	cpc	r25, r3
    74e0:	08 f0       	brcs	.+2      	; 0x74e4 <_ZN3USB7ctrlReqEhhhhhhjjjPhP13USBReadParser+0x14c>
    74e2:	b6 cf       	rjmp	.-148    	; 0x7450 <_ZN3USB7ctrlReqEhhhhhhjjjPhP13USBReadParser+0xb8>
    74e4:	0c c0       	rjmp	.+24     	; 0x74fe <_ZN3USB7ctrlReqEhhhhhhjjjPhP13USBReadParser+0x166>
    74e6:	81 60       	ori	r24, 0x01	; 1
    74e8:	82 83       	std	Z+2, r24	; 0x02
    74ea:	4d 85       	ldd	r20, Y+13	; 0x0d
    74ec:	5e 85       	ldd	r21, Y+14	; 0x0e
    74ee:	87 01       	movw	r16, r14
    74f0:	91 01       	movw	r18, r2
    74f2:	bf 01       	movw	r22, r30
    74f4:	c3 01       	movw	r24, r6
    74f6:	80 dd       	rcall	.-1280   	; 0x6ff8 <_ZN3USB11OutTransferEP6EpInfojjPh>
    74f8:	18 2f       	mov	r17, r24
    74fa:	11 11       	cpse	r17, r1
    74fc:	0b c0       	rjmp	.+22     	; 0x7514 <_ZN3USB7ctrlReqEhhhhhhjjjPhP13USBReadParser+0x17c>
    74fe:	2d 85       	ldd	r18, Y+13	; 0x0d
    7500:	3e 85       	ldd	r19, Y+14	; 0x0e
    7502:	bb 20       	and	r11, r11
    7504:	11 f0       	breq	.+4      	; 0x750a <_ZN3USB7ctrlReqEhhhhhhjjjPhP13USBReadParser+0x172>
    7506:	60 ea       	ldi	r22, 0xA0	; 160
    7508:	01 c0       	rjmp	.+2      	; 0x750c <_ZN3USB7ctrlReqEhhhhhhjjjPhP13USBReadParser+0x174>
    750a:	60 e8       	ldi	r22, 0x80	; 128
    750c:	45 2d       	mov	r20, r5
    750e:	c3 01       	movw	r24, r6
    7510:	4a dc       	rcall	.-1900   	; 0x6da6 <_ZN3USB11dispatchPktEhhj>
    7512:	01 c0       	rjmp	.+2      	; 0x7516 <_ZN3USB7ctrlReqEhhhhhhjjjPhP13USBReadParser+0x17e>
    7514:	81 2f       	mov	r24, r17
    7516:	62 96       	adiw	r28, 0x12	; 18
    7518:	0f b6       	in	r0, 0x3f	; 63
    751a:	f8 94       	cli
    751c:	de bf       	out	0x3e, r29	; 62
    751e:	0f be       	out	0x3f, r0	; 63
    7520:	cd bf       	out	0x3d, r28	; 61
    7522:	df 91       	pop	r29
    7524:	cf 91       	pop	r28
    7526:	1f 91       	pop	r17
    7528:	0f 91       	pop	r16
    752a:	ff 90       	pop	r15
    752c:	ef 90       	pop	r14
    752e:	df 90       	pop	r13
    7530:	cf 90       	pop	r12
    7532:	bf 90       	pop	r11
    7534:	af 90       	pop	r10
    7536:	9f 90       	pop	r9
    7538:	8f 90       	pop	r8
    753a:	7f 90       	pop	r7
    753c:	6f 90       	pop	r6
    753e:	5f 90       	pop	r5
    7540:	4f 90       	pop	r4
    7542:	3f 90       	pop	r3
    7544:	2f 90       	pop	r2
    7546:	08 95       	ret

00007548 <_ZN3USB11getDevDescrEhhjPh>:
    7548:	8f 92       	push	r8
    754a:	9f 92       	push	r9
    754c:	af 92       	push	r10
    754e:	bf 92       	push	r11
    7550:	cf 92       	push	r12
    7552:	ef 92       	push	r14
    7554:	0f 93       	push	r16
    7556:	1f 93       	push	r17
    7558:	1f 92       	push	r1
    755a:	1f 92       	push	r1
    755c:	1f 93       	push	r17
    755e:	0f 93       	push	r16
    7560:	3f 93       	push	r19
    7562:	2f 93       	push	r18
    7564:	49 01       	movw	r8, r18
    7566:	a1 2c       	mov	r10, r1
    7568:	b1 2c       	mov	r11, r1
    756a:	cc 24       	eor	r12, r12
    756c:	c3 94       	inc	r12
    756e:	e1 2c       	mov	r14, r1
    7570:	06 e0       	ldi	r16, 0x06	; 6
    7572:	20 e8       	ldi	r18, 0x80	; 128
    7574:	11 df       	rcall	.-478    	; 0x7398 <_ZN3USB7ctrlReqEhhhhhhjjjPhP13USBReadParser>
    7576:	0f 90       	pop	r0
    7578:	0f 90       	pop	r0
    757a:	0f 90       	pop	r0
    757c:	0f 90       	pop	r0
    757e:	0f 90       	pop	r0
    7580:	0f 90       	pop	r0
    7582:	1f 91       	pop	r17
    7584:	0f 91       	pop	r16
    7586:	ef 90       	pop	r14
    7588:	cf 90       	pop	r12
    758a:	bf 90       	pop	r11
    758c:	af 90       	pop	r10
    758e:	9f 90       	pop	r9
    7590:	8f 90       	pop	r8
    7592:	08 95       	ret

00007594 <_ZN3USB12getConfDescrEhhjhPh>:
    7594:	8f 92       	push	r8
    7596:	9f 92       	push	r9
    7598:	af 92       	push	r10
    759a:	bf 92       	push	r11
    759c:	cf 92       	push	r12
    759e:	ef 92       	push	r14
    75a0:	ff 92       	push	r15
    75a2:	0f 93       	push	r16
    75a4:	1f 92       	push	r1
    75a6:	1f 92       	push	r1
    75a8:	ff 92       	push	r15
    75aa:	ef 92       	push	r14
    75ac:	3f 93       	push	r19
    75ae:	2f 93       	push	r18
    75b0:	49 01       	movw	r8, r18
    75b2:	a1 2c       	mov	r10, r1
    75b4:	b1 2c       	mov	r11, r1
    75b6:	52 e0       	ldi	r21, 0x02	; 2
    75b8:	c5 2e       	mov	r12, r21
    75ba:	e0 2e       	mov	r14, r16
    75bc:	06 e0       	ldi	r16, 0x06	; 6
    75be:	20 e8       	ldi	r18, 0x80	; 128
    75c0:	eb de       	rcall	.-554    	; 0x7398 <_ZN3USB7ctrlReqEhhhhhhjjjPhP13USBReadParser>
    75c2:	0f 90       	pop	r0
    75c4:	0f 90       	pop	r0
    75c6:	0f 90       	pop	r0
    75c8:	0f 90       	pop	r0
    75ca:	0f 90       	pop	r0
    75cc:	0f 90       	pop	r0
    75ce:	0f 91       	pop	r16
    75d0:	ff 90       	pop	r15
    75d2:	ef 90       	pop	r14
    75d4:	cf 90       	pop	r12
    75d6:	bf 90       	pop	r11
    75d8:	af 90       	pop	r10
    75da:	9f 90       	pop	r9
    75dc:	8f 90       	pop	r8
    75de:	08 95       	ret

000075e0 <_ZN3USB7setAddrEhhh>:
    75e0:	8f 92       	push	r8
    75e2:	9f 92       	push	r9
    75e4:	af 92       	push	r10
    75e6:	bf 92       	push	r11
    75e8:	cf 92       	push	r12
    75ea:	ef 92       	push	r14
    75ec:	0f 93       	push	r16
    75ee:	cf 93       	push	r28
    75f0:	1f 92       	push	r1
    75f2:	1f 92       	push	r1
    75f4:	1f 92       	push	r1
    75f6:	1f 92       	push	r1
    75f8:	1f 92       	push	r1
    75fa:	1f 92       	push	r1
    75fc:	81 2c       	mov	r8, r1
    75fe:	91 2c       	mov	r9, r1
    7600:	a1 2c       	mov	r10, r1
    7602:	b1 2c       	mov	r11, r1
    7604:	c1 2c       	mov	r12, r1
    7606:	e2 2e       	mov	r14, r18
    7608:	05 e0       	ldi	r16, 0x05	; 5
    760a:	20 e0       	ldi	r18, 0x00	; 0
    760c:	c5 de       	rcall	.-630    	; 0x7398 <_ZN3USB7ctrlReqEhhhhhhjjjPhP13USBReadParser>
    760e:	c8 2f       	mov	r28, r24
    7610:	6c e2       	ldi	r22, 0x2C	; 44
    7612:	71 e0       	ldi	r23, 0x01	; 1
    7614:	80 e0       	ldi	r24, 0x00	; 0
    7616:	90 e0       	ldi	r25, 0x00	; 0
    7618:	0e 94 d2 2c 	call	0x59a4	; 0x59a4 <delay>
    761c:	0f 90       	pop	r0
    761e:	0f 90       	pop	r0
    7620:	0f 90       	pop	r0
    7622:	0f 90       	pop	r0
    7624:	0f 90       	pop	r0
    7626:	0f 90       	pop	r0
    7628:	8c 2f       	mov	r24, r28
    762a:	cf 91       	pop	r28
    762c:	0f 91       	pop	r16
    762e:	ef 90       	pop	r14
    7630:	cf 90       	pop	r12
    7632:	bf 90       	pop	r11
    7634:	af 90       	pop	r10
    7636:	9f 90       	pop	r9
    7638:	8f 90       	pop	r8
    763a:	08 95       	ret

0000763c <_ZN3USB7setConfEhhh>:
    763c:	8f 92       	push	r8
    763e:	9f 92       	push	r9
    7640:	af 92       	push	r10
    7642:	bf 92       	push	r11
    7644:	cf 92       	push	r12
    7646:	ef 92       	push	r14
    7648:	0f 93       	push	r16
    764a:	1f 92       	push	r1
    764c:	1f 92       	push	r1
    764e:	1f 92       	push	r1
    7650:	1f 92       	push	r1
    7652:	1f 92       	push	r1
    7654:	1f 92       	push	r1
    7656:	81 2c       	mov	r8, r1
    7658:	91 2c       	mov	r9, r1
    765a:	a1 2c       	mov	r10, r1
    765c:	b1 2c       	mov	r11, r1
    765e:	c1 2c       	mov	r12, r1
    7660:	e2 2e       	mov	r14, r18
    7662:	09 e0       	ldi	r16, 0x09	; 9
    7664:	20 e0       	ldi	r18, 0x00	; 0
    7666:	98 de       	rcall	.-720    	; 0x7398 <_ZN3USB7ctrlReqEhhhhhhjjjPhP13USBReadParser>
    7668:	0f 90       	pop	r0
    766a:	0f 90       	pop	r0
    766c:	0f 90       	pop	r0
    766e:	0f 90       	pop	r0
    7670:	0f 90       	pop	r0
    7672:	0f 90       	pop	r0
    7674:	0f 91       	pop	r16
    7676:	ef 90       	pop	r14
    7678:	cf 90       	pop	r12
    767a:	bf 90       	pop	r11
    767c:	af 90       	pop	r10
    767e:	9f 90       	pop	r9
    7680:	8f 90       	pop	r8
    7682:	08 95       	ret

00007684 <_Z8PrintHexIhEvT_i>:
    7684:	1f 93       	push	r17
    7686:	cf 93       	push	r28
    7688:	df 93       	push	r29
    768a:	18 2f       	mov	r17, r24
    768c:	eb 01       	movw	r28, r22
    768e:	28 2f       	mov	r18, r24
    7690:	30 e0       	ldi	r19, 0x00	; 0
    7692:	e4 e0       	ldi	r30, 0x04	; 4
    7694:	35 95       	asr	r19
    7696:	27 95       	ror	r18
    7698:	ea 95       	dec	r30
    769a:	e1 f7       	brne	.-8      	; 0x7694 <_Z8PrintHexIhEvT_i+0x10>
    769c:	80 e3       	ldi	r24, 0x30	; 48
    769e:	82 0f       	add	r24, r18
    76a0:	8a 33       	cpi	r24, 0x3A	; 58
    76a2:	10 f0       	brcs	.+4      	; 0x76a8 <_Z8PrintHexIhEvT_i+0x24>
    76a4:	87 e3       	ldi	r24, 0x37	; 55
    76a6:	82 0f       	add	r24, r18
    76a8:	be 01       	movw	r22, r28
    76aa:	03 d3       	rcall	.+1542   	; 0x7cb2 <_Z9E_Notifycci>
    76ac:	1f 70       	andi	r17, 0x0F	; 15
    76ae:	80 e3       	ldi	r24, 0x30	; 48
    76b0:	81 0f       	add	r24, r17
    76b2:	8a 33       	cpi	r24, 0x3A	; 58
    76b4:	10 f0       	brcs	.+4      	; 0x76ba <_Z8PrintHexIhEvT_i+0x36>
    76b6:	87 e3       	ldi	r24, 0x37	; 55
    76b8:	81 0f       	add	r24, r17
    76ba:	be 01       	movw	r22, r28
    76bc:	df 91       	pop	r29
    76be:	cf 91       	pop	r28
    76c0:	1f 91       	pop	r17
    76c2:	f7 c2       	rjmp	.+1518   	; 0x7cb2 <_Z9E_Notifycci>

000076c4 <_ZN3USB10inTransferEhhPjPh>:
    76c4:	8f 92       	push	r8
    76c6:	9f 92       	push	r9
    76c8:	af 92       	push	r10
    76ca:	bf 92       	push	r11
    76cc:	cf 92       	push	r12
    76ce:	df 92       	push	r13
    76d0:	ef 92       	push	r14
    76d2:	ff 92       	push	r15
    76d4:	0f 93       	push	r16
    76d6:	1f 93       	push	r17
    76d8:	cf 93       	push	r28
    76da:	df 93       	push	r29
    76dc:	00 d0       	rcall	.+0      	; 0x76de <_ZN3USB10inTransferEhhPjPh+0x1a>
    76de:	00 d0       	rcall	.+0      	; 0x76e0 <_ZN3USB10inTransferEhhPjPh+0x1c>
    76e0:	cd b7       	in	r28, 0x3d	; 61
    76e2:	de b7       	in	r29, 0x3e	; 62
    76e4:	7c 01       	movw	r14, r24
    76e6:	86 2e       	mov	r8, r22
    76e8:	94 2e       	mov	r9, r20
    76ea:	69 01       	movw	r12, r18
    76ec:	58 01       	movw	r10, r16
    76ee:	1c 82       	std	Y+4, r1	; 0x04
    76f0:	1b 82       	std	Y+3, r1	; 0x03
    76f2:	1a 82       	std	Y+2, r1	; 0x02
    76f4:	19 82       	std	Y+1, r1	; 0x01
    76f6:	8e 01       	movw	r16, r28
    76f8:	0f 5f       	subi	r16, 0xFF	; 255
    76fa:	1f 4f       	sbci	r17, 0xFF	; 255
    76fc:	9e 01       	movw	r18, r28
    76fe:	2d 5f       	subi	r18, 0xFD	; 253
    7700:	3f 4f       	sbci	r19, 0xFF	; 255
    7702:	e8 da       	rcall	.-2608   	; 0x6cd4 <_ZN3USB10SetAddressEhhPP6EpInfoRj>
    7704:	18 2f       	mov	r17, r24
    7706:	88 23       	and	r24, r24
    7708:	61 f1       	breq	.+88     	; 0x7762 <_ZN3USB10inTransferEhhPjPh+0x9e>
    770a:	61 e8       	ldi	r22, 0x81	; 129
    770c:	70 e0       	ldi	r23, 0x00	; 0
    770e:	85 e9       	ldi	r24, 0x95	; 149
    7710:	93 e0       	ldi	r25, 0x03	; 3
    7712:	dc d2       	rcall	.+1464   	; 0x7ccc <_Z8E_NotifyPKci>
    7714:	61 e8       	ldi	r22, 0x81	; 129
    7716:	70 e0       	ldi	r23, 0x00	; 0
    7718:	81 2f       	mov	r24, r17
    771a:	b4 df       	rcall	.-152    	; 0x7684 <_Z8PrintHexIhEvT_i>
    771c:	61 e8       	ldi	r22, 0x81	; 129
    771e:	70 e0       	ldi	r23, 0x00	; 0
    7720:	82 e9       	ldi	r24, 0x92	; 146
    7722:	93 e0       	ldi	r25, 0x03	; 3
    7724:	d3 d2       	rcall	.+1446   	; 0x7ccc <_Z8E_NotifyPKci>
    7726:	61 e8       	ldi	r22, 0x81	; 129
    7728:	70 e0       	ldi	r23, 0x00	; 0
    772a:	80 e7       	ldi	r24, 0x70	; 112
    772c:	93 e0       	ldi	r25, 0x03	; 3
    772e:	ce d2       	rcall	.+1436   	; 0x7ccc <_Z8E_NotifyPKci>
    7730:	61 e8       	ldi	r22, 0x81	; 129
    7732:	70 e0       	ldi	r23, 0x00	; 0
    7734:	88 2d       	mov	r24, r8
    7736:	a6 df       	rcall	.-180    	; 0x7684 <_Z8PrintHexIhEvT_i>
    7738:	61 e8       	ldi	r22, 0x81	; 129
    773a:	70 e0       	ldi	r23, 0x00	; 0
    773c:	8d e6       	ldi	r24, 0x6D	; 109
    773e:	93 e0       	ldi	r25, 0x03	; 3
    7740:	c5 d2       	rcall	.+1418   	; 0x7ccc <_Z8E_NotifyPKci>
    7742:	61 e8       	ldi	r22, 0x81	; 129
    7744:	70 e0       	ldi	r23, 0x00	; 0
    7746:	8d e4       	ldi	r24, 0x4D	; 77
    7748:	93 e0       	ldi	r25, 0x03	; 3
    774a:	c0 d2       	rcall	.+1408   	; 0x7ccc <_Z8E_NotifyPKci>
    774c:	61 e8       	ldi	r22, 0x81	; 129
    774e:	70 e0       	ldi	r23, 0x00	; 0
    7750:	89 2d       	mov	r24, r9
    7752:	98 df       	rcall	.-208    	; 0x7684 <_Z8PrintHexIhEvT_i>
    7754:	61 e8       	ldi	r22, 0x81	; 129
    7756:	70 e0       	ldi	r23, 0x00	; 0
    7758:	8a e4       	ldi	r24, 0x4A	; 74
    775a:	93 e0       	ldi	r25, 0x03	; 3
    775c:	b7 d2       	rcall	.+1390   	; 0x7ccc <_Z8E_NotifyPKci>
    775e:	81 2f       	mov	r24, r17
    7760:	08 c0       	rjmp	.+16     	; 0x7772 <_ZN3USB10inTransferEhhPjPh+0xae>
    7762:	49 81       	ldd	r20, Y+1	; 0x01
    7764:	5a 81       	ldd	r21, Y+2	; 0x02
    7766:	6b 81       	ldd	r22, Y+3	; 0x03
    7768:	7c 81       	ldd	r23, Y+4	; 0x04
    776a:	85 01       	movw	r16, r10
    776c:	96 01       	movw	r18, r12
    776e:	c7 01       	movw	r24, r14
    7770:	56 dd       	rcall	.-1364   	; 0x721e <_ZN3USB10InTransferEP6EpInfojPjPh>
    7772:	0f 90       	pop	r0
    7774:	0f 90       	pop	r0
    7776:	0f 90       	pop	r0
    7778:	0f 90       	pop	r0
    777a:	df 91       	pop	r29
    777c:	cf 91       	pop	r28
    777e:	1f 91       	pop	r17
    7780:	0f 91       	pop	r16
    7782:	ff 90       	pop	r15
    7784:	ef 90       	pop	r14
    7786:	df 90       	pop	r13
    7788:	cf 90       	pop	r12
    778a:	bf 90       	pop	r11
    778c:	af 90       	pop	r10
    778e:	9f 90       	pop	r9
    7790:	8f 90       	pop	r8
    7792:	08 95       	ret

00007794 <_ZN15AddressPoolImplILh16EE18FreeAddressByIndexEh>:
    7794:	cf 92       	push	r12
    7796:	df 92       	push	r13
    7798:	ff 92       	push	r15
    779a:	0f 93       	push	r16
    779c:	1f 93       	push	r17
    779e:	cf 93       	push	r28
    77a0:	df 93       	push	r29
    77a2:	00 d0       	rcall	.+0      	; 0x77a4 <_ZN15AddressPoolImplILh16EE18FreeAddressByIndexEh+0x10>
    77a4:	cd b7       	in	r28, 0x3d	; 61
    77a6:	de b7       	in	r29, 0x3e	; 62
    77a8:	6c 01       	movw	r12, r24
    77aa:	66 23       	and	r22, r22
    77ac:	09 f4       	brne	.+2      	; 0x77b0 <_ZN15AddressPoolImplILh16EE18FreeAddressByIndexEh+0x1c>
    77ae:	41 c0       	rjmp	.+130    	; 0x7832 <_ZN15AddressPoolImplILh16EE18FreeAddressByIndexEh+0x9e>
    77b0:	06 2f       	mov	r16, r22
    77b2:	10 e0       	ldi	r17, 0x00	; 0
    77b4:	85 e0       	ldi	r24, 0x05	; 5
    77b6:	68 9f       	mul	r22, r24
    77b8:	b0 01       	movw	r22, r0
    77ba:	11 24       	eor	r1, r1
    77bc:	f6 01       	movw	r30, r12
    77be:	e6 0f       	add	r30, r22
    77c0:	f7 1f       	adc	r31, r23
    77c2:	80 85       	ldd	r24, Z+8	; 0x08
    77c4:	28 2f       	mov	r18, r24
    77c6:	27 70       	andi	r18, 0x07	; 7
    77c8:	86 ff       	sbrs	r24, 6
    77ca:	19 c0       	rjmp	.+50     	; 0x77fe <_ZN15AddressPoolImplILh16EE18FreeAddressByIndexEh+0x6a>
    77cc:	31 e0       	ldi	r19, 0x01	; 1
    77ce:	f5 e0       	ldi	r31, 0x05	; 5
    77d0:	ff 2e       	mov	r15, r31
    77d2:	f6 01       	movw	r30, r12
    77d4:	f3 9e       	mul	r15, r19
    77d6:	e0 0d       	add	r30, r0
    77d8:	f1 1d       	adc	r31, r1
    77da:	11 24       	eor	r1, r1
    77dc:	80 85       	ldd	r24, Z+8	; 0x08
    77de:	86 95       	lsr	r24
    77e0:	86 95       	lsr	r24
    77e2:	86 95       	lsr	r24
    77e4:	87 70       	andi	r24, 0x07	; 7
    77e6:	82 17       	cp	r24, r18
    77e8:	e1 f0       	breq	.+56     	; 0x7822 <_ZN15AddressPoolImplILh16EE18FreeAddressByIndexEh+0x8e>
    77ea:	3f 5f       	subi	r19, 0xFF	; 255
    77ec:	30 31       	cpi	r19, 0x10	; 16
    77ee:	88 f3       	brcs	.-30     	; 0x77d2 <_ZN15AddressPoolImplILh16EE18FreeAddressByIndexEh+0x3e>
    77f0:	f6 01       	movw	r30, r12
    77f2:	85 81       	ldd	r24, Z+5	; 0x05
    77f4:	82 13       	cpse	r24, r18
    77f6:	03 c0       	rjmp	.+6      	; 0x77fe <_ZN15AddressPoolImplILh16EE18FreeAddressByIndexEh+0x6a>
    77f8:	21 50       	subi	r18, 0x01	; 1
    77fa:	f6 01       	movw	r30, r12
    77fc:	25 83       	std	Z+5, r18	; 0x05
    77fe:	85 e0       	ldi	r24, 0x05	; 5
    7800:	80 9f       	mul	r24, r16
    7802:	f0 01       	movw	r30, r0
    7804:	81 9f       	mul	r24, r17
    7806:	f0 0d       	add	r31, r0
    7808:	11 24       	eor	r1, r1
    780a:	ec 0d       	add	r30, r12
    780c:	fd 1d       	adc	r31, r13
    780e:	10 86       	std	Z+8, r1	; 0x08
    7810:	81 e0       	ldi	r24, 0x01	; 1
    7812:	81 87       	std	Z+9, r24	; 0x09
    7814:	12 86       	std	Z+10, r1	; 0x0a
    7816:	82 e0       	ldi	r24, 0x02	; 2
    7818:	c8 0e       	add	r12, r24
    781a:	d1 1c       	adc	r13, r1
    781c:	d7 82       	std	Z+7, r13	; 0x07
    781e:	c6 82       	std	Z+6, r12	; 0x06
    7820:	08 c0       	rjmp	.+16     	; 0x7832 <_ZN15AddressPoolImplILh16EE18FreeAddressByIndexEh+0x9e>
    7822:	63 2f       	mov	r22, r19
    7824:	c6 01       	movw	r24, r12
    7826:	2a 83       	std	Y+2, r18	; 0x02
    7828:	39 83       	std	Y+1, r19	; 0x01
    782a:	b4 df       	rcall	.-152    	; 0x7794 <_ZN15AddressPoolImplILh16EE18FreeAddressByIndexEh>
    782c:	2a 81       	ldd	r18, Y+2	; 0x02
    782e:	39 81       	ldd	r19, Y+1	; 0x01
    7830:	d0 cf       	rjmp	.-96     	; 0x77d2 <_ZN15AddressPoolImplILh16EE18FreeAddressByIndexEh+0x3e>
    7832:	0f 90       	pop	r0
    7834:	0f 90       	pop	r0
    7836:	df 91       	pop	r29
    7838:	cf 91       	pop	r28
    783a:	1f 91       	pop	r17
    783c:	0f 91       	pop	r16
    783e:	ff 90       	pop	r15
    7840:	df 90       	pop	r13
    7842:	cf 90       	pop	r12
    7844:	08 95       	ret

00007846 <_ZN15AddressPoolImplILh16EE11FreeAddressEh>:
    7846:	cf 93       	push	r28
    7848:	df 93       	push	r29
    784a:	ec 01       	movw	r28, r24
    784c:	61 34       	cpi	r22, 0x41	; 65
    784e:	a1 f4       	brne	.+40     	; 0x7878 <_ZN15AddressPoolImplILh16EE11FreeAddressEh+0x32>
    7850:	fc 01       	movw	r30, r24
    7852:	85 5b       	subi	r24, 0xB5	; 181
    7854:	9f 4f       	sbci	r25, 0xFF	; 255
    7856:	41 e0       	ldi	r20, 0x01	; 1
    7858:	9e 01       	movw	r18, r28
    785a:	2e 5f       	subi	r18, 0xFE	; 254
    785c:	3f 4f       	sbci	r19, 0xFF	; 255
    785e:	15 86       	std	Z+13, r1	; 0x0d
    7860:	46 87       	std	Z+14, r20	; 0x0e
    7862:	17 86       	std	Z+15, r1	; 0x0f
    7864:	34 87       	std	Z+12, r19	; 0x0c
    7866:	23 87       	std	Z+11, r18	; 0x0b
    7868:	35 96       	adiw	r30, 0x05	; 5
    786a:	e8 17       	cp	r30, r24
    786c:	f9 07       	cpc	r31, r25
    786e:	b9 f7       	brne	.-18     	; 0x785e <_ZN15AddressPoolImplILh16EE11FreeAddressEh+0x18>
    7870:	1d 82       	std	Y+5, r1	; 0x05
    7872:	df 91       	pop	r29
    7874:	cf 91       	pop	r28
    7876:	08 95       	ret
    7878:	1a d9       	rcall	.-3532   	; 0x6aae <_ZN15AddressPoolImplILh16EE16FindAddressIndexEh>
    787a:	68 2f       	mov	r22, r24
    787c:	ce 01       	movw	r24, r28
    787e:	df 91       	pop	r29
    7880:	cf 91       	pop	r28
    7882:	88 cf       	rjmp	.-240    	; 0x7794 <_ZN15AddressPoolImplILh16EE18FreeAddressByIndexEh>

00007884 <_ZN3USB17DefaultAddressingEhhb>:
    7884:	0f 93       	push	r16
    7886:	1f 93       	push	r17
    7888:	cf 93       	push	r28
    788a:	df 93       	push	r29
    788c:	ec 01       	movw	r28, r24
    788e:	02 2f       	mov	r16, r18
    7890:	ca 3f       	cpi	r28, 0xFA	; 250
    7892:	8f ef       	ldi	r24, 0xFF	; 255
    7894:	d8 07       	cpc	r29, r24
    7896:	11 f4       	brne	.+4      	; 0x789c <_ZN3USB17DefaultAddressingEhhb+0x18>
    7898:	86 ed       	ldi	r24, 0xD6	; 214
    789a:	25 c0       	rjmp	.+74     	; 0x78e6 <_ZN3USB17DefaultAddressingEhhb+0x62>
    789c:	8e 81       	ldd	r24, Y+6	; 0x06
    789e:	9f 81       	ldd	r25, Y+7	; 0x07
    78a0:	89 2b       	or	r24, r25
    78a2:	e1 f0       	breq	.+56     	; 0x78dc <_ZN3USB17DefaultAddressingEhhb+0x58>
    78a4:	2a 87       	std	Y+10, r18	; 0x0a
    78a6:	24 2f       	mov	r18, r20
    78a8:	40 e0       	ldi	r20, 0x00	; 0
    78aa:	ce 01       	movw	r24, r28
    78ac:	12 d9       	rcall	.-3548   	; 0x6ad2 <_ZN15AddressPoolImplILh16EE12AllocAddressEhbh>
    78ae:	18 2f       	mov	r17, r24
    78b0:	88 23       	and	r24, r24
    78b2:	b1 f0       	breq	.+44     	; 0x78e0 <_ZN3USB17DefaultAddressingEhhb+0x5c>
    78b4:	68 2f       	mov	r22, r24
    78b6:	ce 01       	movw	r24, r28
    78b8:	7f d9       	rcall	.-3330   	; 0x6bb8 <_ZN15AddressPoolImplILh16EE15GetUsbDevicePtrEh>
    78ba:	00 97       	sbiw	r24, 0x00	; 0
    78bc:	69 f3       	breq	.-38     	; 0x7898 <_ZN3USB17DefaultAddressingEhhb+0x14>
    78be:	fc 01       	movw	r30, r24
    78c0:	04 83       	std	Z+4, r16	; 0x04
    78c2:	21 2f       	mov	r18, r17
    78c4:	40 e0       	ldi	r20, 0x00	; 0
    78c6:	60 e0       	ldi	r22, 0x00	; 0
    78c8:	ce 01       	movw	r24, r28
    78ca:	8a de       	rcall	.-748    	; 0x75e0 <_ZN3USB7setAddrEhhh>
    78cc:	08 2f       	mov	r16, r24
    78ce:	88 23       	and	r24, r24
    78d0:	49 f0       	breq	.+18     	; 0x78e4 <_ZN3USB17DefaultAddressingEhhb+0x60>
    78d2:	61 2f       	mov	r22, r17
    78d4:	ce 01       	movw	r24, r28
    78d6:	b7 df       	rcall	.-146    	; 0x7846 <_ZN15AddressPoolImplILh16EE11FreeAddressEh>
    78d8:	80 2f       	mov	r24, r16
    78da:	05 c0       	rjmp	.+10     	; 0x78e6 <_ZN3USB17DefaultAddressingEhhb+0x62>
    78dc:	87 ed       	ldi	r24, 0xD7	; 215
    78de:	03 c0       	rjmp	.+6      	; 0x78e6 <_ZN3USB17DefaultAddressingEhhb+0x62>
    78e0:	84 ed       	ldi	r24, 0xD4	; 212
    78e2:	01 c0       	rjmp	.+2      	; 0x78e6 <_ZN3USB17DefaultAddressingEhhb+0x62>
    78e4:	80 e0       	ldi	r24, 0x00	; 0
    78e6:	df 91       	pop	r29
    78e8:	cf 91       	pop	r28
    78ea:	1f 91       	pop	r17
    78ec:	0f 91       	pop	r16
    78ee:	08 95       	ret

000078f0 <_ZN3USB11ConfiguringEhhb>:
    78f0:	3f 92       	push	r3
    78f2:	4f 92       	push	r4
    78f4:	5f 92       	push	r5
    78f6:	6f 92       	push	r6
    78f8:	7f 92       	push	r7
    78fa:	8f 92       	push	r8
    78fc:	9f 92       	push	r9
    78fe:	af 92       	push	r10
    7900:	bf 92       	push	r11
    7902:	cf 92       	push	r12
    7904:	df 92       	push	r13
    7906:	ef 92       	push	r14
    7908:	ff 92       	push	r15
    790a:	0f 93       	push	r16
    790c:	1f 93       	push	r17
    790e:	cf 93       	push	r28
    7910:	df 93       	push	r29
    7912:	cd b7       	in	r28, 0x3d	; 61
    7914:	de b7       	in	r29, 0x3e	; 62
    7916:	65 97       	sbiw	r28, 0x15	; 21
    7918:	0f b6       	in	r0, 0x3f	; 63
    791a:	f8 94       	cli
    791c:	de bf       	out	0x3e, r29	; 62
    791e:	0f be       	out	0x3f, r0	; 63
    7920:	cd bf       	out	0x3d, r28	; 61
    7922:	7c 01       	movw	r14, r24
    7924:	66 2e       	mov	r6, r22
    7926:	54 2e       	mov	r5, r20
    7928:	72 2e       	mov	r7, r18
    792a:	1b 8a       	std	Y+19, r1	; 0x13
    792c:	88 e0       	ldi	r24, 0x08	; 8
    792e:	8c 8b       	std	Y+20, r24	; 0x14
    7930:	8c e3       	ldi	r24, 0x3C	; 60
    7932:	8d 8b       	std	Y+21, r24	; 0x15
    7934:	d7 01       	movw	r26, r14
    7936:	ed 91       	ld	r30, X+
    7938:	fc 91       	ld	r31, X
    793a:	01 90       	ld	r0, Z+
    793c:	f0 81       	ld	r31, Z
    793e:	e0 2d       	mov	r30, r0
    7940:	60 e0       	ldi	r22, 0x00	; 0
    7942:	c7 01       	movw	r24, r14
    7944:	09 95       	icall
    7946:	6c 01       	movw	r12, r24
    7948:	00 97       	sbiw	r24, 0x00	; 0
    794a:	09 f4       	brne	.+2      	; 0x794e <_ZN3USB11ConfiguringEhhb+0x5e>
    794c:	8d c0       	rjmp	.+282    	; 0x7a68 <_ZN3USB11ConfiguringEhhb+0x178>
    794e:	fc 01       	movw	r30, r24
    7950:	a0 80       	ld	r10, Z
    7952:	b1 80       	ldd	r11, Z+1	; 0x01
    7954:	ce 01       	movw	r24, r28
    7956:	43 96       	adiw	r24, 0x13	; 19
    7958:	91 83       	std	Z+1, r25	; 0x01
    795a:	80 83       	st	Z, r24
    795c:	74 82       	std	Z+4, r7	; 0x04
    795e:	8e 01       	movw	r16, r28
    7960:	0f 5f       	subi	r16, 0xFF	; 255
    7962:	1f 4f       	sbci	r17, 0xFF	; 255
    7964:	22 e1       	ldi	r18, 0x12	; 18
    7966:	30 e0       	ldi	r19, 0x00	; 0
    7968:	40 e0       	ldi	r20, 0x00	; 0
    796a:	60 e0       	ldi	r22, 0x00	; 0
    796c:	c7 01       	movw	r24, r14
    796e:	ec dd       	rcall	.-1064   	; 0x7548 <_ZN3USB11getDevDescrEhhjPh>
    7970:	d6 01       	movw	r26, r12
    7972:	ad 92       	st	X+, r10
    7974:	bc 92       	st	X, r11
    7976:	81 11       	cpse	r24, r1
    7978:	8d c0       	rjmp	.+282    	; 0x7a94 <_ZN3USB11ConfiguringEhhb+0x1a4>
    797a:	a9 84       	ldd	r10, Y+9	; 0x09
    797c:	ba 84       	ldd	r11, Y+10	; 0x0a
    797e:	8b 84       	ldd	r8, Y+11	; 0x0b
    7980:	9c 84       	ldd	r9, Y+12	; 0x0c
    7982:	4d 80       	ldd	r4, Y+5	; 0x05
    7984:	67 01       	movw	r12, r14
    7986:	31 2c       	mov	r3, r1
    7988:	86 01       	movw	r16, r12
    798a:	0a 5a       	subi	r16, 0xAA	; 170
    798c:	1f 4f       	sbci	r17, 0xFF	; 255
    798e:	f8 01       	movw	r30, r16
    7990:	80 81       	ld	r24, Z
    7992:	91 81       	ldd	r25, Z+1	; 0x01
    7994:	00 97       	sbiw	r24, 0x00	; 0
    7996:	51 f4       	brne	.+20     	; 0x79ac <_ZN3USB11ConfiguringEhhb+0xbc>
    7998:	33 94       	inc	r3
    799a:	f2 e0       	ldi	r31, 0x02	; 2
    799c:	cf 0e       	add	r12, r31
    799e:	d1 1c       	adc	r13, r1
    79a0:	80 e1       	ldi	r24, 0x10	; 16
    79a2:	38 12       	cpse	r3, r24
    79a4:	f1 cf       	rjmp	.-30     	; 0x7988 <_ZN3USB11ConfiguringEhhb+0x98>
    79a6:	67 01       	movw	r12, r14
    79a8:	31 2c       	mov	r3, r1
    79aa:	25 c0       	rjmp	.+74     	; 0x79f6 <_ZN3USB11ConfiguringEhhb+0x106>
    79ac:	dc 01       	movw	r26, r24
    79ae:	ed 91       	ld	r30, X+
    79b0:	fc 91       	ld	r31, X
    79b2:	00 84       	ldd	r0, Z+8	; 0x08
    79b4:	f1 85       	ldd	r31, Z+9	; 0x09
    79b6:	e0 2d       	mov	r30, r0
    79b8:	09 95       	icall
    79ba:	81 11       	cpse	r24, r1
    79bc:	ed cf       	rjmp	.-38     	; 0x7998 <_ZN3USB11ConfiguringEhhb+0xa8>
    79be:	f8 01       	movw	r30, r16
    79c0:	80 81       	ld	r24, Z
    79c2:	91 81       	ldd	r25, Z+1	; 0x01
    79c4:	dc 01       	movw	r26, r24
    79c6:	ed 91       	ld	r30, X+
    79c8:	fc 91       	ld	r31, X
    79ca:	04 84       	ldd	r0, Z+12	; 0x0c
    79cc:	f5 85       	ldd	r31, Z+13	; 0x0d
    79ce:	e0 2d       	mov	r30, r0
    79d0:	a4 01       	movw	r20, r8
    79d2:	b5 01       	movw	r22, r10
    79d4:	09 95       	icall
    79d6:	81 11       	cpse	r24, r1
    79d8:	49 c0       	rjmp	.+146    	; 0x7a6c <_ZN3USB11ConfiguringEhhb+0x17c>
    79da:	f8 01       	movw	r30, r16
    79dc:	80 81       	ld	r24, Z
    79de:	91 81       	ldd	r25, Z+1	; 0x01
    79e0:	dc 01       	movw	r26, r24
    79e2:	ed 91       	ld	r30, X+
    79e4:	fc 91       	ld	r31, X
    79e6:	06 84       	ldd	r0, Z+14	; 0x0e
    79e8:	f7 85       	ldd	r31, Z+15	; 0x0f
    79ea:	e0 2d       	mov	r30, r0
    79ec:	64 2d       	mov	r22, r4
    79ee:	09 95       	icall
    79f0:	81 11       	cpse	r24, r1
    79f2:	3c c0       	rjmp	.+120    	; 0x7a6c <_ZN3USB11ConfiguringEhhb+0x17c>
    79f4:	d1 cf       	rjmp	.-94     	; 0x7998 <_ZN3USB11ConfiguringEhhb+0xa8>
    79f6:	86 01       	movw	r16, r12
    79f8:	0a 5a       	subi	r16, 0xAA	; 170
    79fa:	1f 4f       	sbci	r17, 0xFF	; 255
    79fc:	f8 01       	movw	r30, r16
    79fe:	80 81       	ld	r24, Z
    7a00:	91 81       	ldd	r25, Z+1	; 0x01
    7a02:	00 97       	sbiw	r24, 0x00	; 0
    7a04:	21 f1       	breq	.+72     	; 0x7a4e <_ZN3USB11ConfiguringEhhb+0x15e>
    7a06:	dc 01       	movw	r26, r24
    7a08:	ed 91       	ld	r30, X+
    7a0a:	fc 91       	ld	r31, X
    7a0c:	00 84       	ldd	r0, Z+8	; 0x08
    7a0e:	f1 85       	ldd	r31, Z+9	; 0x09
    7a10:	e0 2d       	mov	r30, r0
    7a12:	09 95       	icall
    7a14:	81 11       	cpse	r24, r1
    7a16:	1b c0       	rjmp	.+54     	; 0x7a4e <_ZN3USB11ConfiguringEhhb+0x15e>
    7a18:	f8 01       	movw	r30, r16
    7a1a:	80 81       	ld	r24, Z
    7a1c:	91 81       	ldd	r25, Z+1	; 0x01
    7a1e:	dc 01       	movw	r26, r24
    7a20:	ed 91       	ld	r30, X+
    7a22:	fc 91       	ld	r31, X
    7a24:	04 84       	ldd	r0, Z+12	; 0x0c
    7a26:	f5 85       	ldd	r31, Z+13	; 0x0d
    7a28:	e0 2d       	mov	r30, r0
    7a2a:	a4 01       	movw	r20, r8
    7a2c:	b5 01       	movw	r22, r10
    7a2e:	09 95       	icall
    7a30:	81 11       	cpse	r24, r1
    7a32:	0d c0       	rjmp	.+26     	; 0x7a4e <_ZN3USB11ConfiguringEhhb+0x15e>
    7a34:	f8 01       	movw	r30, r16
    7a36:	80 81       	ld	r24, Z
    7a38:	91 81       	ldd	r25, Z+1	; 0x01
    7a3a:	dc 01       	movw	r26, r24
    7a3c:	ed 91       	ld	r30, X+
    7a3e:	fc 91       	ld	r31, X
    7a40:	06 84       	ldd	r0, Z+14	; 0x0e
    7a42:	f7 85       	ldd	r31, Z+15	; 0x0f
    7a44:	e0 2d       	mov	r30, r0
    7a46:	64 2d       	mov	r22, r4
    7a48:	09 95       	icall
    7a4a:	88 23       	and	r24, r24
    7a4c:	c9 f0       	breq	.+50     	; 0x7a80 <_ZN3USB11ConfiguringEhhb+0x190>
    7a4e:	33 94       	inc	r3
    7a50:	b2 e0       	ldi	r27, 0x02	; 2
    7a52:	cb 0e       	add	r12, r27
    7a54:	d1 1c       	adc	r13, r1
    7a56:	e0 e1       	ldi	r30, 0x10	; 16
    7a58:	3e 12       	cpse	r3, r30
    7a5a:	cd cf       	rjmp	.-102    	; 0x79f6 <_ZN3USB11ConfiguringEhhb+0x106>
    7a5c:	27 2d       	mov	r18, r7
    7a5e:	45 2d       	mov	r20, r5
    7a60:	66 2d       	mov	r22, r6
    7a62:	c7 01       	movw	r24, r14
    7a64:	0f df       	rcall	.-482    	; 0x7884 <_ZN3USB17DefaultAddressingEhhb>
    7a66:	16 c0       	rjmp	.+44     	; 0x7a94 <_ZN3USB11ConfiguringEhhb+0x1a4>
    7a68:	86 ed       	ldi	r24, 0xD6	; 214
    7a6a:	14 c0       	rjmp	.+40     	; 0x7a94 <_ZN3USB11ConfiguringEhhb+0x1a4>
    7a6c:	07 2d       	mov	r16, r7
    7a6e:	25 2d       	mov	r18, r5
    7a70:	46 2d       	mov	r20, r6
    7a72:	63 2d       	mov	r22, r3
    7a74:	c7 01       	movw	r24, r14
    7a76:	f9 d9       	rcall	.-3086   	; 0x6e6a <_ZN3USB13AttemptConfigEhhhb>
    7a78:	81 3d       	cpi	r24, 0xD1	; 209
    7a7a:	09 f4       	brne	.+2      	; 0x7a7e <_ZN3USB11ConfiguringEhhb+0x18e>
    7a7c:	8d cf       	rjmp	.-230    	; 0x7998 <_ZN3USB11ConfiguringEhhb+0xa8>
    7a7e:	0a c0       	rjmp	.+20     	; 0x7a94 <_ZN3USB11ConfiguringEhhb+0x1a4>
    7a80:	07 2d       	mov	r16, r7
    7a82:	25 2d       	mov	r18, r5
    7a84:	46 2d       	mov	r20, r6
    7a86:	63 2d       	mov	r22, r3
    7a88:	c7 01       	movw	r24, r14
    7a8a:	ef d9       	rcall	.-3106   	; 0x6e6a <_ZN3USB13AttemptConfigEhhhb>
    7a8c:	98 2f       	mov	r25, r24
    7a8e:	97 7f       	andi	r25, 0xF7	; 247
    7a90:	91 3d       	cpi	r25, 0xD1	; 209
    7a92:	e9 f2       	breq	.-70     	; 0x7a4e <_ZN3USB11ConfiguringEhhb+0x15e>
    7a94:	65 96       	adiw	r28, 0x15	; 21
    7a96:	0f b6       	in	r0, 0x3f	; 63
    7a98:	f8 94       	cli
    7a9a:	de bf       	out	0x3e, r29	; 62
    7a9c:	0f be       	out	0x3f, r0	; 63
    7a9e:	cd bf       	out	0x3d, r28	; 61
    7aa0:	df 91       	pop	r29
    7aa2:	cf 91       	pop	r28
    7aa4:	1f 91       	pop	r17
    7aa6:	0f 91       	pop	r16
    7aa8:	ff 90       	pop	r15
    7aaa:	ef 90       	pop	r14
    7aac:	df 90       	pop	r13
    7aae:	cf 90       	pop	r12
    7ab0:	bf 90       	pop	r11
    7ab2:	af 90       	pop	r10
    7ab4:	9f 90       	pop	r9
    7ab6:	8f 90       	pop	r8
    7ab8:	7f 90       	pop	r7
    7aba:	6f 90       	pop	r6
    7abc:	5f 90       	pop	r5
    7abe:	4f 90       	pop	r4
    7ac0:	3f 90       	pop	r3
    7ac2:	08 95       	ret

00007ac4 <_ZN3USB4TaskEv>:
    7ac4:	cf 92       	push	r12
    7ac6:	df 92       	push	r13
    7ac8:	ef 92       	push	r14
    7aca:	ff 92       	push	r15
    7acc:	1f 93       	push	r17
    7ace:	cf 93       	push	r28
    7ad0:	df 93       	push	r29
    7ad2:	ec 01       	movw	r28, r24
    7ad4:	19 99       	sbic	0x03, 1	; 3
    7ad6:	0c c0       	rjmp	.+24     	; 0x7af0 <_ZN3USB4TaskEv+0x2c>
    7ad8:	88 ec       	ldi	r24, 0xC8	; 200
    7ada:	ca d8       	rcall	.-3692   	; 0x6c70 <_ZN8MAX3421eI4TPinI5PortbLh2EES0_IS1_Lh1EEE5regRdEh.isra.2>
    7adc:	85 ff       	sbrs	r24, 5
    7ade:	05 c0       	rjmp	.+10     	; 0x7aea <_ZN3USB4TaskEv+0x26>
    7ae0:	ce 01       	movw	r24, r28
    7ae2:	0e 94 a9 0e 	call	0x1d52	; 0x1d52 <_ZN8MAX3421eI4TPinI5PortbLh2EES0_IS1_Lh1EEE8busprobeEv>
    7ae6:	60 e2       	ldi	r22, 0x20	; 32
    7ae8:	01 c0       	rjmp	.+2      	; 0x7aec <_ZN3USB4TaskEv+0x28>
    7aea:	60 e0       	ldi	r22, 0x00	; 0
    7aec:	88 ec       	ldi	r24, 0xC8	; 200
    7aee:	d8 d8       	rcall	.-3664   	; 0x6ca0 <_ZN8MAX3421eI4TPinI5PortbLh2EES0_IS1_Lh1EEE5regWrEhh.isra.3>
    7af0:	80 91 b3 03 	lds	r24, 0x03B3
    7af4:	81 30       	cpi	r24, 0x01	; 1
    7af6:	49 f0       	breq	.+18     	; 0x7b0a <_ZN3USB4TaskEv+0x46>
    7af8:	50 f0       	brcs	.+20     	; 0x7b0e <_ZN3USB4TaskEv+0x4a>
    7afa:	82 30       	cpi	r24, 0x02	; 2
    7afc:	21 f0       	breq	.+8      	; 0x7b06 <_ZN3USB4TaskEv+0x42>
    7afe:	83 30       	cpi	r24, 0x03	; 3
    7b00:	31 f5       	brne	.+76     	; 0x7b4e <_ZN3USB4TaskEv+0x8a>
    7b02:	11 e0       	ldi	r17, 0x01	; 1
    7b04:	0d c0       	rjmp	.+26     	; 0x7b20 <_ZN3USB4TaskEv+0x5c>
    7b06:	10 e0       	ldi	r17, 0x00	; 0
    7b08:	0b c0       	rjmp	.+22     	; 0x7b20 <_ZN3USB4TaskEv+0x5c>
    7b0a:	83 e1       	ldi	r24, 0x13	; 19
    7b0c:	06 c0       	rjmp	.+12     	; 0x7b1a <_ZN3USB4TaskEv+0x56>
    7b0e:	80 91 2b 05 	lds	r24, 0x052B
    7b12:	80 7f       	andi	r24, 0xF0	; 240
    7b14:	80 31       	cpi	r24, 0x10	; 16
    7b16:	d9 f0       	breq	.+54     	; 0x7b4e <_ZN3USB4TaskEv+0x8a>
    7b18:	81 e1       	ldi	r24, 0x11	; 17
    7b1a:	80 93 2b 05 	sts	0x052B, r24
    7b1e:	17 c0       	rjmp	.+46     	; 0x7b4e <_ZN3USB4TaskEv+0x8a>
    7b20:	80 91 2b 05 	lds	r24, 0x052B
    7b24:	80 7f       	andi	r24, 0xF0	; 240
    7b26:	80 31       	cpi	r24, 0x10	; 16
    7b28:	99 f4       	brne	.+38     	; 0x7b50 <_ZN3USB4TaskEv+0x8c>
    7b2a:	0e 94 96 2c 	call	0x592c	; 0x592c <millis>
    7b2e:	68 53       	subi	r22, 0x38	; 56
    7b30:	7f 4f       	sbci	r23, 0xFF	; 255
    7b32:	8f 4f       	sbci	r24, 0xFF	; 255
    7b34:	9f 4f       	sbci	r25, 0xFF	; 255
    7b36:	60 93 27 05 	sts	0x0527, r22
    7b3a:	70 93 28 05 	sts	0x0528, r23
    7b3e:	80 93 29 05 	sts	0x0529, r24
    7b42:	90 93 2a 05 	sts	0x052A, r25
    7b46:	80 e2       	ldi	r24, 0x20	; 32
    7b48:	80 93 2b 05 	sts	0x052B, r24
    7b4c:	01 c0       	rjmp	.+2      	; 0x7b50 <_ZN3USB4TaskEv+0x8c>
    7b4e:	10 e0       	ldi	r17, 0x00	; 0
    7b50:	e1 2c       	mov	r14, r1
    7b52:	f1 2c       	mov	r15, r1
    7b54:	fe 01       	movw	r30, r28
    7b56:	ee 0d       	add	r30, r14
    7b58:	ff 1d       	adc	r31, r15
    7b5a:	ea 5a       	subi	r30, 0xAA	; 170
    7b5c:	ff 4f       	sbci	r31, 0xFF	; 255
    7b5e:	80 81       	ld	r24, Z
    7b60:	91 81       	ldd	r25, Z+1	; 0x01
    7b62:	00 97       	sbiw	r24, 0x00	; 0
    7b64:	39 f0       	breq	.+14     	; 0x7b74 <_ZN3USB4TaskEv+0xb0>
    7b66:	dc 01       	movw	r26, r24
    7b68:	ed 91       	ld	r30, X+
    7b6a:	fc 91       	ld	r31, X
    7b6c:	06 80       	ldd	r0, Z+6	; 0x06
    7b6e:	f7 81       	ldd	r31, Z+7	; 0x07
    7b70:	e0 2d       	mov	r30, r0
    7b72:	09 95       	icall
    7b74:	b2 e0       	ldi	r27, 0x02	; 2
    7b76:	eb 0e       	add	r14, r27
    7b78:	f1 1c       	adc	r15, r1
    7b7a:	80 e2       	ldi	r24, 0x20	; 32
    7b7c:	e8 16       	cp	r14, r24
    7b7e:	f1 04       	cpc	r15, r1
    7b80:	49 f7       	brne	.-46     	; 0x7b54 <_ZN3USB4TaskEv+0x90>
    7b82:	80 91 2b 05 	lds	r24, 0x052B
    7b86:	80 34       	cpi	r24, 0x40	; 64
    7b88:	09 f4       	brne	.+2      	; 0x7b8c <_ZN3USB4TaskEv+0xc8>
    7b8a:	47 c0       	rjmp	.+142    	; 0x7c1a <_ZN3USB4TaskEv+0x156>
    7b8c:	70 f4       	brcc	.+28     	; 0x7baa <_ZN3USB4TaskEv+0xe6>
    7b8e:	80 32       	cpi	r24, 0x20	; 32
    7b90:	79 f1       	breq	.+94     	; 0x7bf0 <_ZN3USB4TaskEv+0x12c>
    7b92:	80 33       	cpi	r24, 0x30	; 48
    7b94:	e9 f1       	breq	.+122    	; 0x7c10 <_ZN3USB4TaskEv+0x14c>
    7b96:	81 31       	cpi	r24, 0x11	; 17
    7b98:	09 f0       	breq	.+2      	; 0x7b9c <_ZN3USB4TaskEv+0xd8>
    7b9a:	83 c0       	rjmp	.+262    	; 0x7ca2 <_ZN3USB4TaskEv+0x1de>
    7b9c:	fe 01       	movw	r30, r28
    7b9e:	ea 58       	subi	r30, 0x8A	; 138
    7ba0:	ff 4f       	sbci	r31, 0xFF	; 255
    7ba2:	10 82       	st	Z, r1
    7ba4:	e1 2c       	mov	r14, r1
    7ba6:	f1 2c       	mov	r15, r1
    7ba8:	0a c0       	rjmp	.+20     	; 0x7bbe <_ZN3USB4TaskEv+0xfa>
    7baa:	81 35       	cpi	r24, 0x51	; 81
    7bac:	09 f4       	brne	.+2      	; 0x7bb0 <_ZN3USB4TaskEv+0xec>
    7bae:	57 c0       	rjmp	.+174    	; 0x7c5e <_ZN3USB4TaskEv+0x19a>
    7bb0:	80 38       	cpi	r24, 0x80	; 128
    7bb2:	09 f4       	brne	.+2      	; 0x7bb6 <_ZN3USB4TaskEv+0xf2>
    7bb4:	66 c0       	rjmp	.+204    	; 0x7c82 <_ZN3USB4TaskEv+0x1be>
    7bb6:	80 35       	cpi	r24, 0x50	; 80
    7bb8:	09 f0       	breq	.+2      	; 0x7bbc <_ZN3USB4TaskEv+0xf8>
    7bba:	73 c0       	rjmp	.+230    	; 0x7ca2 <_ZN3USB4TaskEv+0x1de>
    7bbc:	3a c0       	rjmp	.+116    	; 0x7c32 <_ZN3USB4TaskEv+0x16e>
    7bbe:	fe 01       	movw	r30, r28
    7bc0:	ee 0d       	add	r30, r14
    7bc2:	ff 1d       	adc	r31, r15
    7bc4:	ea 5a       	subi	r30, 0xAA	; 170
    7bc6:	ff 4f       	sbci	r31, 0xFF	; 255
    7bc8:	80 81       	ld	r24, Z
    7bca:	91 81       	ldd	r25, Z+1	; 0x01
    7bcc:	00 97       	sbiw	r24, 0x00	; 0
    7bce:	39 f0       	breq	.+14     	; 0x7bde <_ZN3USB4TaskEv+0x11a>
    7bd0:	dc 01       	movw	r26, r24
    7bd2:	ed 91       	ld	r30, X+
    7bd4:	fc 91       	ld	r31, X
    7bd6:	04 80       	ldd	r0, Z+4	; 0x04
    7bd8:	f5 81       	ldd	r31, Z+5	; 0x05
    7bda:	e0 2d       	mov	r30, r0
    7bdc:	09 95       	icall
    7bde:	b2 e0       	ldi	r27, 0x02	; 2
    7be0:	eb 0e       	add	r14, r27
    7be2:	f1 1c       	adc	r15, r1
    7be4:	80 e2       	ldi	r24, 0x20	; 32
    7be6:	e8 16       	cp	r14, r24
    7be8:	f1 04       	cpc	r15, r1
    7bea:	49 f7       	brne	.-46     	; 0x7bbe <_ZN3USB4TaskEv+0xfa>
    7bec:	82 e1       	ldi	r24, 0x12	; 18
    7bee:	57 c0       	rjmp	.+174    	; 0x7c9e <_ZN3USB4TaskEv+0x1da>
    7bf0:	c0 90 27 05 	lds	r12, 0x0527
    7bf4:	d0 90 28 05 	lds	r13, 0x0528
    7bf8:	e0 90 29 05 	lds	r14, 0x0529
    7bfc:	f0 90 2a 05 	lds	r15, 0x052A
    7c00:	0e 94 96 2c 	call	0x592c	; 0x592c <millis>
    7c04:	c6 16       	cp	r12, r22
    7c06:	d7 06       	cpc	r13, r23
    7c08:	e8 06       	cpc	r14, r24
    7c0a:	f9 06       	cpc	r15, r25
    7c0c:	08 f0       	brcs	.+2      	; 0x7c10 <_ZN3USB4TaskEv+0x14c>
    7c0e:	49 c0       	rjmp	.+146    	; 0x7ca2 <_ZN3USB4TaskEv+0x1de>
    7c10:	61 e0       	ldi	r22, 0x01	; 1
    7c12:	88 ee       	ldi	r24, 0xE8	; 232
    7c14:	45 d8       	rcall	.-3958   	; 0x6ca0 <_ZN8MAX3421eI4TPinI5PortbLh2EES0_IS1_Lh1EEE5regWrEhh.isra.3>
    7c16:	80 e4       	ldi	r24, 0x40	; 64
    7c18:	42 c0       	rjmp	.+132    	; 0x7c9e <_ZN3USB4TaskEv+0x1da>
    7c1a:	88 ee       	ldi	r24, 0xE8	; 232
    7c1c:	29 d8       	rcall	.-4014   	; 0x6c70 <_ZN8MAX3421eI4TPinI5PortbLh2EES0_IS1_Lh1EEE5regRdEh.isra.2>
    7c1e:	80 fd       	sbrc	r24, 0
    7c20:	40 c0       	rjmp	.+128    	; 0x7ca2 <_ZN3USB4TaskEv+0x1de>
    7c22:	88 ed       	ldi	r24, 0xD8	; 216
    7c24:	25 d8       	rcall	.-4022   	; 0x6c70 <_ZN8MAX3421eI4TPinI5PortbLh2EES0_IS1_Lh1EEE5regRdEh.isra.2>
    7c26:	68 2f       	mov	r22, r24
    7c28:	68 60       	ori	r22, 0x08	; 8
    7c2a:	88 ed       	ldi	r24, 0xD8	; 216
    7c2c:	39 d8       	rcall	.-3982   	; 0x6ca0 <_ZN8MAX3421eI4TPinI5PortbLh2EES0_IS1_Lh1EEE5regWrEhh.isra.3>
    7c2e:	80 e5       	ldi	r24, 0x50	; 80
    7c30:	36 c0       	rjmp	.+108    	; 0x7c9e <_ZN3USB4TaskEv+0x1da>
    7c32:	88 ec       	ldi	r24, 0xC8	; 200
    7c34:	1d d8       	rcall	.-4038   	; 0x6c70 <_ZN8MAX3421eI4TPinI5PortbLh2EES0_IS1_Lh1EEE5regRdEh.isra.2>
    7c36:	86 ff       	sbrs	r24, 6
    7c38:	34 c0       	rjmp	.+104    	; 0x7ca2 <_ZN3USB4TaskEv+0x1de>
    7c3a:	81 e5       	ldi	r24, 0x51	; 81
    7c3c:	80 93 2b 05 	sts	0x052B, r24
    7c40:	0e 94 96 2c 	call	0x592c	; 0x592c <millis>
    7c44:	6c 5e       	subi	r22, 0xEC	; 236
    7c46:	7f 4f       	sbci	r23, 0xFF	; 255
    7c48:	8f 4f       	sbci	r24, 0xFF	; 255
    7c4a:	9f 4f       	sbci	r25, 0xFF	; 255
    7c4c:	60 93 27 05 	sts	0x0527, r22
    7c50:	70 93 28 05 	sts	0x0528, r23
    7c54:	80 93 29 05 	sts	0x0529, r24
    7c58:	90 93 2a 05 	sts	0x052A, r25
    7c5c:	22 c0       	rjmp	.+68     	; 0x7ca2 <_ZN3USB4TaskEv+0x1de>
    7c5e:	c0 90 27 05 	lds	r12, 0x0527
    7c62:	d0 90 28 05 	lds	r13, 0x0528
    7c66:	e0 90 29 05 	lds	r14, 0x0529
    7c6a:	f0 90 2a 05 	lds	r15, 0x052A
    7c6e:	0e 94 96 2c 	call	0x592c	; 0x592c <millis>
    7c72:	c6 16       	cp	r12, r22
    7c74:	d7 06       	cpc	r13, r23
    7c76:	e8 06       	cpc	r14, r24
    7c78:	f9 06       	cpc	r15, r25
    7c7a:	98 f4       	brcc	.+38     	; 0x7ca2 <_ZN3USB4TaskEv+0x1de>
    7c7c:	80 e8       	ldi	r24, 0x80	; 128
    7c7e:	80 93 2b 05 	sts	0x052B, r24
    7c82:	21 2f       	mov	r18, r17
    7c84:	40 e0       	ldi	r20, 0x00	; 0
    7c86:	60 e0       	ldi	r22, 0x00	; 0
    7c88:	ce 01       	movw	r24, r28
    7c8a:	32 de       	rcall	.-924    	; 0x78f0 <_ZN3USB11ConfiguringEhhb>
    7c8c:	88 23       	and	r24, r24
    7c8e:	31 f0       	breq	.+12     	; 0x7c9c <_ZN3USB4TaskEv+0x1d8>
    7c90:	82 3d       	cpi	r24, 0xD2	; 210
    7c92:	39 f0       	breq	.+14     	; 0x7ca2 <_ZN3USB4TaskEv+0x1de>
    7c94:	80 93 2c 05 	sts	0x052C, r24
    7c98:	80 ea       	ldi	r24, 0xA0	; 160
    7c9a:	01 c0       	rjmp	.+2      	; 0x7c9e <_ZN3USB4TaskEv+0x1da>
    7c9c:	80 e9       	ldi	r24, 0x90	; 144
    7c9e:	80 93 2b 05 	sts	0x052B, r24
    7ca2:	df 91       	pop	r29
    7ca4:	cf 91       	pop	r28
    7ca6:	1f 91       	pop	r17
    7ca8:	ff 90       	pop	r15
    7caa:	ef 90       	pop	r14
    7cac:	df 90       	pop	r13
    7cae:	cf 90       	pop	r12
    7cb0:	08 95       	ret

00007cb2 <_Z9E_Notifycci>:
    7cb2:	40 91 18 01 	lds	r20, 0x0118
    7cb6:	50 91 19 01 	lds	r21, 0x0119
    7cba:	46 17       	cp	r20, r22
    7cbc:	57 07       	cpc	r21, r23
    7cbe:	2c f0       	brlt	.+10     	; 0x7cca <_Z9E_Notifycci+0x18>
    7cc0:	68 2f       	mov	r22, r24
    7cc2:	84 e7       	ldi	r24, 0x74	; 116
    7cc4:	94 e0       	ldi	r25, 0x04	; 4
    7cc6:	0c 94 4e 2b 	jmp	0x569c	; 0x569c <_ZN5Print5printEc>
    7cca:	08 95       	ret

00007ccc <_Z8E_NotifyPKci>:
    7ccc:	0f 93       	push	r16
    7cce:	1f 93       	push	r17
    7cd0:	cf 93       	push	r28
    7cd2:	df 93       	push	r29
    7cd4:	eb 01       	movw	r28, r22
    7cd6:	20 91 18 01 	lds	r18, 0x0118
    7cda:	30 91 19 01 	lds	r19, 0x0119
    7cde:	26 17       	cp	r18, r22
    7ce0:	37 07       	cpc	r19, r23
    7ce2:	6c f0       	brlt	.+26     	; 0x7cfe <_Z8E_NotifyPKci+0x32>
    7ce4:	00 97       	sbiw	r24, 0x00	; 0
    7ce6:	59 f0       	breq	.+22     	; 0x7cfe <_Z8E_NotifyPKci+0x32>
    7ce8:	fc 01       	movw	r30, r24
    7cea:	84 91       	lpm	r24, Z
    7cec:	8f 01       	movw	r16, r30
    7cee:	0f 5f       	subi	r16, 0xFF	; 255
    7cf0:	1f 4f       	sbci	r17, 0xFF	; 255
    7cf2:	88 23       	and	r24, r24
    7cf4:	21 f0       	breq	.+8      	; 0x7cfe <_Z8E_NotifyPKci+0x32>
    7cf6:	be 01       	movw	r22, r28
    7cf8:	dc df       	rcall	.-72     	; 0x7cb2 <_Z9E_Notifycci>
    7cfa:	f8 01       	movw	r30, r16
    7cfc:	f6 cf       	rjmp	.-20     	; 0x7cea <_Z8E_NotifyPKci+0x1e>
    7cfe:	df 91       	pop	r29
    7d00:	cf 91       	pop	r28
    7d02:	1f 91       	pop	r17
    7d04:	0f 91       	pop	r16
    7d06:	08 95       	ret

00007d08 <__divmodhi4>:
    7d08:	97 fb       	bst	r25, 7
    7d0a:	07 2e       	mov	r0, r23
    7d0c:	16 f4       	brtc	.+4      	; 0x7d12 <__divmodhi4+0xa>
    7d0e:	00 94       	com	r0
    7d10:	06 d0       	rcall	.+12     	; 0x7d1e <__divmodhi4_neg1>
    7d12:	77 fd       	sbrc	r23, 7
    7d14:	08 d0       	rcall	.+16     	; 0x7d26 <__divmodhi4_neg2>
    7d16:	3d d0       	rcall	.+122    	; 0x7d92 <__udivmodhi4>
    7d18:	07 fc       	sbrc	r0, 7
    7d1a:	05 d0       	rcall	.+10     	; 0x7d26 <__divmodhi4_neg2>
    7d1c:	3e f4       	brtc	.+14     	; 0x7d2c <__divmodhi4_exit>

00007d1e <__divmodhi4_neg1>:
    7d1e:	90 95       	com	r25
    7d20:	81 95       	neg	r24
    7d22:	9f 4f       	sbci	r25, 0xFF	; 255
    7d24:	08 95       	ret

00007d26 <__divmodhi4_neg2>:
    7d26:	70 95       	com	r23
    7d28:	61 95       	neg	r22
    7d2a:	7f 4f       	sbci	r23, 0xFF	; 255

00007d2c <__divmodhi4_exit>:
    7d2c:	08 95       	ret

00007d2e <__udivmodsi4>:
    7d2e:	a1 e2       	ldi	r26, 0x21	; 33
    7d30:	1a 2e       	mov	r1, r26
    7d32:	aa 1b       	sub	r26, r26
    7d34:	bb 1b       	sub	r27, r27
    7d36:	fd 01       	movw	r30, r26
    7d38:	0d c0       	rjmp	.+26     	; 0x7d54 <__udivmodsi4_ep>

00007d3a <__udivmodsi4_loop>:
    7d3a:	aa 1f       	adc	r26, r26
    7d3c:	bb 1f       	adc	r27, r27
    7d3e:	ee 1f       	adc	r30, r30
    7d40:	ff 1f       	adc	r31, r31
    7d42:	a2 17       	cp	r26, r18
    7d44:	b3 07       	cpc	r27, r19
    7d46:	e4 07       	cpc	r30, r20
    7d48:	f5 07       	cpc	r31, r21
    7d4a:	20 f0       	brcs	.+8      	; 0x7d54 <__udivmodsi4_ep>
    7d4c:	a2 1b       	sub	r26, r18
    7d4e:	b3 0b       	sbc	r27, r19
    7d50:	e4 0b       	sbc	r30, r20
    7d52:	f5 0b       	sbc	r31, r21

00007d54 <__udivmodsi4_ep>:
    7d54:	66 1f       	adc	r22, r22
    7d56:	77 1f       	adc	r23, r23
    7d58:	88 1f       	adc	r24, r24
    7d5a:	99 1f       	adc	r25, r25
    7d5c:	1a 94       	dec	r1
    7d5e:	69 f7       	brne	.-38     	; 0x7d3a <__udivmodsi4_loop>
    7d60:	60 95       	com	r22
    7d62:	70 95       	com	r23
    7d64:	80 95       	com	r24
    7d66:	90 95       	com	r25
    7d68:	9b 01       	movw	r18, r22
    7d6a:	ac 01       	movw	r20, r24
    7d6c:	bd 01       	movw	r22, r26
    7d6e:	cf 01       	movw	r24, r30
    7d70:	08 95       	ret

00007d72 <__tablejump2__>:
    7d72:	ee 0f       	add	r30, r30
    7d74:	ff 1f       	adc	r31, r31

00007d76 <__tablejump__>:
    7d76:	05 90       	lpm	r0, Z+
    7d78:	f4 91       	lpm	r31, Z
    7d7a:	e0 2d       	mov	r30, r0
    7d7c:	09 94       	ijmp

00007d7e <__muluhisi3>:
    7d7e:	1d d0       	rcall	.+58     	; 0x7dba <__umulhisi3>
    7d80:	a5 9f       	mul	r26, r21
    7d82:	90 0d       	add	r25, r0
    7d84:	b4 9f       	mul	r27, r20
    7d86:	90 0d       	add	r25, r0
    7d88:	a4 9f       	mul	r26, r20
    7d8a:	80 0d       	add	r24, r0
    7d8c:	91 1d       	adc	r25, r1
    7d8e:	11 24       	eor	r1, r1
    7d90:	08 95       	ret

00007d92 <__udivmodhi4>:
    7d92:	aa 1b       	sub	r26, r26
    7d94:	bb 1b       	sub	r27, r27
    7d96:	51 e1       	ldi	r21, 0x11	; 17
    7d98:	07 c0       	rjmp	.+14     	; 0x7da8 <__udivmodhi4_ep>

00007d9a <__udivmodhi4_loop>:
    7d9a:	aa 1f       	adc	r26, r26
    7d9c:	bb 1f       	adc	r27, r27
    7d9e:	a6 17       	cp	r26, r22
    7da0:	b7 07       	cpc	r27, r23
    7da2:	10 f0       	brcs	.+4      	; 0x7da8 <__udivmodhi4_ep>
    7da4:	a6 1b       	sub	r26, r22
    7da6:	b7 0b       	sbc	r27, r23

00007da8 <__udivmodhi4_ep>:
    7da8:	88 1f       	adc	r24, r24
    7daa:	99 1f       	adc	r25, r25
    7dac:	5a 95       	dec	r21
    7dae:	a9 f7       	brne	.-22     	; 0x7d9a <__udivmodhi4_loop>
    7db0:	80 95       	com	r24
    7db2:	90 95       	com	r25
    7db4:	bc 01       	movw	r22, r24
    7db6:	cd 01       	movw	r24, r26
    7db8:	08 95       	ret

00007dba <__umulhisi3>:
    7dba:	a2 9f       	mul	r26, r18
    7dbc:	b0 01       	movw	r22, r0
    7dbe:	b3 9f       	mul	r27, r19
    7dc0:	c0 01       	movw	r24, r0
    7dc2:	a3 9f       	mul	r26, r19
    7dc4:	70 0d       	add	r23, r0
    7dc6:	81 1d       	adc	r24, r1
    7dc8:	11 24       	eor	r1, r1
    7dca:	91 1d       	adc	r25, r1
    7dcc:	b2 9f       	mul	r27, r18
    7dce:	70 0d       	add	r23, r0
    7dd0:	81 1d       	adc	r24, r1
    7dd2:	11 24       	eor	r1, r1
    7dd4:	91 1d       	adc	r25, r1
    7dd6:	08 95       	ret

00007dd8 <memcpy>:
    7dd8:	fb 01       	movw	r30, r22
    7dda:	dc 01       	movw	r26, r24
    7ddc:	02 c0       	rjmp	.+4      	; 0x7de2 <memcpy+0xa>
    7dde:	01 90       	ld	r0, Z+
    7de0:	0d 92       	st	X+, r0
    7de2:	41 50       	subi	r20, 0x01	; 1
    7de4:	50 40       	sbci	r21, 0x00	; 0
    7de6:	d8 f7       	brcc	.-10     	; 0x7dde <memcpy+0x6>
    7de8:	08 95       	ret

00007dea <memset>:
    7dea:	dc 01       	movw	r26, r24
    7dec:	01 c0       	rjmp	.+2      	; 0x7df0 <memset+0x6>
    7dee:	6d 93       	st	X+, r22
    7df0:	41 50       	subi	r20, 0x01	; 1
    7df2:	50 40       	sbci	r21, 0x00	; 0
    7df4:	e0 f7       	brcc	.-8      	; 0x7dee <memset+0x4>
    7df6:	08 95       	ret

00007df8 <__eerd_byte_m328p>:
    7df8:	f9 99       	sbic	0x1f, 1	; 31
    7dfa:	fe cf       	rjmp	.-4      	; 0x7df8 <__eerd_byte_m328p>
    7dfc:	92 bd       	out	0x22, r25	; 34
    7dfe:	81 bd       	out	0x21, r24	; 33
    7e00:	f8 9a       	sbi	0x1f, 0	; 31
    7e02:	99 27       	eor	r25, r25
    7e04:	80 b5       	in	r24, 0x20	; 32
    7e06:	08 95       	ret

00007e08 <__eerd_word_m328p>:
    7e08:	a8 e1       	ldi	r26, 0x18	; 24
    7e0a:	b0 e0       	ldi	r27, 0x00	; 0
    7e0c:	42 e0       	ldi	r20, 0x02	; 2
    7e0e:	50 e0       	ldi	r21, 0x00	; 0
    7e10:	13 c0       	rjmp	.+38     	; 0x7e38 <__eerd_blraw_m328p>

00007e12 <__eewr_byte_m328p>:
    7e12:	26 2f       	mov	r18, r22

00007e14 <__eewr_r18_m328p>:
    7e14:	f9 99       	sbic	0x1f, 1	; 31
    7e16:	fe cf       	rjmp	.-4      	; 0x7e14 <__eewr_r18_m328p>
    7e18:	1f ba       	out	0x1f, r1	; 31
    7e1a:	92 bd       	out	0x22, r25	; 34
    7e1c:	81 bd       	out	0x21, r24	; 33
    7e1e:	20 bd       	out	0x20, r18	; 32
    7e20:	0f b6       	in	r0, 0x3f	; 63
    7e22:	f8 94       	cli
    7e24:	fa 9a       	sbi	0x1f, 2	; 31
    7e26:	f9 9a       	sbi	0x1f, 1	; 31
    7e28:	0f be       	out	0x3f, r0	; 63
    7e2a:	01 96       	adiw	r24, 0x01	; 1
    7e2c:	08 95       	ret

00007e2e <__eewr_word_m328p>:
    7e2e:	f1 df       	rcall	.-30     	; 0x7e12 <__eewr_byte_m328p>
    7e30:	27 2f       	mov	r18, r23
    7e32:	f0 cf       	rjmp	.-32     	; 0x7e14 <__eewr_r18_m328p>

00007e34 <__eerd_block_m328p>:
    7e34:	dc 01       	movw	r26, r24
    7e36:	cb 01       	movw	r24, r22

00007e38 <__eerd_blraw_m328p>:
    7e38:	fc 01       	movw	r30, r24
    7e3a:	f9 99       	sbic	0x1f, 1	; 31
    7e3c:	fe cf       	rjmp	.-4      	; 0x7e3a <__eerd_blraw_m328p+0x2>
    7e3e:	06 c0       	rjmp	.+12     	; 0x7e4c <__eerd_blraw_m328p+0x14>
    7e40:	f2 bd       	out	0x22, r31	; 34
    7e42:	e1 bd       	out	0x21, r30	; 33
    7e44:	f8 9a       	sbi	0x1f, 0	; 31
    7e46:	31 96       	adiw	r30, 0x01	; 1
    7e48:	00 b4       	in	r0, 0x20	; 32
    7e4a:	0d 92       	st	X+, r0
    7e4c:	41 50       	subi	r20, 0x01	; 1
    7e4e:	50 40       	sbci	r21, 0x00	; 0
    7e50:	b8 f7       	brcc	.-18     	; 0x7e40 <__eerd_blraw_m328p+0x8>
    7e52:	08 95       	ret

00007e54 <__do_global_dtors>:
    7e54:	13 e0       	ldi	r17, 0x03	; 3
    7e56:	c0 ec       	ldi	r28, 0xC0	; 192
    7e58:	d3 e0       	ldi	r29, 0x03	; 3
    7e5a:	03 c0       	rjmp	.+6      	; 0x7e62 <__do_global_dtors+0xe>
    7e5c:	fe 01       	movw	r30, r28
    7e5e:	8b df       	rcall	.-234    	; 0x7d76 <__tablejump__>
    7e60:	22 96       	adiw	r28, 0x02	; 2
    7e62:	c2 3c       	cpi	r28, 0xC2	; 194
    7e64:	d1 07       	cpc	r29, r17
    7e66:	d1 f7       	brne	.-12     	; 0x7e5c <__do_global_dtors+0x8>
    7e68:	f8 94       	cli

00007e6a <__stop_program>:
    7e6a:	ff cf       	rjmp	.-2      	; 0x7e6a <__stop_program>
