
NikFocusStackAdaFruitLcdShield.elf:     file format elf32-avr

Sections:
Idx Name          Size      VMA       LMA       File off  Algn
  0 .data         00000132  00800100  00005678  0000572c  2**0
                  CONTENTS, ALLOC, LOAD, DATA
  1 .text         00005678  00000000  00000000  000000b4  2**1
                  CONTENTS, ALLOC, LOAD, READONLY, CODE
  2 .bss          000002c5  00800232  00800232  0000585e  2**0
                  ALLOC
  3 .eeprom       00000006  00810000  00810000  0000585e  2**0
                  CONTENTS, ALLOC, LOAD, DATA
  4 .comment      0000005f  00000000  00000000  00005864  2**0
                  CONTENTS, READONLY

Disassembly of section .text:

00000000 <__vectors>:
       0:	e7 c0       	rjmp	.+462    	; 0x1d0 <__dtors_end>
       2:	00 00       	nop
       4:	0d c1       	rjmp	.+538    	; 0x220 <__bad_interrupt>
       6:	00 00       	nop
       8:	0b c1       	rjmp	.+534    	; 0x220 <__bad_interrupt>
       a:	00 00       	nop
       c:	09 c1       	rjmp	.+530    	; 0x220 <__bad_interrupt>
       e:	00 00       	nop
      10:	07 c1       	rjmp	.+526    	; 0x220 <__bad_interrupt>
      12:	00 00       	nop
      14:	05 c1       	rjmp	.+522    	; 0x220 <__bad_interrupt>
      16:	00 00       	nop
      18:	03 c1       	rjmp	.+518    	; 0x220 <__bad_interrupt>
      1a:	00 00       	nop
      1c:	01 c1       	rjmp	.+514    	; 0x220 <__bad_interrupt>
      1e:	00 00       	nop
      20:	ff c0       	rjmp	.+510    	; 0x220 <__bad_interrupt>
      22:	00 00       	nop
      24:	fd c0       	rjmp	.+506    	; 0x220 <__bad_interrupt>
      26:	00 00       	nop
      28:	fb c0       	rjmp	.+502    	; 0x220 <__bad_interrupt>
      2a:	00 00       	nop
      2c:	f9 c0       	rjmp	.+498    	; 0x220 <__bad_interrupt>
      2e:	00 00       	nop
      30:	f7 c0       	rjmp	.+494    	; 0x220 <__bad_interrupt>
      32:	00 00       	nop
      34:	f5 c0       	rjmp	.+490    	; 0x220 <__bad_interrupt>
      36:	00 00       	nop
      38:	f3 c0       	rjmp	.+486    	; 0x220 <__bad_interrupt>
      3a:	00 00       	nop
      3c:	f1 c0       	rjmp	.+482    	; 0x220 <__bad_interrupt>
      3e:	00 00       	nop
      40:	0c 94 5d 18 	jmp	0x30ba	; 0x30ba <__vector_16>
      44:	ed c0       	rjmp	.+474    	; 0x220 <__bad_interrupt>
      46:	00 00       	nop
      48:	0c 94 9f 15 	jmp	0x2b3e	; 0x2b3e <__vector_18>
      4c:	0c 94 e0 15 	jmp	0x2bc0	; 0x2bc0 <__vector_19>
      50:	e7 c0       	rjmp	.+462    	; 0x220 <__bad_interrupt>
      52:	00 00       	nop
      54:	e5 c0       	rjmp	.+458    	; 0x220 <__bad_interrupt>
      56:	00 00       	nop
      58:	e3 c0       	rjmp	.+454    	; 0x220 <__bad_interrupt>
      5a:	00 00       	nop
      5c:	e1 c0       	rjmp	.+450    	; 0x220 <__bad_interrupt>
      5e:	00 00       	nop
      60:	0c 94 0b 13 	jmp	0x2616	; 0x2616 <__vector_24>
      64:	dd c0       	rjmp	.+442    	; 0x220 <__bad_interrupt>
	...

00000068 <__trampolines_end>:
      68:	55 53       	subi	r21, 0x35	; 53
      6a:	42 20       	and	r4, r2
      6c:	64 69       	ori	r22, 0x94	; 148
      6e:	64 20       	and	r6, r4
      70:	6e 6f       	ori	r22, 0xFE	; 254
      72:	74 20       	and	r7, r4
      74:	73 74       	andi	r23, 0x43	; 67
      76:	61 72       	andi	r22, 0x21	; 33
      78:	74 2e       	mov	r7, r20
	...

0000007b <_ZZN10NikType00320restoreOriginalFocusEvE3__c>:
      7b:	52 65 73 74 6f 72 65 00                             Restore.

00000083 <_ZZN10NikType00319focusStackNextFrameEvE3__c>:
      83:	43 61 72 64 46 75 6c 6c 00                          CardFull.

0000008c <_ZZN10NikType00316prepareNextFrameEvE3__c_2>:
      8c:	49 6e 66 00                                         Inf.

00000090 <_ZZN10NikType00316prepareNextFrameEvE3__c_1>:
      90:	4c 56 20 6f 66 66 00                                LV off.

00000097 <_ZZN10NikType00316prepareNextFrameEvE3__c_0>:
      97:	46 6f 63 75 73 00                                   Focus.

0000009d <_ZZN10NikType00316prepareNextFrameEvE3__c>:
      9d:	4c 56 20 6f 6e 00                                   LV on.

000000a3 <_ZZN10NikType00313captureToCardEvE3__c>:
      a3:	43 61 70 74 75 72 65 00                             Capture.

000000ab <_ZZN10NikType0037OnEventEPK7NKEventE3__c>:
      ab:	43 61 70 20 4f 4b 00                                Cap OK.

000000b2 <_ZZN10NikType0034InitEhhbE3__c>:
      b2:	4e 6f 74 20 6e 69 6b 6f 6e 00                       Not nikon.

000000bc <_ZZN20RunFocusStackHandler11reportDelayEhE3__c_1>:
      bc:	20 20 20 20 20 20 20 20 00                                  .

000000c5 <_ZZN20RunFocusStackHandler11reportDelayEhE3__c_0>:
      c5:	20 20 20 20 00                                          .

000000ca <_ZZN20RunFocusStackHandler11reportDelayEhE3__c>:
      ca:	44 65 6c 61 79 00                                   Delay.

000000d0 <_ZZN20RunFocusStackHandler11reportFrameEjE3__c>:
      d0:	20 20 20 20 00                                          .

000000d5 <_ZZN20RunFocusStackHandler12reportStatusEPK19__FlashStringHelperE3__c>:
      d5:	20 20 20 20 20 20 20 00                                    .

000000dd <_ZZN12SetupHandler20updateRestoreFocusUIEiE3__c_1>:
      dd:	4e 6f 00                                            No.

000000e0 <_ZZN12SetupHandler20updateRestoreFocusUIEiE3__c_0>:
      e0:	59 65 73 00                                         Yes.

000000e4 <_ZZN12SetupHandler20updateRestoreFocusUIEiE3__c>:
      e4:	20 20 20 00                                            .

000000e8 <_ZZN12SetupHandler18updateFrameDelayUIEiE3__c>:
      e8:	30 00                                               0.

000000ea <_ZZN12SetupHandler14updateFramesUIEiE3__c>:
      ea:	30 00                                               0.

000000ec <_ZZN12SetupHandler19updateDriveAmountUIEiE3__c>:
      ec:	30 00                                               0.

000000ee <digital_pin_to_timer_PGM>:
      ee:	00 00 00 07 00 02 01 00 00 03 04 06 00 00 00 00     ................
      fe:	00 00 00 00                                         ....

00000102 <digital_pin_to_bit_mask_PGM>:
     102:	01 02 04 08 10 20 40 80 01 02 04 08 10 20 01 02     ..... @...... ..
     112:	04 08 10 20                                         ... 

00000116 <digital_pin_to_port_PGM>:
     116:	04 04 04 04 04 04 04 04 02 02 02 02 02 02 03 03     ................
     126:	03 03 03 03                                         ....

0000012a <port_to_output_PGM>:
     12a:	00 00 00 00 25 00 28 00 2b 00                       ....%.(.+.

00000134 <port_to_mode_PGM>:
     134:	00 00 00 00 24 00 27 00 2a 00                       ....$.'.*.

0000013e <_ZZN20MultiByteValueParser5ParseEPPhPjE3__c>:
     13e:	42 75 66 66 65 72 20 70 6f 69 6e 74 65 72 20 69     Buffer pointer i
     14e:	73 20 4e 55 4c 4c 21 0d 0a 00                       s NULL!...

00000158 <_ZZN3USB10inTransferEhhPjPhE3__c_4>:
     158:	0d 0a 00                                            ...

0000015b <_ZZN3USB10inTransferEhhPjPhE3__c_3>:
     15b:	28 55 53 42 3a 3a 49 6e 54 72 61 6e 73 66 65 72     (USB::InTransfer
     16b:	29 20 65 70 20 72 65 71 75 65 73 74 65 64 20 00     ) ep requested .

0000017b <_ZZN3USB10inTransferEhhPjPhE3__c_2>:
     17b:	0d 0a 00                                            ...

0000017e <_ZZN3USB10inTransferEhhPjPhE3__c_1>:
     17e:	28 55 53 42 3a 3a 49 6e 54 72 61 6e 73 66 65 72     (USB::InTransfer
     18e:	29 20 61 64 64 72 20 72 65 71 75 65 73 74 65 64     ) addr requested
     19e:	20 00                                                .

000001a0 <_ZZN3USB10inTransferEhhPjPhE3__c_0>:
     1a0:	0d 0a 00                                            ...

000001a3 <_ZZN3USB10inTransferEhhPjPhE3__c>:
     1a3:	28 55 53 42 3a 3a 49 6e 54 72 61 6e 73 66 65 72     (USB::InTransfer
     1b3:	29 20 53 65 74 41 64 64 72 65 73 73 20 46 61 69     ) SetAddress Fai
     1c3:	6c 65 64 20 00                                      led .

000001c8 <__ctors_start>:
     1c8:	90 07       	cpc	r25, r16
     1ca:	00 15       	cp	r16, r0
     1cc:	9c 16       	cp	r9, r28

000001ce <__ctors_end>:
     1ce:	f7 07       	cpc	r31, r23

000001d0 <__dtors_end>:
     1d0:	11 24       	eor	r1, r1
     1d2:	1f be       	out	0x3f, r1	; 63
     1d4:	cf ef       	ldi	r28, 0xFF	; 255
     1d6:	d8 e0       	ldi	r29, 0x08	; 8
     1d8:	de bf       	out	0x3e, r29	; 62
     1da:	cd bf       	out	0x3d, r28	; 61

000001dc <__do_copy_data>:
     1dc:	12 e0       	ldi	r17, 0x02	; 2
     1de:	a0 e0       	ldi	r26, 0x00	; 0
     1e0:	b1 e0       	ldi	r27, 0x01	; 1
     1e2:	e8 e7       	ldi	r30, 0x78	; 120
     1e4:	f6 e5       	ldi	r31, 0x56	; 86
     1e6:	02 c0       	rjmp	.+4      	; 0x1ec <__do_copy_data+0x10>
     1e8:	05 90       	lpm	r0, Z+
     1ea:	0d 92       	st	X+, r0
     1ec:	a2 33       	cpi	r26, 0x32	; 50
     1ee:	b1 07       	cpc	r27, r17
     1f0:	d9 f7       	brne	.-10     	; 0x1e8 <__do_copy_data+0xc>

000001f2 <__do_clear_bss>:
     1f2:	24 e0       	ldi	r18, 0x04	; 4
     1f4:	a2 e3       	ldi	r26, 0x32	; 50
     1f6:	b2 e0       	ldi	r27, 0x02	; 2
     1f8:	01 c0       	rjmp	.+2      	; 0x1fc <.do_clear_bss_start>

000001fa <.do_clear_bss_loop>:
     1fa:	1d 92       	st	X+, r1

000001fc <.do_clear_bss_start>:
     1fc:	a7 3f       	cpi	r26, 0xF7	; 247
     1fe:	b2 07       	cpc	r27, r18
     200:	e1 f7       	brne	.-8      	; 0x1fa <.do_clear_bss_loop>

00000202 <__do_global_ctors>:
     202:	11 e0       	ldi	r17, 0x01	; 1
     204:	ce ec       	ldi	r28, 0xCE	; 206
     206:	d1 e0       	ldi	r29, 0x01	; 1
     208:	04 c0       	rjmp	.+8      	; 0x212 <__do_global_ctors+0x10>
     20a:	22 97       	sbiw	r28, 0x02	; 2
     20c:	fe 01       	movw	r30, r28
     20e:	0e 94 e6 2a 	call	0x55cc	; 0x55cc <__tablejump__>
     212:	c8 3c       	cpi	r28, 0xC8	; 200
     214:	d1 07       	cpc	r29, r17
     216:	c9 f7       	brne	.-14     	; 0x20a <__do_global_ctors+0x8>
     218:	0e 94 f2 16 	call	0x2de4	; 0x2de4 <main>
     21c:	0c 94 30 2b 	jmp	0x5660	; 0x5660 <__do_global_dtors>

00000220 <__bad_interrupt>:
     220:	ef ce       	rjmp	.-546    	; 0x0 <__vectors>

00000222 <_ZL8wiresendh>:
     222:	68 2f       	mov	r22, r24
     224:	8a ee       	ldi	r24, 0xEA	; 234
     226:	93 e0       	ldi	r25, 0x03	; 3
     228:	0c 94 8c 14 	jmp	0x2918	; 0x2918 <_ZN7TwoWire5writeEh>

0000022c <_ZN17Adafruit_MCP230175beginEh>:
     22c:	cf 93       	push	r28
     22e:	df 93       	push	r29
     230:	ec 01       	movw	r28, r24
     232:	68 30       	cpi	r22, 0x08	; 8
     234:	08 f0       	brcs	.+2      	; 0x238 <_ZN17Adafruit_MCP230175beginEh+0xc>
     236:	67 e0       	ldi	r22, 0x07	; 7
     238:	68 83       	st	Y, r22
     23a:	8a ee       	ldi	r24, 0xEA	; 234
     23c:	93 e0       	ldi	r25, 0x03	; 3
     23e:	0e 94 ca 14 	call	0x2994	; 0x2994 <_ZN7TwoWire5beginEv>
     242:	68 81       	ld	r22, Y
     244:	60 62       	ori	r22, 0x20	; 32
     246:	70 e0       	ldi	r23, 0x00	; 0
     248:	8a ee       	ldi	r24, 0xEA	; 234
     24a:	93 e0       	ldi	r25, 0x03	; 3
     24c:	0e 94 eb 14 	call	0x29d6	; 0x29d6 <_ZN7TwoWire17beginTransmissionEi>
     250:	80 e0       	ldi	r24, 0x00	; 0
     252:	e7 df       	rcall	.-50     	; 0x222 <_ZL8wiresendh>
     254:	8f ef       	ldi	r24, 0xFF	; 255
     256:	e5 df       	rcall	.-54     	; 0x222 <_ZL8wiresendh>
     258:	8a ee       	ldi	r24, 0xEA	; 234
     25a:	93 e0       	ldi	r25, 0x03	; 3
     25c:	0e 94 fe 14 	call	0x29fc	; 0x29fc <_ZN7TwoWire15endTransmissionEv>
     260:	68 81       	ld	r22, Y
     262:	60 62       	ori	r22, 0x20	; 32
     264:	70 e0       	ldi	r23, 0x00	; 0
     266:	8a ee       	ldi	r24, 0xEA	; 234
     268:	93 e0       	ldi	r25, 0x03	; 3
     26a:	0e 94 eb 14 	call	0x29d6	; 0x29d6 <_ZN7TwoWire17beginTransmissionEi>
     26e:	81 e0       	ldi	r24, 0x01	; 1
     270:	d8 df       	rcall	.-80     	; 0x222 <_ZL8wiresendh>
     272:	8f ef       	ldi	r24, 0xFF	; 255
     274:	d6 df       	rcall	.-84     	; 0x222 <_ZL8wiresendh>
     276:	8a ee       	ldi	r24, 0xEA	; 234
     278:	93 e0       	ldi	r25, 0x03	; 3
     27a:	df 91       	pop	r29
     27c:	cf 91       	pop	r28
     27e:	0c 94 fe 14 	jmp	0x29fc	; 0x29fc <_ZN7TwoWire15endTransmissionEv>

00000282 <_ZN17Adafruit_MCP230175beginEv>:
     282:	60 e0       	ldi	r22, 0x00	; 0
     284:	d3 cf       	rjmp	.-90     	; 0x22c <_ZN17Adafruit_MCP230175beginEh>

00000286 <_ZN17Adafruit_MCP2301711writeGPIOABEj>:
     286:	cf 93       	push	r28
     288:	df 93       	push	r29
     28a:	d6 2f       	mov	r29, r22
     28c:	c7 2f       	mov	r28, r23
     28e:	fc 01       	movw	r30, r24
     290:	90 81       	ld	r25, Z
     292:	90 62       	ori	r25, 0x20	; 32
     294:	69 2f       	mov	r22, r25
     296:	70 e0       	ldi	r23, 0x00	; 0
     298:	8a ee       	ldi	r24, 0xEA	; 234
     29a:	93 e0       	ldi	r25, 0x03	; 3
     29c:	0e 94 eb 14 	call	0x29d6	; 0x29d6 <_ZN7TwoWire17beginTransmissionEi>
     2a0:	82 e1       	ldi	r24, 0x12	; 18
     2a2:	bf df       	rcall	.-130    	; 0x222 <_ZL8wiresendh>
     2a4:	8d 2f       	mov	r24, r29
     2a6:	bd df       	rcall	.-134    	; 0x222 <_ZL8wiresendh>
     2a8:	8c 2f       	mov	r24, r28
     2aa:	bb df       	rcall	.-138    	; 0x222 <_ZL8wiresendh>
     2ac:	8a ee       	ldi	r24, 0xEA	; 234
     2ae:	93 e0       	ldi	r25, 0x03	; 3
     2b0:	df 91       	pop	r29
     2b2:	cf 91       	pop	r28
     2b4:	0c 94 fe 14 	jmp	0x29fc	; 0x29fc <_ZN7TwoWire15endTransmissionEv>

000002b8 <_ZN17Adafruit_MCP230176pullUpEhh>:
     2b8:	ff 92       	push	r15
     2ba:	0f 93       	push	r16
     2bc:	1f 93       	push	r17
     2be:	cf 93       	push	r28
     2c0:	df 93       	push	r29
     2c2:	ec 01       	movw	r28, r24
     2c4:	16 2f       	mov	r17, r22
     2c6:	f4 2e       	mov	r15, r20
     2c8:	60 31       	cpi	r22, 0x10	; 16
     2ca:	08 f0       	brcs	.+2      	; 0x2ce <_ZN17Adafruit_MCP230176pullUpEhh+0x16>
     2cc:	42 c0       	rjmp	.+132    	; 0x352 <_ZN17Adafruit_MCP230176pullUpEhh+0x9a>
     2ce:	68 30       	cpi	r22, 0x08	; 8
     2d0:	18 f0       	brcs	.+6      	; 0x2d8 <_ZN17Adafruit_MCP230176pullUpEhh+0x20>
     2d2:	18 50       	subi	r17, 0x08	; 8
     2d4:	0d e0       	ldi	r16, 0x0D	; 13
     2d6:	01 c0       	rjmp	.+2      	; 0x2da <_ZN17Adafruit_MCP230176pullUpEhh+0x22>
     2d8:	0c e0       	ldi	r16, 0x0C	; 12
     2da:	68 81       	ld	r22, Y
     2dc:	60 62       	ori	r22, 0x20	; 32
     2de:	70 e0       	ldi	r23, 0x00	; 0
     2e0:	8a ee       	ldi	r24, 0xEA	; 234
     2e2:	93 e0       	ldi	r25, 0x03	; 3
     2e4:	0e 94 eb 14 	call	0x29d6	; 0x29d6 <_ZN7TwoWire17beginTransmissionEi>
     2e8:	80 2f       	mov	r24, r16
     2ea:	9b df       	rcall	.-202    	; 0x222 <_ZL8wiresendh>
     2ec:	8a ee       	ldi	r24, 0xEA	; 234
     2ee:	93 e0       	ldi	r25, 0x03	; 3
     2f0:	0e 94 fe 14 	call	0x29fc	; 0x29fc <_ZN7TwoWire15endTransmissionEv>
     2f4:	68 81       	ld	r22, Y
     2f6:	60 62       	ori	r22, 0x20	; 32
     2f8:	70 e0       	ldi	r23, 0x00	; 0
     2fa:	41 e0       	ldi	r20, 0x01	; 1
     2fc:	50 e0       	ldi	r21, 0x00	; 0
     2fe:	8a ee       	ldi	r24, 0xEA	; 234
     300:	93 e0       	ldi	r25, 0x03	; 3
     302:	0e 94 df 14 	call	0x29be	; 0x29be <_ZN7TwoWire11requestFromEii>
     306:	8a ee       	ldi	r24, 0xEA	; 234
     308:	93 e0       	ldi	r25, 0x03	; 3
     30a:	0e 94 3d 14 	call	0x287a	; 0x287a <_ZN7TwoWire4readEv>
     30e:	91 e0       	ldi	r25, 0x01	; 1
     310:	21 e0       	ldi	r18, 0x01	; 1
     312:	30 e0       	ldi	r19, 0x00	; 0
     314:	01 c0       	rjmp	.+2      	; 0x318 <_ZN17Adafruit_MCP230176pullUpEhh+0x60>
     316:	22 0f       	add	r18, r18
     318:	1a 95       	dec	r17
     31a:	ea f7       	brpl	.-6      	; 0x316 <_ZN17Adafruit_MCP230176pullUpEhh+0x5e>
     31c:	12 2f       	mov	r17, r18
     31e:	f9 12       	cpse	r15, r25
     320:	02 c0       	rjmp	.+4      	; 0x326 <_ZN17Adafruit_MCP230176pullUpEhh+0x6e>
     322:	18 2b       	or	r17, r24
     324:	02 c0       	rjmp	.+4      	; 0x32a <_ZN17Adafruit_MCP230176pullUpEhh+0x72>
     326:	10 95       	com	r17
     328:	18 23       	and	r17, r24
     32a:	68 81       	ld	r22, Y
     32c:	60 62       	ori	r22, 0x20	; 32
     32e:	70 e0       	ldi	r23, 0x00	; 0
     330:	8a ee       	ldi	r24, 0xEA	; 234
     332:	93 e0       	ldi	r25, 0x03	; 3
     334:	0e 94 eb 14 	call	0x29d6	; 0x29d6 <_ZN7TwoWire17beginTransmissionEi>
     338:	80 2f       	mov	r24, r16
     33a:	73 df       	rcall	.-282    	; 0x222 <_ZL8wiresendh>
     33c:	81 2f       	mov	r24, r17
     33e:	71 df       	rcall	.-286    	; 0x222 <_ZL8wiresendh>
     340:	8a ee       	ldi	r24, 0xEA	; 234
     342:	93 e0       	ldi	r25, 0x03	; 3
     344:	df 91       	pop	r29
     346:	cf 91       	pop	r28
     348:	1f 91       	pop	r17
     34a:	0f 91       	pop	r16
     34c:	ff 90       	pop	r15
     34e:	0c 94 fe 14 	jmp	0x29fc	; 0x29fc <_ZN7TwoWire15endTransmissionEv>
     352:	df 91       	pop	r29
     354:	cf 91       	pop	r28
     356:	1f 91       	pop	r17
     358:	0f 91       	pop	r16
     35a:	ff 90       	pop	r15
     35c:	08 95       	ret

0000035e <_ZN17Adafruit_MCP2301711digitalReadEh>:
     35e:	0f 93       	push	r16
     360:	1f 93       	push	r17
     362:	cf 93       	push	r28
     364:	df 93       	push	r29
     366:	ec 01       	movw	r28, r24
     368:	16 2f       	mov	r17, r22
     36a:	60 31       	cpi	r22, 0x10	; 16
     36c:	40 f5       	brcc	.+80     	; 0x3be <_ZN17Adafruit_MCP2301711digitalReadEh+0x60>
     36e:	68 30       	cpi	r22, 0x08	; 8
     370:	18 f0       	brcs	.+6      	; 0x378 <_ZN17Adafruit_MCP2301711digitalReadEh+0x1a>
     372:	18 50       	subi	r17, 0x08	; 8
     374:	03 e1       	ldi	r16, 0x13	; 19
     376:	01 c0       	rjmp	.+2      	; 0x37a <_ZN17Adafruit_MCP2301711digitalReadEh+0x1c>
     378:	02 e1       	ldi	r16, 0x12	; 18
     37a:	68 81       	ld	r22, Y
     37c:	60 62       	ori	r22, 0x20	; 32
     37e:	70 e0       	ldi	r23, 0x00	; 0
     380:	8a ee       	ldi	r24, 0xEA	; 234
     382:	93 e0       	ldi	r25, 0x03	; 3
     384:	0e 94 eb 14 	call	0x29d6	; 0x29d6 <_ZN7TwoWire17beginTransmissionEi>
     388:	80 2f       	mov	r24, r16
     38a:	4b df       	rcall	.-362    	; 0x222 <_ZL8wiresendh>
     38c:	8a ee       	ldi	r24, 0xEA	; 234
     38e:	93 e0       	ldi	r25, 0x03	; 3
     390:	0e 94 fe 14 	call	0x29fc	; 0x29fc <_ZN7TwoWire15endTransmissionEv>
     394:	68 81       	ld	r22, Y
     396:	60 62       	ori	r22, 0x20	; 32
     398:	70 e0       	ldi	r23, 0x00	; 0
     39a:	41 e0       	ldi	r20, 0x01	; 1
     39c:	50 e0       	ldi	r21, 0x00	; 0
     39e:	8a ee       	ldi	r24, 0xEA	; 234
     3a0:	93 e0       	ldi	r25, 0x03	; 3
     3a2:	0e 94 df 14 	call	0x29be	; 0x29be <_ZN7TwoWire11requestFromEii>
     3a6:	8a ee       	ldi	r24, 0xEA	; 234
     3a8:	93 e0       	ldi	r25, 0x03	; 3
     3aa:	0e 94 3d 14 	call	0x287a	; 0x287a <_ZN7TwoWire4readEv>
     3ae:	99 27       	eor	r25, r25
     3b0:	02 c0       	rjmp	.+4      	; 0x3b6 <_ZN17Adafruit_MCP2301711digitalReadEh+0x58>
     3b2:	95 95       	asr	r25
     3b4:	87 95       	ror	r24
     3b6:	1a 95       	dec	r17
     3b8:	e2 f7       	brpl	.-8      	; 0x3b2 <_ZN17Adafruit_MCP2301711digitalReadEh+0x54>
     3ba:	81 70       	andi	r24, 0x01	; 1
     3bc:	01 c0       	rjmp	.+2      	; 0x3c0 <_ZN17Adafruit_MCP2301711digitalReadEh+0x62>
     3be:	80 e0       	ldi	r24, 0x00	; 0
     3c0:	df 91       	pop	r29
     3c2:	cf 91       	pop	r28
     3c4:	1f 91       	pop	r17
     3c6:	0f 91       	pop	r16
     3c8:	08 95       	ret

000003ca <_ZN17Adafruit_MCP2301710readGPIOABEv>:
     3ca:	cf 93       	push	r28
     3cc:	df 93       	push	r29
     3ce:	ec 01       	movw	r28, r24
     3d0:	68 81       	ld	r22, Y
     3d2:	60 62       	ori	r22, 0x20	; 32
     3d4:	70 e0       	ldi	r23, 0x00	; 0
     3d6:	8a ee       	ldi	r24, 0xEA	; 234
     3d8:	93 e0       	ldi	r25, 0x03	; 3
     3da:	0e 94 eb 14 	call	0x29d6	; 0x29d6 <_ZN7TwoWire17beginTransmissionEi>
     3de:	82 e1       	ldi	r24, 0x12	; 18
     3e0:	20 df       	rcall	.-448    	; 0x222 <_ZL8wiresendh>
     3e2:	8a ee       	ldi	r24, 0xEA	; 234
     3e4:	93 e0       	ldi	r25, 0x03	; 3
     3e6:	0e 94 fe 14 	call	0x29fc	; 0x29fc <_ZN7TwoWire15endTransmissionEv>
     3ea:	68 81       	ld	r22, Y
     3ec:	60 62       	ori	r22, 0x20	; 32
     3ee:	70 e0       	ldi	r23, 0x00	; 0
     3f0:	42 e0       	ldi	r20, 0x02	; 2
     3f2:	50 e0       	ldi	r21, 0x00	; 0
     3f4:	8a ee       	ldi	r24, 0xEA	; 234
     3f6:	93 e0       	ldi	r25, 0x03	; 3
     3f8:	0e 94 df 14 	call	0x29be	; 0x29be <_ZN7TwoWire11requestFromEii>
     3fc:	8a ee       	ldi	r24, 0xEA	; 234
     3fe:	93 e0       	ldi	r25, 0x03	; 3
     400:	0e 94 3d 14 	call	0x287a	; 0x287a <_ZN7TwoWire4readEv>
     404:	c8 2f       	mov	r28, r24
     406:	8a ee       	ldi	r24, 0xEA	; 234
     408:	93 e0       	ldi	r25, 0x03	; 3
     40a:	0e 94 3d 14 	call	0x287a	; 0x287a <_ZN7TwoWire4readEv>
     40e:	98 2f       	mov	r25, r24
     410:	88 27       	eor	r24, r24
     412:	8c 2b       	or	r24, r28
     414:	df 91       	pop	r29
     416:	cf 91       	pop	r28
     418:	08 95       	ret

0000041a <_ZN17Adafruit_MCP230177pinModeEhh>:
     41a:	ff 92       	push	r15
     41c:	0f 93       	push	r16
     41e:	1f 93       	push	r17
     420:	cf 93       	push	r28
     422:	df 93       	push	r29
     424:	ec 01       	movw	r28, r24
     426:	16 2f       	mov	r17, r22
     428:	f4 2e       	mov	r15, r20
     42a:	60 31       	cpi	r22, 0x10	; 16
     42c:	08 f0       	brcs	.+2      	; 0x430 <_ZN17Adafruit_MCP230177pinModeEhh+0x16>
     42e:	41 c0       	rjmp	.+130    	; 0x4b2 <_ZN17Adafruit_MCP230177pinModeEhh+0x98>
     430:	68 30       	cpi	r22, 0x08	; 8
     432:	18 f0       	brcs	.+6      	; 0x43a <_ZN17Adafruit_MCP230177pinModeEhh+0x20>
     434:	18 50       	subi	r17, 0x08	; 8
     436:	01 e0       	ldi	r16, 0x01	; 1
     438:	01 c0       	rjmp	.+2      	; 0x43c <_ZN17Adafruit_MCP230177pinModeEhh+0x22>
     43a:	00 e0       	ldi	r16, 0x00	; 0
     43c:	68 81       	ld	r22, Y
     43e:	60 62       	ori	r22, 0x20	; 32
     440:	70 e0       	ldi	r23, 0x00	; 0
     442:	8a ee       	ldi	r24, 0xEA	; 234
     444:	93 e0       	ldi	r25, 0x03	; 3
     446:	0e 94 eb 14 	call	0x29d6	; 0x29d6 <_ZN7TwoWire17beginTransmissionEi>
     44a:	80 2f       	mov	r24, r16
     44c:	ea de       	rcall	.-556    	; 0x222 <_ZL8wiresendh>
     44e:	8a ee       	ldi	r24, 0xEA	; 234
     450:	93 e0       	ldi	r25, 0x03	; 3
     452:	0e 94 fe 14 	call	0x29fc	; 0x29fc <_ZN7TwoWire15endTransmissionEv>
     456:	68 81       	ld	r22, Y
     458:	60 62       	ori	r22, 0x20	; 32
     45a:	70 e0       	ldi	r23, 0x00	; 0
     45c:	41 e0       	ldi	r20, 0x01	; 1
     45e:	50 e0       	ldi	r21, 0x00	; 0
     460:	8a ee       	ldi	r24, 0xEA	; 234
     462:	93 e0       	ldi	r25, 0x03	; 3
     464:	0e 94 df 14 	call	0x29be	; 0x29be <_ZN7TwoWire11requestFromEii>
     468:	8a ee       	ldi	r24, 0xEA	; 234
     46a:	93 e0       	ldi	r25, 0x03	; 3
     46c:	0e 94 3d 14 	call	0x287a	; 0x287a <_ZN7TwoWire4readEv>
     470:	21 e0       	ldi	r18, 0x01	; 1
     472:	30 e0       	ldi	r19, 0x00	; 0
     474:	01 c0       	rjmp	.+2      	; 0x478 <_ZN17Adafruit_MCP230177pinModeEhh+0x5e>
     476:	22 0f       	add	r18, r18
     478:	1a 95       	dec	r17
     47a:	ea f7       	brpl	.-6      	; 0x476 <_ZN17Adafruit_MCP230177pinModeEhh+0x5c>
     47c:	12 2f       	mov	r17, r18
     47e:	f1 10       	cpse	r15, r1
     480:	02 c0       	rjmp	.+4      	; 0x486 <_ZN17Adafruit_MCP230177pinModeEhh+0x6c>
     482:	18 2b       	or	r17, r24
     484:	02 c0       	rjmp	.+4      	; 0x48a <_ZN17Adafruit_MCP230177pinModeEhh+0x70>
     486:	10 95       	com	r17
     488:	18 23       	and	r17, r24
     48a:	68 81       	ld	r22, Y
     48c:	60 62       	ori	r22, 0x20	; 32
     48e:	70 e0       	ldi	r23, 0x00	; 0
     490:	8a ee       	ldi	r24, 0xEA	; 234
     492:	93 e0       	ldi	r25, 0x03	; 3
     494:	0e 94 eb 14 	call	0x29d6	; 0x29d6 <_ZN7TwoWire17beginTransmissionEi>
     498:	80 2f       	mov	r24, r16
     49a:	c3 de       	rcall	.-634    	; 0x222 <_ZL8wiresendh>
     49c:	81 2f       	mov	r24, r17
     49e:	c1 de       	rcall	.-638    	; 0x222 <_ZL8wiresendh>
     4a0:	8a ee       	ldi	r24, 0xEA	; 234
     4a2:	93 e0       	ldi	r25, 0x03	; 3
     4a4:	df 91       	pop	r29
     4a6:	cf 91       	pop	r28
     4a8:	1f 91       	pop	r17
     4aa:	0f 91       	pop	r16
     4ac:	ff 90       	pop	r15
     4ae:	0c 94 fe 14 	jmp	0x29fc	; 0x29fc <_ZN7TwoWire15endTransmissionEv>
     4b2:	df 91       	pop	r29
     4b4:	cf 91       	pop	r28
     4b6:	1f 91       	pop	r17
     4b8:	0f 91       	pop	r16
     4ba:	ff 90       	pop	r15
     4bc:	08 95       	ret

000004be <_ZN17Adafruit_MCP2301712digitalWriteEhh>:
     4be:	cf 92       	push	r12
     4c0:	df 92       	push	r13
     4c2:	ff 92       	push	r15
     4c4:	0f 93       	push	r16
     4c6:	1f 93       	push	r17
     4c8:	cf 93       	push	r28
     4ca:	df 93       	push	r29
     4cc:	1f 92       	push	r1
     4ce:	cd b7       	in	r28, 0x3d	; 61
     4d0:	de b7       	in	r29, 0x3e	; 62
     4d2:	6c 01       	movw	r12, r24
     4d4:	16 2f       	mov	r17, r22
     4d6:	f4 2e       	mov	r15, r20
     4d8:	60 31       	cpi	r22, 0x10	; 16
     4da:	08 f0       	brcs	.+2      	; 0x4de <_ZN17Adafruit_MCP2301712digitalWriteEhh+0x20>
     4dc:	4c c0       	rjmp	.+152    	; 0x576 <_ZN17Adafruit_MCP2301712digitalWriteEhh+0xb8>
     4de:	68 30       	cpi	r22, 0x08	; 8
     4e0:	20 f0       	brcs	.+8      	; 0x4ea <_ZN17Adafruit_MCP2301712digitalWriteEhh+0x2c>
     4e2:	18 50       	subi	r17, 0x08	; 8
     4e4:	25 e1       	ldi	r18, 0x15	; 21
     4e6:	03 e1       	ldi	r16, 0x13	; 19
     4e8:	02 c0       	rjmp	.+4      	; 0x4ee <_ZN17Adafruit_MCP2301712digitalWriteEhh+0x30>
     4ea:	24 e1       	ldi	r18, 0x14	; 20
     4ec:	02 e1       	ldi	r16, 0x12	; 18
     4ee:	f6 01       	movw	r30, r12
     4f0:	60 81       	ld	r22, Z
     4f2:	60 62       	ori	r22, 0x20	; 32
     4f4:	70 e0       	ldi	r23, 0x00	; 0
     4f6:	8a ee       	ldi	r24, 0xEA	; 234
     4f8:	93 e0       	ldi	r25, 0x03	; 3
     4fa:	29 83       	std	Y+1, r18	; 0x01
     4fc:	0e 94 eb 14 	call	0x29d6	; 0x29d6 <_ZN7TwoWire17beginTransmissionEi>
     500:	29 81       	ldd	r18, Y+1	; 0x01
     502:	82 2f       	mov	r24, r18
     504:	8e de       	rcall	.-740    	; 0x222 <_ZL8wiresendh>
     506:	8a ee       	ldi	r24, 0xEA	; 234
     508:	93 e0       	ldi	r25, 0x03	; 3
     50a:	0e 94 fe 14 	call	0x29fc	; 0x29fc <_ZN7TwoWire15endTransmissionEv>
     50e:	f6 01       	movw	r30, r12
     510:	60 81       	ld	r22, Z
     512:	60 62       	ori	r22, 0x20	; 32
     514:	70 e0       	ldi	r23, 0x00	; 0
     516:	41 e0       	ldi	r20, 0x01	; 1
     518:	50 e0       	ldi	r21, 0x00	; 0
     51a:	8a ee       	ldi	r24, 0xEA	; 234
     51c:	93 e0       	ldi	r25, 0x03	; 3
     51e:	0e 94 df 14 	call	0x29be	; 0x29be <_ZN7TwoWire11requestFromEii>
     522:	8a ee       	ldi	r24, 0xEA	; 234
     524:	93 e0       	ldi	r25, 0x03	; 3
     526:	0e 94 3d 14 	call	0x287a	; 0x287a <_ZN7TwoWire4readEv>
     52a:	f1 e0       	ldi	r31, 0x01	; 1
     52c:	21 e0       	ldi	r18, 0x01	; 1
     52e:	30 e0       	ldi	r19, 0x00	; 0
     530:	01 c0       	rjmp	.+2      	; 0x534 <_ZN17Adafruit_MCP2301712digitalWriteEhh+0x76>
     532:	22 0f       	add	r18, r18
     534:	1a 95       	dec	r17
     536:	ea f7       	brpl	.-6      	; 0x532 <_ZN17Adafruit_MCP2301712digitalWriteEhh+0x74>
     538:	12 2f       	mov	r17, r18
     53a:	ff 12       	cpse	r15, r31
     53c:	02 c0       	rjmp	.+4      	; 0x542 <_ZN17Adafruit_MCP2301712digitalWriteEhh+0x84>
     53e:	18 2b       	or	r17, r24
     540:	02 c0       	rjmp	.+4      	; 0x546 <_ZN17Adafruit_MCP2301712digitalWriteEhh+0x88>
     542:	10 95       	com	r17
     544:	18 23       	and	r17, r24
     546:	f6 01       	movw	r30, r12
     548:	60 81       	ld	r22, Z
     54a:	60 62       	ori	r22, 0x20	; 32
     54c:	70 e0       	ldi	r23, 0x00	; 0
     54e:	8a ee       	ldi	r24, 0xEA	; 234
     550:	93 e0       	ldi	r25, 0x03	; 3
     552:	0e 94 eb 14 	call	0x29d6	; 0x29d6 <_ZN7TwoWire17beginTransmissionEi>
     556:	80 2f       	mov	r24, r16
     558:	64 de       	rcall	.-824    	; 0x222 <_ZL8wiresendh>
     55a:	81 2f       	mov	r24, r17
     55c:	62 de       	rcall	.-828    	; 0x222 <_ZL8wiresendh>
     55e:	8a ee       	ldi	r24, 0xEA	; 234
     560:	93 e0       	ldi	r25, 0x03	; 3
     562:	0f 90       	pop	r0
     564:	df 91       	pop	r29
     566:	cf 91       	pop	r28
     568:	1f 91       	pop	r17
     56a:	0f 91       	pop	r16
     56c:	ff 90       	pop	r15
     56e:	df 90       	pop	r13
     570:	cf 90       	pop	r12
     572:	0c 94 fe 14 	jmp	0x29fc	; 0x29fc <_ZN7TwoWire15endTransmissionEv>
     576:	0f 90       	pop	r0
     578:	df 91       	pop	r29
     57a:	cf 91       	pop	r28
     57c:	1f 91       	pop	r17
     57e:	0f 91       	pop	r16
     580:	ff 90       	pop	r15
     582:	df 90       	pop	r13
     584:	cf 90       	pop	r12
     586:	08 95       	ret

00000588 <_ZN21Adafruit_RGBLCDShieldC1Ev>:
     588:	fc 01       	movw	r30, r24
     58a:	13 82       	std	Z+3, r1	; 0x03
     58c:	12 82       	std	Z+2, r1	; 0x02
     58e:	86 e2       	ldi	r24, 0x26	; 38
     590:	91 e0       	ldi	r25, 0x01	; 1
     592:	91 83       	std	Z+1, r25	; 0x01
     594:	80 83       	st	Z, r24
     596:	12 8e       	std	Z+26, r1	; 0x1a
     598:	14 8a       	std	Z+20, r1	; 0x14
     59a:	8f e0       	ldi	r24, 0x0F	; 15
     59c:	84 83       	std	Z+4, r24	; 0x04
     59e:	8e e0       	ldi	r24, 0x0E	; 14
     5a0:	85 83       	std	Z+5, r24	; 0x05
     5a2:	8d e0       	ldi	r24, 0x0D	; 13
     5a4:	86 83       	std	Z+6, r24	; 0x06
     5a6:	8c e0       	ldi	r24, 0x0C	; 12
     5a8:	87 83       	std	Z+7, r24	; 0x07
     5aa:	8b e0       	ldi	r24, 0x0B	; 11
     5ac:	80 87       	std	Z+8, r24	; 0x08
     5ae:	8a e0       	ldi	r24, 0x0A	; 10
     5b0:	81 87       	std	Z+9, r24	; 0x09
     5b2:	89 e0       	ldi	r24, 0x09	; 9
     5b4:	82 87       	std	Z+10, r24	; 0x0a
     5b6:	17 86       	std	Z+15, r1	; 0x0f
     5b8:	81 e0       	ldi	r24, 0x01	; 1
     5ba:	80 8b       	std	Z+16, r24	; 0x10
     5bc:	82 e0       	ldi	r24, 0x02	; 2
     5be:	81 8b       	std	Z+17, r24	; 0x11
     5c0:	83 e0       	ldi	r24, 0x03	; 3
     5c2:	82 8b       	std	Z+18, r24	; 0x12
     5c4:	84 e0       	ldi	r24, 0x04	; 4
     5c6:	83 8b       	std	Z+19, r24	; 0x13
     5c8:	08 95       	ret

000005ca <_ZN21Adafruit_RGBLCDShield13_digitalWriteEhh>:
     5ca:	26 2f       	mov	r18, r22
     5cc:	fc 01       	movw	r30, r24
     5ce:	32 8d       	ldd	r19, Z+26	; 0x1a
     5d0:	3f 3f       	cpi	r19, 0xFF	; 255
     5d2:	11 f0       	breq	.+4      	; 0x5d8 <_ZN21Adafruit_RGBLCDShield13_digitalWriteEhh+0xe>
     5d4:	4b 96       	adiw	r24, 0x1b	; 27
     5d6:	73 cf       	rjmp	.-282    	; 0x4be <_ZN17Adafruit_MCP2301712digitalWriteEhh>
     5d8:	64 2f       	mov	r22, r20
     5da:	82 2f       	mov	r24, r18
     5dc:	0c 94 ae 19 	jmp	0x335c	; 0x335c <digitalWrite>

000005e0 <_ZN21Adafruit_RGBLCDShield12setBacklightEh>:
     5e0:	0f 93       	push	r16
     5e2:	1f 93       	push	r17
     5e4:	cf 93       	push	r28
     5e6:	df 93       	push	r29
     5e8:	06 2f       	mov	r16, r22
     5ea:	ec 01       	movw	r28, r24
     5ec:	6b 96       	adiw	r28, 0x1b	; 27
     5ee:	11 e0       	ldi	r17, 0x01	; 1
     5f0:	62 fb       	bst	r22, 2
     5f2:	44 27       	eor	r20, r20
     5f4:	40 f9       	bld	r20, 0
     5f6:	41 27       	eor	r20, r17
     5f8:	68 e0       	ldi	r22, 0x08	; 8
     5fa:	ce 01       	movw	r24, r28
     5fc:	60 df       	rcall	.-320    	; 0x4be <_ZN17Adafruit_MCP2301712digitalWriteEhh>
     5fe:	01 fb       	bst	r16, 1
     600:	44 27       	eor	r20, r20
     602:	40 f9       	bld	r20, 0
     604:	41 27       	eor	r20, r17
     606:	67 e0       	ldi	r22, 0x07	; 7
     608:	ce 01       	movw	r24, r28
     60a:	59 df       	rcall	.-334    	; 0x4be <_ZN17Adafruit_MCP2301712digitalWriteEhh>
     60c:	40 2f       	mov	r20, r16
     60e:	41 70       	andi	r20, 0x01	; 1
     610:	41 27       	eor	r20, r17
     612:	66 e0       	ldi	r22, 0x06	; 6
     614:	ce 01       	movw	r24, r28
     616:	df 91       	pop	r29
     618:	cf 91       	pop	r28
     61a:	1f 91       	pop	r17
     61c:	0f 91       	pop	r16
     61e:	4f cf       	rjmp	.-354    	; 0x4be <_ZN17Adafruit_MCP2301712digitalWriteEhh>

00000620 <_ZN21Adafruit_RGBLCDShield8_pinModeEhh>:
     620:	26 2f       	mov	r18, r22
     622:	fc 01       	movw	r30, r24
     624:	32 8d       	ldd	r19, Z+26	; 0x1a
     626:	3f 3f       	cpi	r19, 0xFF	; 255
     628:	11 f0       	breq	.+4      	; 0x62e <_ZN21Adafruit_RGBLCDShield8_pinModeEhh+0xe>
     62a:	4b 96       	adiw	r24, 0x1b	; 27
     62c:	f6 ce       	rjmp	.-532    	; 0x41a <_ZN17Adafruit_MCP230177pinModeEhh>
     62e:	64 2f       	mov	r22, r20
     630:	82 2f       	mov	r24, r18
     632:	0c 94 76 19 	jmp	0x32ec	; 0x32ec <pinMode>

00000636 <_ZN21Adafruit_RGBLCDShield11pulseEnableEv>:
     636:	cf 93       	push	r28
     638:	df 93       	push	r29
     63a:	ec 01       	movw	r28, r24
     63c:	40 e0       	ldi	r20, 0x00	; 0
     63e:	6e 81       	ldd	r22, Y+6	; 0x06
     640:	c4 df       	rcall	.-120    	; 0x5ca <_ZN21Adafruit_RGBLCDShield13_digitalWriteEhh>
     642:	81 e0       	ldi	r24, 0x01	; 1
     644:	90 e0       	ldi	r25, 0x00	; 0
     646:	0e 94 07 19 	call	0x320e	; 0x320e <delayMicroseconds>
     64a:	41 e0       	ldi	r20, 0x01	; 1
     64c:	6e 81       	ldd	r22, Y+6	; 0x06
     64e:	ce 01       	movw	r24, r28
     650:	bc df       	rcall	.-136    	; 0x5ca <_ZN21Adafruit_RGBLCDShield13_digitalWriteEhh>
     652:	81 e0       	ldi	r24, 0x01	; 1
     654:	90 e0       	ldi	r25, 0x00	; 0
     656:	0e 94 07 19 	call	0x320e	; 0x320e <delayMicroseconds>
     65a:	40 e0       	ldi	r20, 0x00	; 0
     65c:	6e 81       	ldd	r22, Y+6	; 0x06
     65e:	ce 01       	movw	r24, r28
     660:	b4 df       	rcall	.-152    	; 0x5ca <_ZN21Adafruit_RGBLCDShield13_digitalWriteEhh>
     662:	84 e6       	ldi	r24, 0x64	; 100
     664:	90 e0       	ldi	r25, 0x00	; 0
     666:	df 91       	pop	r29
     668:	cf 91       	pop	r28
     66a:	0c 94 07 19 	jmp	0x320e	; 0x320e <delayMicroseconds>

0000066e <_ZN21Adafruit_RGBLCDShield10write4bitsEh>:
     66e:	af 92       	push	r10
     670:	bf 92       	push	r11
     672:	cf 92       	push	r12
     674:	df 92       	push	r13
     676:	ef 92       	push	r14
     678:	ff 92       	push	r15
     67a:	0f 93       	push	r16
     67c:	1f 93       	push	r17
     67e:	cf 93       	push	r28
     680:	df 93       	push	r29
     682:	ec 01       	movw	r28, r24
     684:	8a 8d       	ldd	r24, Y+26	; 0x1a
     686:	a6 2e       	mov	r10, r22
     688:	b1 2c       	mov	r11, r1
     68a:	8f 3f       	cpi	r24, 0xFF	; 255
     68c:	09 f4       	brne	.+2      	; 0x690 <_ZN21Adafruit_RGBLCDShield10write4bitsEh+0x22>
     68e:	6e c0       	rjmp	.+220    	; 0x76c <_ZN21Adafruit_RGBLCDShield10write4bitsEh+0xfe>
     690:	7e 01       	movw	r14, r28
     692:	8b e1       	ldi	r24, 0x1B	; 27
     694:	e8 0e       	add	r14, r24
     696:	f1 1c       	adc	r15, r1
     698:	c7 01       	movw	r24, r14
     69a:	97 de       	rcall	.-722    	; 0x3ca <_ZN17Adafruit_MCP2301710readGPIOABEv>
     69c:	9c 01       	movw	r18, r24
     69e:	80 e0       	ldi	r24, 0x00	; 0
     6a0:	90 e0       	ldi	r25, 0x00	; 0
     6a2:	61 e0       	ldi	r22, 0x01	; 1
     6a4:	70 e0       	ldi	r23, 0x00	; 0
     6a6:	fe 01       	movw	r30, r28
     6a8:	e8 0f       	add	r30, r24
     6aa:	f9 1f       	adc	r31, r25
     6ac:	e7 81       	ldd	r30, Z+7	; 0x07
     6ae:	cc 24       	eor	r12, r12
     6b0:	c3 94       	inc	r12
     6b2:	d1 2c       	mov	r13, r1
     6b4:	ab 01       	movw	r20, r22
     6b6:	0e 2e       	mov	r0, r30
     6b8:	02 c0       	rjmp	.+4      	; 0x6be <_ZN21Adafruit_RGBLCDShield10write4bitsEh+0x50>
     6ba:	44 0f       	add	r20, r20
     6bc:	55 1f       	adc	r21, r21
     6be:	0a 94       	dec	r0
     6c0:	e2 f7       	brpl	.-8      	; 0x6ba <_ZN21Adafruit_RGBLCDShield10write4bitsEh+0x4c>
     6c2:	40 95       	com	r20
     6c4:	50 95       	com	r21
     6c6:	24 23       	and	r18, r20
     6c8:	35 23       	and	r19, r21
     6ca:	a5 01       	movw	r20, r10
     6cc:	08 2e       	mov	r0, r24
     6ce:	02 c0       	rjmp	.+4      	; 0x6d4 <_ZN21Adafruit_RGBLCDShield10write4bitsEh+0x66>
     6d0:	55 95       	asr	r21
     6d2:	47 95       	ror	r20
     6d4:	0a 94       	dec	r0
     6d6:	e2 f7       	brpl	.-8      	; 0x6d0 <_ZN21Adafruit_RGBLCDShield10write4bitsEh+0x62>
     6d8:	41 70       	andi	r20, 0x01	; 1
     6da:	55 27       	eor	r21, r21
     6dc:	02 c0       	rjmp	.+4      	; 0x6e2 <_ZN21Adafruit_RGBLCDShield10write4bitsEh+0x74>
     6de:	44 0f       	add	r20, r20
     6e0:	55 1f       	adc	r21, r21
     6e2:	ea 95       	dec	r30
     6e4:	e2 f7       	brpl	.-8      	; 0x6de <_ZN21Adafruit_RGBLCDShield10write4bitsEh+0x70>
     6e6:	24 2b       	or	r18, r20
     6e8:	35 2b       	or	r19, r21
     6ea:	01 96       	adiw	r24, 0x01	; 1
     6ec:	84 30       	cpi	r24, 0x04	; 4
     6ee:	91 05       	cpc	r25, r1
     6f0:	d1 f6       	brne	.-76     	; 0x6a6 <_ZN21Adafruit_RGBLCDShield10write4bitsEh+0x38>
     6f2:	86 01       	movw	r16, r12
     6f4:	0e 80       	ldd	r0, Y+6	; 0x06
     6f6:	02 c0       	rjmp	.+4      	; 0x6fc <_ZN21Adafruit_RGBLCDShield10write4bitsEh+0x8e>
     6f8:	00 0f       	add	r16, r16
     6fa:	11 1f       	adc	r17, r17
     6fc:	0a 94       	dec	r0
     6fe:	e2 f7       	brpl	.-8      	; 0x6f8 <_ZN21Adafruit_RGBLCDShield10write4bitsEh+0x8a>
     700:	00 95       	com	r16
     702:	10 95       	com	r17
     704:	02 23       	and	r16, r18
     706:	13 23       	and	r17, r19
     708:	b8 01       	movw	r22, r16
     70a:	c7 01       	movw	r24, r14
     70c:	bc dd       	rcall	.-1160   	; 0x286 <_ZN17Adafruit_MCP2301711writeGPIOABEj>
     70e:	81 e0       	ldi	r24, 0x01	; 1
     710:	90 e0       	ldi	r25, 0x00	; 0
     712:	0e 94 07 19 	call	0x320e	; 0x320e <delayMicroseconds>
     716:	56 01       	movw	r10, r12
     718:	0e 80       	ldd	r0, Y+6	; 0x06
     71a:	02 c0       	rjmp	.+4      	; 0x720 <_ZN21Adafruit_RGBLCDShield10write4bitsEh+0xb2>
     71c:	aa 0c       	add	r10, r10
     71e:	bb 1c       	adc	r11, r11
     720:	0a 94       	dec	r0
     722:	e2 f7       	brpl	.-8      	; 0x71c <_ZN21Adafruit_RGBLCDShield10write4bitsEh+0xae>
     724:	a0 2a       	or	r10, r16
     726:	b1 2a       	or	r11, r17
     728:	b5 01       	movw	r22, r10
     72a:	c7 01       	movw	r24, r14
     72c:	ac dd       	rcall	.-1192   	; 0x286 <_ZN17Adafruit_MCP2301711writeGPIOABEj>
     72e:	81 e0       	ldi	r24, 0x01	; 1
     730:	90 e0       	ldi	r25, 0x00	; 0
     732:	0e 94 07 19 	call	0x320e	; 0x320e <delayMicroseconds>
     736:	b6 01       	movw	r22, r12
     738:	0e 80       	ldd	r0, Y+6	; 0x06
     73a:	02 c0       	rjmp	.+4      	; 0x740 <_ZN21Adafruit_RGBLCDShield10write4bitsEh+0xd2>
     73c:	66 0f       	add	r22, r22
     73e:	77 1f       	adc	r23, r23
     740:	0a 94       	dec	r0
     742:	e2 f7       	brpl	.-8      	; 0x73c <_ZN21Adafruit_RGBLCDShield10write4bitsEh+0xce>
     744:	60 95       	com	r22
     746:	70 95       	com	r23
     748:	6a 21       	and	r22, r10
     74a:	7b 21       	and	r23, r11
     74c:	c7 01       	movw	r24, r14
     74e:	9b dd       	rcall	.-1226   	; 0x286 <_ZN17Adafruit_MCP2301711writeGPIOABEj>
     750:	84 e6       	ldi	r24, 0x64	; 100
     752:	90 e0       	ldi	r25, 0x00	; 0
     754:	df 91       	pop	r29
     756:	cf 91       	pop	r28
     758:	1f 91       	pop	r17
     75a:	0f 91       	pop	r16
     75c:	ff 90       	pop	r15
     75e:	ef 90       	pop	r14
     760:	df 90       	pop	r13
     762:	cf 90       	pop	r12
     764:	bf 90       	pop	r11
     766:	af 90       	pop	r10
     768:	0c 94 07 19 	jmp	0x320e	; 0x320e <delayMicroseconds>
     76c:	00 e0       	ldi	r16, 0x00	; 0
     76e:	10 e0       	ldi	r17, 0x00	; 0
     770:	7e 01       	movw	r14, r28
     772:	e0 0e       	add	r14, r16
     774:	f1 1e       	adc	r15, r17
     776:	41 e0       	ldi	r20, 0x01	; 1
     778:	f7 01       	movw	r30, r14
     77a:	67 81       	ldd	r22, Z+7	; 0x07
     77c:	ce 01       	movw	r24, r28
     77e:	50 df       	rcall	.-352    	; 0x620 <_ZN21Adafruit_RGBLCDShield8_pinModeEhh>
     780:	a5 01       	movw	r20, r10
     782:	00 2e       	mov	r0, r16
     784:	02 c0       	rjmp	.+4      	; 0x78a <_ZN21Adafruit_RGBLCDShield10write4bitsEh+0x11c>
     786:	55 95       	asr	r21
     788:	47 95       	ror	r20
     78a:	0a 94       	dec	r0
     78c:	e2 f7       	brpl	.-8      	; 0x786 <_ZN21Adafruit_RGBLCDShield10write4bitsEh+0x118>
     78e:	41 70       	andi	r20, 0x01	; 1
     790:	f7 01       	movw	r30, r14
     792:	67 81       	ldd	r22, Z+7	; 0x07
     794:	ce 01       	movw	r24, r28
     796:	19 df       	rcall	.-462    	; 0x5ca <_ZN21Adafruit_RGBLCDShield13_digitalWriteEhh>
     798:	0f 5f       	subi	r16, 0xFF	; 255
     79a:	1f 4f       	sbci	r17, 0xFF	; 255
     79c:	04 30       	cpi	r16, 0x04	; 4
     79e:	11 05       	cpc	r17, r1
     7a0:	39 f7       	brne	.-50     	; 0x770 <_ZN21Adafruit_RGBLCDShield10write4bitsEh+0x102>
     7a2:	ce 01       	movw	r24, r28
     7a4:	df 91       	pop	r29
     7a6:	cf 91       	pop	r28
     7a8:	1f 91       	pop	r17
     7aa:	0f 91       	pop	r16
     7ac:	ff 90       	pop	r15
     7ae:	ef 90       	pop	r14
     7b0:	df 90       	pop	r13
     7b2:	cf 90       	pop	r12
     7b4:	bf 90       	pop	r11
     7b6:	af 90       	pop	r10
     7b8:	3e cf       	rjmp	.-388    	; 0x636 <_ZN21Adafruit_RGBLCDShield11pulseEnableEv>

000007ba <_ZN21Adafruit_RGBLCDShield10write8bitsEh>:
     7ba:	cf 92       	push	r12
     7bc:	df 92       	push	r13
     7be:	ef 92       	push	r14
     7c0:	ff 92       	push	r15
     7c2:	0f 93       	push	r16
     7c4:	1f 93       	push	r17
     7c6:	cf 93       	push	r28
     7c8:	df 93       	push	r29
     7ca:	8c 01       	movw	r16, r24
     7cc:	c0 e0       	ldi	r28, 0x00	; 0
     7ce:	d0 e0       	ldi	r29, 0x00	; 0
     7d0:	c6 2e       	mov	r12, r22
     7d2:	d1 2c       	mov	r13, r1
     7d4:	78 01       	movw	r14, r16
     7d6:	ec 0e       	add	r14, r28
     7d8:	fd 1e       	adc	r15, r29
     7da:	41 e0       	ldi	r20, 0x01	; 1
     7dc:	f7 01       	movw	r30, r14
     7de:	67 81       	ldd	r22, Z+7	; 0x07
     7e0:	c8 01       	movw	r24, r16
     7e2:	1e df       	rcall	.-452    	; 0x620 <_ZN21Adafruit_RGBLCDShield8_pinModeEhh>
     7e4:	a6 01       	movw	r20, r12
     7e6:	0c 2e       	mov	r0, r28
     7e8:	02 c0       	rjmp	.+4      	; 0x7ee <_ZN21Adafruit_RGBLCDShield10write8bitsEh+0x34>
     7ea:	55 95       	asr	r21
     7ec:	47 95       	ror	r20
     7ee:	0a 94       	dec	r0
     7f0:	e2 f7       	brpl	.-8      	; 0x7ea <_ZN21Adafruit_RGBLCDShield10write8bitsEh+0x30>
     7f2:	41 70       	andi	r20, 0x01	; 1
     7f4:	f7 01       	movw	r30, r14
     7f6:	67 81       	ldd	r22, Z+7	; 0x07
     7f8:	c8 01       	movw	r24, r16
     7fa:	e7 de       	rcall	.-562    	; 0x5ca <_ZN21Adafruit_RGBLCDShield13_digitalWriteEhh>
     7fc:	21 96       	adiw	r28, 0x01	; 1
     7fe:	c8 30       	cpi	r28, 0x08	; 8
     800:	d1 05       	cpc	r29, r1
     802:	41 f7       	brne	.-48     	; 0x7d4 <_ZN21Adafruit_RGBLCDShield10write8bitsEh+0x1a>
     804:	c8 01       	movw	r24, r16
     806:	df 91       	pop	r29
     808:	cf 91       	pop	r28
     80a:	1f 91       	pop	r17
     80c:	0f 91       	pop	r16
     80e:	ff 90       	pop	r15
     810:	ef 90       	pop	r14
     812:	df 90       	pop	r13
     814:	cf 90       	pop	r12
     816:	0f cf       	rjmp	.-482    	; 0x636 <_ZN21Adafruit_RGBLCDShield11pulseEnableEv>

00000818 <_ZN21Adafruit_RGBLCDShield4sendEhh>:
     818:	1f 93       	push	r17
     81a:	cf 93       	push	r28
     81c:	df 93       	push	r29
     81e:	ec 01       	movw	r28, r24
     820:	16 2f       	mov	r17, r22
     822:	6c 81       	ldd	r22, Y+4	; 0x04
     824:	d2 de       	rcall	.-604    	; 0x5ca <_ZN21Adafruit_RGBLCDShield13_digitalWriteEhh>
     826:	6d 81       	ldd	r22, Y+5	; 0x05
     828:	6f 3f       	cpi	r22, 0xFF	; 255
     82a:	19 f0       	breq	.+6      	; 0x832 <_ZN21Adafruit_RGBLCDShield4sendEhh+0x1a>
     82c:	40 e0       	ldi	r20, 0x00	; 0
     82e:	ce 01       	movw	r24, r28
     830:	cc de       	rcall	.-616    	; 0x5ca <_ZN21Adafruit_RGBLCDShield13_digitalWriteEhh>
     832:	8c 89       	ldd	r24, Y+20	; 0x14
     834:	61 2f       	mov	r22, r17
     836:	84 ff       	sbrs	r24, 4
     838:	05 c0       	rjmp	.+10     	; 0x844 <_ZN21Adafruit_RGBLCDShield4sendEhh+0x2c>
     83a:	ce 01       	movw	r24, r28
     83c:	df 91       	pop	r29
     83e:	cf 91       	pop	r28
     840:	1f 91       	pop	r17
     842:	bb cf       	rjmp	.-138    	; 0x7ba <_ZN21Adafruit_RGBLCDShield10write8bitsEh>
     844:	70 e0       	ldi	r23, 0x00	; 0
     846:	54 e0       	ldi	r21, 0x04	; 4
     848:	75 95       	asr	r23
     84a:	67 95       	ror	r22
     84c:	5a 95       	dec	r21
     84e:	e1 f7       	brne	.-8      	; 0x848 <_ZN21Adafruit_RGBLCDShield4sendEhh+0x30>
     850:	ce 01       	movw	r24, r28
     852:	0d df       	rcall	.-486    	; 0x66e <_ZN21Adafruit_RGBLCDShield10write4bitsEh>
     854:	61 2f       	mov	r22, r17
     856:	ce 01       	movw	r24, r28
     858:	df 91       	pop	r29
     85a:	cf 91       	pop	r28
     85c:	1f 91       	pop	r17
     85e:	07 cf       	rjmp	.-498    	; 0x66e <_ZN21Adafruit_RGBLCDShield10write4bitsEh>

00000860 <_ZN21Adafruit_RGBLCDShield7commandEh>:
     860:	40 e0       	ldi	r20, 0x00	; 0
     862:	da cf       	rjmp	.-76     	; 0x818 <_ZN21Adafruit_RGBLCDShield4sendEhh>

00000864 <_ZN21Adafruit_RGBLCDShield5clearEv>:
     864:	61 e0       	ldi	r22, 0x01	; 1
     866:	fc df       	rcall	.-8      	; 0x860 <_ZN21Adafruit_RGBLCDShield7commandEh>
     868:	80 ed       	ldi	r24, 0xD0	; 208
     86a:	97 e0       	ldi	r25, 0x07	; 7
     86c:	0c 94 07 19 	jmp	0x320e	; 0x320e <delayMicroseconds>

00000870 <_ZN21Adafruit_RGBLCDShield9setCursorEhh>:
     870:	cf 93       	push	r28
     872:	df 93       	push	r29
     874:	cd b7       	in	r28, 0x3d	; 61
     876:	de b7       	in	r29, 0x3e	; 62
     878:	28 97       	sbiw	r28, 0x08	; 8
     87a:	0f b6       	in	r0, 0x3f	; 63
     87c:	f8 94       	cli
     87e:	de bf       	out	0x3e, r29	; 62
     880:	0f be       	out	0x3f, r0	; 63
     882:	cd bf       	out	0x3d, r28	; 61
     884:	28 e0       	ldi	r18, 0x08	; 8
     886:	ea e1       	ldi	r30, 0x1A	; 26
     888:	f1 e0       	ldi	r31, 0x01	; 1
     88a:	de 01       	movw	r26, r28
     88c:	11 96       	adiw	r26, 0x01	; 1
     88e:	01 90       	ld	r0, Z+
     890:	0d 92       	st	X+, r0
     892:	2a 95       	dec	r18
     894:	e1 f7       	brne	.-8      	; 0x88e <_ZN21Adafruit_RGBLCDShield9setCursorEhh+0x1e>
     896:	fc 01       	movw	r30, r24
     898:	20 8d       	ldd	r18, Z+24	; 0x18
     89a:	24 17       	cp	r18, r20
     89c:	10 f4       	brcc	.+4      	; 0x8a2 <_ZN21Adafruit_RGBLCDShield9setCursorEhh+0x32>
     89e:	4f ef       	ldi	r20, 0xFF	; 255
     8a0:	42 0f       	add	r20, r18
     8a2:	fe 01       	movw	r30, r28
     8a4:	31 96       	adiw	r30, 0x01	; 1
     8a6:	e4 0f       	add	r30, r20
     8a8:	f1 1d       	adc	r31, r1
     8aa:	e4 0f       	add	r30, r20
     8ac:	f1 1d       	adc	r31, r1
     8ae:	20 81       	ld	r18, Z
     8b0:	26 0f       	add	r18, r22
     8b2:	20 68       	ori	r18, 0x80	; 128
     8b4:	62 2f       	mov	r22, r18
     8b6:	28 96       	adiw	r28, 0x08	; 8
     8b8:	0f b6       	in	r0, 0x3f	; 63
     8ba:	f8 94       	cli
     8bc:	de bf       	out	0x3e, r29	; 62
     8be:	0f be       	out	0x3f, r0	; 63
     8c0:	cd bf       	out	0x3d, r28	; 61
     8c2:	df 91       	pop	r29
     8c4:	cf 91       	pop	r28
     8c6:	cc cf       	rjmp	.-104    	; 0x860 <_ZN21Adafruit_RGBLCDShield7commandEh>

000008c8 <_ZN21Adafruit_RGBLCDShield7displayEv>:
     8c8:	fc 01       	movw	r30, r24
     8ca:	65 89       	ldd	r22, Z+21	; 0x15
     8cc:	26 2f       	mov	r18, r22
     8ce:	24 60       	ori	r18, 0x04	; 4
     8d0:	25 8b       	std	Z+21, r18	; 0x15
     8d2:	6c 60       	ori	r22, 0x0C	; 12
     8d4:	c5 cf       	rjmp	.-118    	; 0x860 <_ZN21Adafruit_RGBLCDShield7commandEh>

000008d6 <_ZN21Adafruit_RGBLCDShield5beginEhhh>:
     8d6:	af 92       	push	r10
     8d8:	bf 92       	push	r11
     8da:	cf 92       	push	r12
     8dc:	df 92       	push	r13
     8de:	ef 92       	push	r14
     8e0:	ff 92       	push	r15
     8e2:	0f 93       	push	r16
     8e4:	1f 93       	push	r17
     8e6:	cf 93       	push	r28
     8e8:	df 93       	push	r29
     8ea:	ec 01       	movw	r28, r24
     8ec:	b4 2e       	mov	r11, r20
     8ee:	a2 2e       	mov	r10, r18
     8f0:	8a 8d       	ldd	r24, Y+26	; 0x1a
     8f2:	8f 3f       	cpi	r24, 0xFF	; 255
     8f4:	41 f4       	brne	.+16     	; 0x906 <__stack+0x7>
     8f6:	81 e0       	ldi	r24, 0x01	; 1
     8f8:	8b 15       	cp	r24, r11
     8fa:	08 f0       	brcs	.+2      	; 0x8fe <_ZN21Adafruit_RGBLCDShield5beginEhhh+0x28>
     8fc:	51 c0       	rjmp	.+162    	; 0x9a0 <__stack+0xa1>
     8fe:	8c 89       	ldd	r24, Y+20	; 0x14
     900:	88 60       	ori	r24, 0x08	; 8
     902:	8c 8b       	std	Y+20, r24	; 0x14
     904:	4d c0       	rjmp	.+154    	; 0x9a0 <__stack+0xa1>
     906:	8a ee       	ldi	r24, 0xEA	; 234
     908:	93 e0       	ldi	r25, 0x03	; 3
     90a:	0e 94 ca 14 	call	0x2994	; 0x2994 <_ZN7TwoWire5beginEv>
     90e:	8e 01       	movw	r16, r28
     910:	05 5e       	subi	r16, 0xE5	; 229
     912:	1f 4f       	sbci	r17, 0xFF	; 255
     914:	c8 01       	movw	r24, r16
     916:	b5 dc       	rcall	.-1686   	; 0x282 <_ZN17Adafruit_MCP230175beginEv>
     918:	41 e0       	ldi	r20, 0x01	; 1
     91a:	68 e0       	ldi	r22, 0x08	; 8
     91c:	c8 01       	movw	r24, r16
     91e:	7d dd       	rcall	.-1286   	; 0x41a <_ZN17Adafruit_MCP230177pinModeEhh>
     920:	41 e0       	ldi	r20, 0x01	; 1
     922:	66 e0       	ldi	r22, 0x06	; 6
     924:	c8 01       	movw	r24, r16
     926:	79 dd       	rcall	.-1294   	; 0x41a <_ZN17Adafruit_MCP230177pinModeEhh>
     928:	41 e0       	ldi	r20, 0x01	; 1
     92a:	67 e0       	ldi	r22, 0x07	; 7
     92c:	c8 01       	movw	r24, r16
     92e:	75 dd       	rcall	.-1302   	; 0x41a <_ZN17Adafruit_MCP230177pinModeEhh>
     930:	67 e0       	ldi	r22, 0x07	; 7
     932:	ce 01       	movw	r24, r28
     934:	55 de       	rcall	.-854    	; 0x5e0 <_ZN21Adafruit_RGBLCDShield12setBacklightEh>
     936:	6d 81       	ldd	r22, Y+5	; 0x05
     938:	66 23       	and	r22, r22
     93a:	19 f0       	breq	.+6      	; 0x942 <__stack+0x43>
     93c:	41 e0       	ldi	r20, 0x01	; 1
     93e:	c8 01       	movw	r24, r16
     940:	6c dd       	rcall	.-1320   	; 0x41a <_ZN17Adafruit_MCP230177pinModeEhh>
     942:	41 e0       	ldi	r20, 0x01	; 1
     944:	6c 81       	ldd	r22, Y+4	; 0x04
     946:	c8 01       	movw	r24, r16
     948:	68 dd       	rcall	.-1328   	; 0x41a <_ZN17Adafruit_MCP230177pinModeEhh>
     94a:	41 e0       	ldi	r20, 0x01	; 1
     94c:	6e 81       	ldd	r22, Y+6	; 0x06
     94e:	c8 01       	movw	r24, r16
     950:	64 dd       	rcall	.-1336   	; 0x41a <_ZN17Adafruit_MCP230177pinModeEhh>
     952:	e1 2c       	mov	r14, r1
     954:	f1 2c       	mov	r15, r1
     956:	fe 01       	movw	r30, r28
     958:	ee 0d       	add	r30, r14
     95a:	ff 1d       	adc	r31, r15
     95c:	41 e0       	ldi	r20, 0x01	; 1
     95e:	67 81       	ldd	r22, Z+7	; 0x07
     960:	c8 01       	movw	r24, r16
     962:	5b dd       	rcall	.-1354   	; 0x41a <_ZN17Adafruit_MCP230177pinModeEhh>
     964:	ef ef       	ldi	r30, 0xFF	; 255
     966:	ee 1a       	sub	r14, r30
     968:	fe 0a       	sbc	r15, r30
     96a:	f4 e0       	ldi	r31, 0x04	; 4
     96c:	ef 16       	cp	r14, r31
     96e:	f1 04       	cpc	r15, r1
     970:	91 f7       	brne	.-28     	; 0x956 <__stack+0x57>
     972:	e1 2c       	mov	r14, r1
     974:	f1 2c       	mov	r15, r1
     976:	6e 01       	movw	r12, r28
     978:	ce 0c       	add	r12, r14
     97a:	df 1c       	adc	r13, r15
     97c:	40 e0       	ldi	r20, 0x00	; 0
     97e:	f6 01       	movw	r30, r12
     980:	67 85       	ldd	r22, Z+15	; 0x0f
     982:	c8 01       	movw	r24, r16
     984:	4a dd       	rcall	.-1388   	; 0x41a <_ZN17Adafruit_MCP230177pinModeEhh>
     986:	41 e0       	ldi	r20, 0x01	; 1
     988:	f6 01       	movw	r30, r12
     98a:	67 85       	ldd	r22, Z+15	; 0x0f
     98c:	c8 01       	movw	r24, r16
     98e:	94 dc       	rcall	.-1752   	; 0x2b8 <_ZN17Adafruit_MCP230176pullUpEhh>
     990:	ff ef       	ldi	r31, 0xFF	; 255
     992:	ef 1a       	sub	r14, r31
     994:	ff 0a       	sbc	r15, r31
     996:	85 e0       	ldi	r24, 0x05	; 5
     998:	e8 16       	cp	r14, r24
     99a:	f1 04       	cpc	r15, r1
     99c:	61 f7       	brne	.-40     	; 0x976 <__stack+0x77>
     99e:	ab cf       	rjmp	.-170    	; 0x8f6 <_ZN21Adafruit_RGBLCDShield5beginEhhh+0x20>
     9a0:	b8 8e       	std	Y+24, r11	; 0x18
     9a2:	19 8e       	std	Y+25, r1	; 0x19
     9a4:	aa 20       	and	r10, r10
     9a6:	31 f0       	breq	.+12     	; 0x9b4 <__stack+0xb5>
     9a8:	e1 e0       	ldi	r30, 0x01	; 1
     9aa:	be 12       	cpse	r11, r30
     9ac:	03 c0       	rjmp	.+6      	; 0x9b4 <__stack+0xb5>
     9ae:	8c 89       	ldd	r24, Y+20	; 0x14
     9b0:	84 60       	ori	r24, 0x04	; 4
     9b2:	8c 8b       	std	Y+20, r24	; 0x14
     9b4:	80 e5       	ldi	r24, 0x50	; 80
     9b6:	93 ec       	ldi	r25, 0xC3	; 195
     9b8:	0e 94 07 19 	call	0x320e	; 0x320e <delayMicroseconds>
     9bc:	40 e0       	ldi	r20, 0x00	; 0
     9be:	6c 81       	ldd	r22, Y+4	; 0x04
     9c0:	ce 01       	movw	r24, r28
     9c2:	03 de       	rcall	.-1018   	; 0x5ca <_ZN21Adafruit_RGBLCDShield13_digitalWriteEhh>
     9c4:	40 e0       	ldi	r20, 0x00	; 0
     9c6:	6e 81       	ldd	r22, Y+6	; 0x06
     9c8:	ce 01       	movw	r24, r28
     9ca:	ff dd       	rcall	.-1026   	; 0x5ca <_ZN21Adafruit_RGBLCDShield13_digitalWriteEhh>
     9cc:	6d 81       	ldd	r22, Y+5	; 0x05
     9ce:	6f 3f       	cpi	r22, 0xFF	; 255
     9d0:	19 f0       	breq	.+6      	; 0x9d8 <__stack+0xd9>
     9d2:	40 e0       	ldi	r20, 0x00	; 0
     9d4:	ce 01       	movw	r24, r28
     9d6:	f9 dd       	rcall	.-1038   	; 0x5ca <_ZN21Adafruit_RGBLCDShield13_digitalWriteEhh>
     9d8:	6c 89       	ldd	r22, Y+20	; 0x14
     9da:	64 fd       	sbrc	r22, 4
     9dc:	19 c0       	rjmp	.+50     	; 0xa10 <__stack+0x111>
     9de:	63 e0       	ldi	r22, 0x03	; 3
     9e0:	ce 01       	movw	r24, r28
     9e2:	45 de       	rcall	.-886    	; 0x66e <_ZN21Adafruit_RGBLCDShield10write4bitsEh>
     9e4:	84 e9       	ldi	r24, 0x94	; 148
     9e6:	91 e1       	ldi	r25, 0x11	; 17
     9e8:	0e 94 07 19 	call	0x320e	; 0x320e <delayMicroseconds>
     9ec:	63 e0       	ldi	r22, 0x03	; 3
     9ee:	ce 01       	movw	r24, r28
     9f0:	3e de       	rcall	.-900    	; 0x66e <_ZN21Adafruit_RGBLCDShield10write4bitsEh>
     9f2:	84 e9       	ldi	r24, 0x94	; 148
     9f4:	91 e1       	ldi	r25, 0x11	; 17
     9f6:	0e 94 07 19 	call	0x320e	; 0x320e <delayMicroseconds>
     9fa:	63 e0       	ldi	r22, 0x03	; 3
     9fc:	ce 01       	movw	r24, r28
     9fe:	37 de       	rcall	.-914    	; 0x66e <_ZN21Adafruit_RGBLCDShield10write4bitsEh>
     a00:	86 e9       	ldi	r24, 0x96	; 150
     a02:	90 e0       	ldi	r25, 0x00	; 0
     a04:	0e 94 07 19 	call	0x320e	; 0x320e <delayMicroseconds>
     a08:	62 e0       	ldi	r22, 0x02	; 2
     a0a:	ce 01       	movw	r24, r28
     a0c:	30 de       	rcall	.-928    	; 0x66e <_ZN21Adafruit_RGBLCDShield10write4bitsEh>
     a0e:	13 c0       	rjmp	.+38     	; 0xa36 <__stack+0x137>
     a10:	60 62       	ori	r22, 0x20	; 32
     a12:	ce 01       	movw	r24, r28
     a14:	25 df       	rcall	.-438    	; 0x860 <_ZN21Adafruit_RGBLCDShield7commandEh>
     a16:	84 e9       	ldi	r24, 0x94	; 148
     a18:	91 e1       	ldi	r25, 0x11	; 17
     a1a:	0e 94 07 19 	call	0x320e	; 0x320e <delayMicroseconds>
     a1e:	6c 89       	ldd	r22, Y+20	; 0x14
     a20:	60 62       	ori	r22, 0x20	; 32
     a22:	ce 01       	movw	r24, r28
     a24:	1d df       	rcall	.-454    	; 0x860 <_ZN21Adafruit_RGBLCDShield7commandEh>
     a26:	86 e9       	ldi	r24, 0x96	; 150
     a28:	90 e0       	ldi	r25, 0x00	; 0
     a2a:	0e 94 07 19 	call	0x320e	; 0x320e <delayMicroseconds>
     a2e:	6c 89       	ldd	r22, Y+20	; 0x14
     a30:	60 62       	ori	r22, 0x20	; 32
     a32:	ce 01       	movw	r24, r28
     a34:	15 df       	rcall	.-470    	; 0x860 <_ZN21Adafruit_RGBLCDShield7commandEh>
     a36:	6c 89       	ldd	r22, Y+20	; 0x14
     a38:	60 62       	ori	r22, 0x20	; 32
     a3a:	ce 01       	movw	r24, r28
     a3c:	11 df       	rcall	.-478    	; 0x860 <_ZN21Adafruit_RGBLCDShield7commandEh>
     a3e:	84 e0       	ldi	r24, 0x04	; 4
     a40:	8d 8b       	std	Y+21, r24	; 0x15
     a42:	ce 01       	movw	r24, r28
     a44:	41 df       	rcall	.-382    	; 0x8c8 <_ZN21Adafruit_RGBLCDShield7displayEv>
     a46:	ce 01       	movw	r24, r28
     a48:	0d df       	rcall	.-486    	; 0x864 <_ZN21Adafruit_RGBLCDShield5clearEv>
     a4a:	82 e0       	ldi	r24, 0x02	; 2
     a4c:	8e 8b       	std	Y+22, r24	; 0x16
     a4e:	66 e0       	ldi	r22, 0x06	; 6
     a50:	ce 01       	movw	r24, r28
     a52:	df 91       	pop	r29
     a54:	cf 91       	pop	r28
     a56:	1f 91       	pop	r17
     a58:	0f 91       	pop	r16
     a5a:	ff 90       	pop	r15
     a5c:	ef 90       	pop	r14
     a5e:	df 90       	pop	r13
     a60:	cf 90       	pop	r12
     a62:	bf 90       	pop	r11
     a64:	af 90       	pop	r10
     a66:	fc ce       	rjmp	.-520    	; 0x860 <_ZN21Adafruit_RGBLCDShield7commandEh>

00000a68 <_ZN21Adafruit_RGBLCDShield8noCursorEv>:
     a68:	fc 01       	movw	r30, r24
     a6a:	65 89       	ldd	r22, Z+21	; 0x15
     a6c:	6d 7f       	andi	r22, 0xFD	; 253
     a6e:	65 8b       	std	Z+21, r22	; 0x15
     a70:	68 60       	ori	r22, 0x08	; 8
     a72:	f6 ce       	rjmp	.-532    	; 0x860 <_ZN21Adafruit_RGBLCDShield7commandEh>

00000a74 <_ZN21Adafruit_RGBLCDShield6cursorEv>:
     a74:	fc 01       	movw	r30, r24
     a76:	65 89       	ldd	r22, Z+21	; 0x15
     a78:	26 2f       	mov	r18, r22
     a7a:	22 60       	ori	r18, 0x02	; 2
     a7c:	25 8b       	std	Z+21, r18	; 0x15
     a7e:	6a 60       	ori	r22, 0x0A	; 10
     a80:	ef ce       	rjmp	.-546    	; 0x860 <_ZN21Adafruit_RGBLCDShield7commandEh>

00000a82 <_ZN21Adafruit_RGBLCDShield5writeEh>:
     a82:	41 e0       	ldi	r20, 0x01	; 1
     a84:	c9 de       	rcall	.-622    	; 0x818 <_ZN21Adafruit_RGBLCDShield4sendEhh>
     a86:	81 e0       	ldi	r24, 0x01	; 1
     a88:	90 e0       	ldi	r25, 0x00	; 0
     a8a:	08 95       	ret

00000a8c <_ZN21Adafruit_RGBLCDShield11readButtonsEv>:
     a8c:	df 92       	push	r13
     a8e:	ef 92       	push	r14
     a90:	ff 92       	push	r15
     a92:	0f 93       	push	r16
     a94:	1f 93       	push	r17
     a96:	cf 93       	push	r28
     a98:	df 93       	push	r29
     a9a:	8c 01       	movw	r16, r24
     a9c:	c0 e0       	ldi	r28, 0x00	; 0
     a9e:	d0 e0       	ldi	r29, 0x00	; 0
     aa0:	6f e1       	ldi	r22, 0x1F	; 31
     aa2:	d6 2e       	mov	r13, r22
     aa4:	7c 01       	movw	r14, r24
     aa6:	8b e1       	ldi	r24, 0x1B	; 27
     aa8:	e8 0e       	add	r14, r24
     aaa:	f1 1c       	adc	r15, r1
     aac:	f8 01       	movw	r30, r16
     aae:	ec 0f       	add	r30, r28
     ab0:	fd 1f       	adc	r31, r29
     ab2:	67 85       	ldd	r22, Z+15	; 0x0f
     ab4:	c7 01       	movw	r24, r14
     ab6:	53 dc       	rcall	.-1882   	; 0x35e <_ZN17Adafruit_MCP2301711digitalReadEh>
     ab8:	28 2f       	mov	r18, r24
     aba:	30 e0       	ldi	r19, 0x00	; 0
     abc:	0c 2e       	mov	r0, r28
     abe:	02 c0       	rjmp	.+4      	; 0xac4 <_ZN21Adafruit_RGBLCDShield11readButtonsEv+0x38>
     ac0:	22 0f       	add	r18, r18
     ac2:	33 1f       	adc	r19, r19
     ac4:	0a 94       	dec	r0
     ac6:	e2 f7       	brpl	.-8      	; 0xac0 <_ZN21Adafruit_RGBLCDShield11readButtonsEv+0x34>
     ac8:	20 95       	com	r18
     aca:	30 95       	com	r19
     acc:	8d 2d       	mov	r24, r13
     ace:	90 e0       	ldi	r25, 0x00	; 0
     ad0:	28 23       	and	r18, r24
     ad2:	39 23       	and	r19, r25
     ad4:	d2 2e       	mov	r13, r18
     ad6:	21 96       	adiw	r28, 0x01	; 1
     ad8:	c5 30       	cpi	r28, 0x05	; 5
     ada:	d1 05       	cpc	r29, r1
     adc:	39 f7       	brne	.-50     	; 0xaac <_ZN21Adafruit_RGBLCDShield11readButtonsEv+0x20>
     ade:	82 2f       	mov	r24, r18
     ae0:	df 91       	pop	r29
     ae2:	cf 91       	pop	r28
     ae4:	1f 91       	pop	r17
     ae6:	0f 91       	pop	r16
     ae8:	ff 90       	pop	r15
     aea:	ef 90       	pop	r14
     aec:	df 90       	pop	r13
     aee:	08 95       	ret

00000af0 <_ZN6ButtonC1EP15ReadButtonStatei7MsgCodeb>:
     af0:	0f 93       	push	r16
     af2:	fc 01       	movw	r30, r24
     af4:	cb 01       	movw	r24, r22
     af6:	64 2f       	mov	r22, r20
     af8:	91 83       	std	Z+1, r25	; 0x01
     afa:	80 83       	st	Z, r24
     afc:	02 83       	std	Z+2, r16	; 0x02
     afe:	43 83       	std	Z+3, r20	; 0x03
     b00:	54 83       	std	Z+4, r21	; 0x04
     b02:	25 83       	std	Z+5, r18	; 0x05
     b04:	31 e0       	ldi	r19, 0x01	; 1
     b06:	30 27       	eor	r19, r16
     b08:	36 83       	std	Z+6, r19	; 0x06
     b0a:	af ef       	ldi	r26, 0xFF	; 255
     b0c:	bf ef       	ldi	r27, 0xFF	; 255
     b0e:	b0 87       	std	Z+8, r27	; 0x08
     b10:	a7 83       	std	Z+7, r26	; 0x07
     b12:	21 87       	std	Z+9, r18	; 0x09
     b14:	13 86       	std	Z+11, r1	; 0x0b
     b16:	12 86       	std	Z+10, r1	; 0x0a
     b18:	dc 01       	movw	r26, r24
     b1a:	ed 91       	ld	r30, X+
     b1c:	fc 91       	ld	r31, X
     b1e:	06 80       	ldd	r0, Z+6	; 0x06
     b20:	f7 81       	ldd	r31, Z+7	; 0x07
     b22:	e0 2d       	mov	r30, r0
     b24:	40 e0       	ldi	r20, 0x00	; 0
     b26:	0f 91       	pop	r16
     b28:	09 94       	ijmp

00000b2a <_ZN6Button6getMsgEv>:
     b2a:	0f 93       	push	r16
     b2c:	1f 93       	push	r17
     b2e:	cf 93       	push	r28
     b30:	df 93       	push	r29
     b32:	ec 01       	movw	r28, r24
     b34:	8f ef       	ldi	r24, 0xFF	; 255
     b36:	9f ef       	ldi	r25, 0xFF	; 255
     b38:	98 87       	std	Y+8, r25	; 0x08
     b3a:	8f 83       	std	Y+7, r24	; 0x07
     b3c:	88 81       	ld	r24, Y
     b3e:	99 81       	ldd	r25, Y+1	; 0x01
     b40:	dc 01       	movw	r26, r24
     b42:	ed 91       	ld	r30, X+
     b44:	fc 91       	ld	r31, X
     b46:	04 80       	ldd	r0, Z+4	; 0x04
     b48:	f5 81       	ldd	r31, Z+5	; 0x05
     b4a:	e0 2d       	mov	r30, r0
     b4c:	6b 81       	ldd	r22, Y+3	; 0x03
     b4e:	09 95       	icall
     b50:	48 2f       	mov	r20, r24
     b52:	50 e0       	ldi	r21, 0x00	; 0
     b54:	60 e0       	ldi	r22, 0x00	; 0
     b56:	70 e0       	ldi	r23, 0x00	; 0
     b58:	0e 81       	ldd	r16, Y+6	; 0x06
     b5a:	10 e0       	ldi	r17, 0x00	; 0
     b5c:	20 e0       	ldi	r18, 0x00	; 0
     b5e:	30 e0       	ldi	r19, 0x00	; 0
     b60:	40 17       	cp	r20, r16
     b62:	51 07       	cpc	r21, r17
     b64:	62 07       	cpc	r22, r18
     b66:	73 07       	cpc	r23, r19
     b68:	81 f0       	breq	.+32     	; 0xb8a <_ZN6Button6getMsgEv+0x60>
     b6a:	0a 81       	ldd	r16, Y+2	; 0x02
     b6c:	10 e0       	ldi	r17, 0x00	; 0
     b6e:	20 e0       	ldi	r18, 0x00	; 0
     b70:	30 e0       	ldi	r19, 0x00	; 0
     b72:	40 17       	cp	r20, r16
     b74:	51 07       	cpc	r21, r17
     b76:	62 07       	cpc	r22, r18
     b78:	73 07       	cpc	r23, r19
     b7a:	19 f4       	brne	.+6      	; 0xb82 <_ZN6Button6getMsgEv+0x58>
     b7c:	18 86       	std	Y+8, r1	; 0x08
     b7e:	1f 82       	std	Y+7, r1	; 0x07
     b80:	04 c0       	rjmp	.+8      	; 0xb8a <_ZN6Button6getMsgEv+0x60>
     b82:	21 e0       	ldi	r18, 0x01	; 1
     b84:	30 e0       	ldi	r19, 0x00	; 0
     b86:	38 87       	std	Y+8, r19	; 0x08
     b88:	2f 83       	std	Y+7, r18	; 0x07
     b8a:	8e 83       	std	Y+6, r24	; 0x06
     b8c:	ce 01       	movw	r24, r28
     b8e:	07 96       	adiw	r24, 0x07	; 7
     b90:	df 91       	pop	r29
     b92:	cf 91       	pop	r28
     b94:	1f 91       	pop	r17
     b96:	0f 91       	pop	r16
     b98:	08 95       	ret

00000b9a <loop>:
     b9a:	8f 92       	push	r8
     b9c:	9f 92       	push	r9
     b9e:	af 92       	push	r10
     ba0:	bf 92       	push	r11
     ba2:	cf 92       	push	r12
     ba4:	df 92       	push	r13
     ba6:	ef 92       	push	r14
     ba8:	ff 92       	push	r15
     baa:	cf 93       	push	r28
     bac:	df 93       	push	r29
     bae:	88 ec       	ldi	r24, 0xC8	; 200
     bb0:	92 e0       	ldi	r25, 0x02	; 2
     bb2:	0e 94 6f 29 	call	0x52de	; 0x52de <_ZN3USB4TaskEv>
     bb6:	c0 e0       	ldi	r28, 0x00	; 0
     bb8:	d1 e0       	ldi	r29, 0x01	; 1
     bba:	89 91       	ld	r24, Y+
     bbc:	99 91       	ld	r25, Y+
     bbe:	b5 df       	rcall	.-150    	; 0xb2a <_ZN6Button6getMsgEv>
     bc0:	fc 01       	movw	r30, r24
     bc2:	20 81       	ld	r18, Z
     bc4:	31 81       	ldd	r19, Z+1	; 0x01
     bc6:	2f 3f       	cpi	r18, 0xFF	; 255
     bc8:	3f 4f       	sbci	r19, 0xFF	; 255
     bca:	21 f0       	breq	.+8      	; 0xbd4 <loop+0x3a>
     bcc:	bc 01       	movw	r22, r24
     bce:	8a e7       	ldi	r24, 0x7A	; 122
     bd0:	93 e0       	ldi	r25, 0x03	; 3
     bd2:	3f d3       	rcall	.+1662   	; 0x1252 <_ZN11MessagePump8dispatchER3Msg>
     bd4:	21 e0       	ldi	r18, 0x01	; 1
     bd6:	ca 30       	cpi	r28, 0x0A	; 10
     bd8:	d2 07       	cpc	r29, r18
     bda:	79 f7       	brne	.-34     	; 0xbba <loop+0x20>
     bdc:	0e 94 a7 18 	call	0x314e	; 0x314e <millis>
     be0:	6b 01       	movw	r12, r22
     be2:	7c 01       	movw	r14, r24
     be4:	82 e9       	ldi	r24, 0x92	; 146
     be6:	92 e0       	ldi	r25, 0x02	; 2
     be8:	40 d6       	rcall	.+3200   	; 0x186a <_ZNK10NikType00311isConnectedEv>
     bea:	88 23       	and	r24, r24
     bec:	09 f4       	brne	.+2      	; 0xbf0 <loop+0x56>
     bee:	98 c0       	rjmp	.+304    	; 0xd20 <loop+0x186>
     bf0:	82 e9       	ldi	r24, 0x92	; 146
     bf2:	92 e0       	ldi	r25, 0x02	; 2
     bf4:	44 d6       	rcall	.+3208   	; 0x187e <_ZNK10NikType00318isFocusStackActiveEv>
     bf6:	88 23       	and	r24, r24
     bf8:	09 f4       	brne	.+2      	; 0xbfc <loop+0x62>
     bfa:	92 c0       	rjmp	.+292    	; 0xd20 <loop+0x186>
     bfc:	82 e9       	ldi	r24, 0x92	; 146
     bfe:	92 e0       	ldi	r25, 0x02	; 2
     c00:	38 d6       	rcall	.+3184   	; 0x1872 <_ZNK10NikType00319isCaptureInProgressEv>
     c02:	81 11       	cpse	r24, r1
     c04:	8d c0       	rjmp	.+282    	; 0xd20 <loop+0x186>
     c06:	e0 91 12 01 	lds	r30, 0x0112
     c0a:	f0 91 13 01 	lds	r31, 0x0113
     c0e:	86 89       	ldd	r24, Z+22	; 0x16
     c10:	97 89       	ldd	r25, Z+23	; 0x17
     c12:	a0 8d       	ldd	r26, Z+24	; 0x18
     c14:	b1 8d       	ldd	r27, Z+25	; 0x19
     c16:	89 2b       	or	r24, r25
     c18:	8a 2b       	or	r24, r26
     c1a:	8b 2b       	or	r24, r27
     c1c:	79 f4       	brne	.+30     	; 0xc3c <loop+0xa2>
     c1e:	82 e9       	ldi	r24, 0x92	; 146
     c20:	92 e0       	ldi	r25, 0x02	; 2
     c22:	33 d6       	rcall	.+3174   	; 0x188a <_ZNK10NikType00318isNextFrameFocusedEv>
     c24:	81 11       	cpse	r24, r1
     c26:	2d c0       	rjmp	.+90     	; 0xc82 <loop+0xe8>
     c28:	82 e9       	ldi	r24, 0x92	; 146
     c2a:	92 e0       	ldi	r25, 0x02	; 2
     c2c:	db d4       	rcall	.+2486   	; 0x15e4 <_ZN10NikType00316prepareNextFrameEv>
     c2e:	81 30       	cpi	r24, 0x01	; 1
     c30:	90 42       	sbci	r25, 0x20	; 32
     c32:	39 f5       	brne	.+78     	; 0xc82 <loop+0xe8>
     c34:	82 e9       	ldi	r24, 0x92	; 146
     c36:	92 e0       	ldi	r25, 0x02	; 2
     c38:	b0 d5       	rcall	.+2912   	; 0x179a <_ZN10NikType00319focusStackNextFrameEv>
     c3a:	23 c0       	rjmp	.+70     	; 0xc82 <loop+0xe8>
     c3c:	82 e9       	ldi	r24, 0x92	; 146
     c3e:	92 e0       	ldi	r25, 0x02	; 2
     c40:	24 d6       	rcall	.+3144   	; 0x188a <_ZNK10NikType00318isNextFrameFocusedEv>
     c42:	81 11       	cpse	r24, r1
     c44:	04 c0       	rjmp	.+8      	; 0xc4e <loop+0xb4>
     c46:	82 e9       	ldi	r24, 0x92	; 146
     c48:	92 e0       	ldi	r25, 0x02	; 2
     c4a:	cc d4       	rcall	.+2456   	; 0x15e4 <_ZN10NikType00316prepareNextFrameEv>
     c4c:	1a c0       	rjmp	.+52     	; 0xc82 <loop+0xe8>
     c4e:	82 e9       	ldi	r24, 0x92	; 146
     c50:	92 e0       	ldi	r25, 0x02	; 2
     c52:	21 d6       	rcall	.+3138   	; 0x1896 <_ZNK10NikType00326getTimeLastCaptureCompleteEv>
     c54:	46 01       	movw	r8, r12
     c56:	57 01       	movw	r10, r14
     c58:	86 1a       	sub	r8, r22
     c5a:	97 0a       	sbc	r9, r23
     c5c:	a8 0a       	sbc	r10, r24
     c5e:	b9 0a       	sbc	r11, r25
     c60:	e0 91 12 01 	lds	r30, 0x0112
     c64:	f0 91 13 01 	lds	r31, 0x0113
     c68:	26 89       	ldd	r18, Z+22	; 0x16
     c6a:	37 89       	ldd	r19, Z+23	; 0x17
     c6c:	40 8d       	ldd	r20, Z+24	; 0x18
     c6e:	51 8d       	ldd	r21, Z+25	; 0x19
     c70:	a8 ee       	ldi	r26, 0xE8	; 232
     c72:	b3 e0       	ldi	r27, 0x03	; 3
     c74:	0e 94 c6 2a 	call	0x558c	; 0x558c <__muluhisi3>
     c78:	86 16       	cp	r8, r22
     c7a:	97 06       	cpc	r9, r23
     c7c:	a8 06       	cpc	r10, r24
     c7e:	b9 06       	cpc	r11, r25
     c80:	c8 f6       	brcc	.-78     	; 0xc34 <loop+0x9a>
     c82:	e0 91 12 01 	lds	r30, 0x0112
     c86:	f0 91 13 01 	lds	r31, 0x0113
     c8a:	86 89       	ldd	r24, Z+22	; 0x16
     c8c:	97 89       	ldd	r25, Z+23	; 0x17
     c8e:	a0 8d       	ldd	r26, Z+24	; 0x18
     c90:	b1 8d       	ldd	r27, Z+25	; 0x19
     c92:	89 2b       	or	r24, r25
     c94:	8a 2b       	or	r24, r26
     c96:	8b 2b       	or	r24, r27
     c98:	09 f4       	brne	.+2      	; 0xc9c <loop+0x102>
     c9a:	42 c0       	rjmp	.+132    	; 0xd20 <loop+0x186>
     c9c:	80 91 10 01 	lds	r24, 0x0110
     ca0:	90 91 11 01 	lds	r25, 0x0111
     ca4:	f4 d7       	rcall	.+4072   	; 0x1c8e <_ZNK20RunFocusStackHandler17getLastUpdateTimeEv>
     ca6:	a7 01       	movw	r20, r14
     ca8:	96 01       	movw	r18, r12
     caa:	26 1b       	sub	r18, r22
     cac:	37 0b       	sbc	r19, r23
     cae:	48 0b       	sbc	r20, r24
     cb0:	59 0b       	sbc	r21, r25
     cb2:	da 01       	movw	r26, r20
     cb4:	c9 01       	movw	r24, r18
     cb6:	89 3e       	cpi	r24, 0xE9	; 233
     cb8:	93 40       	sbci	r25, 0x03	; 3
     cba:	a1 05       	cpc	r26, r1
     cbc:	b1 05       	cpc	r27, r1
     cbe:	80 f1       	brcs	.+96     	; 0xd20 <loop+0x186>
     cc0:	e0 91 12 01 	lds	r30, 0x0112
     cc4:	f0 91 13 01 	lds	r31, 0x0113
     cc8:	26 89       	ldd	r18, Z+22	; 0x16
     cca:	37 89       	ldd	r19, Z+23	; 0x17
     ccc:	40 8d       	ldd	r20, Z+24	; 0x18
     cce:	51 8d       	ldd	r21, Z+25	; 0x19
     cd0:	a8 ee       	ldi	r26, 0xE8	; 232
     cd2:	b3 e0       	ldi	r27, 0x03	; 3
     cd4:	0e 94 c6 2a 	call	0x558c	; 0x558c <__muluhisi3>
     cd8:	4b 01       	movw	r8, r22
     cda:	5c 01       	movw	r10, r24
     cdc:	8c 18       	sub	r8, r12
     cde:	9d 08       	sbc	r9, r13
     ce0:	ae 08       	sbc	r10, r14
     ce2:	bf 08       	sbc	r11, r15
     ce4:	82 e9       	ldi	r24, 0x92	; 146
     ce6:	92 e0       	ldi	r25, 0x02	; 2
     ce8:	d6 d5       	rcall	.+2988   	; 0x1896 <_ZNK10NikType00326getTimeLastCaptureCompleteEv>
     cea:	68 0d       	add	r22, r8
     cec:	79 1d       	adc	r23, r9
     cee:	8a 1d       	adc	r24, r10
     cf0:	9b 1d       	adc	r25, r11
     cf2:	28 ee       	ldi	r18, 0xE8	; 232
     cf4:	33 e0       	ldi	r19, 0x03	; 3
     cf6:	40 e0       	ldi	r20, 0x00	; 0
     cf8:	50 e0       	ldi	r21, 0x00	; 0
     cfa:	0e 94 a4 2a 	call	0x5548	; 0x5548 <__udivmodsi4>
     cfe:	61 e0       	ldi	r22, 0x01	; 1
     d00:	62 0f       	add	r22, r18
     d02:	80 91 10 01 	lds	r24, 0x0110
     d06:	90 91 11 01 	lds	r25, 0x0111
     d0a:	df 91       	pop	r29
     d0c:	cf 91       	pop	r28
     d0e:	ff 90       	pop	r15
     d10:	ef 90       	pop	r14
     d12:	df 90       	pop	r13
     d14:	cf 90       	pop	r12
     d16:	bf 90       	pop	r11
     d18:	af 90       	pop	r10
     d1a:	9f 90       	pop	r9
     d1c:	8f 90       	pop	r8
     d1e:	c9 c7       	rjmp	.+3986   	; 0x1cb2 <_ZN20RunFocusStackHandler11reportDelayEh>
     d20:	df 91       	pop	r29
     d22:	cf 91       	pop	r28
     d24:	ff 90       	pop	r15
     d26:	ef 90       	pop	r14
     d28:	df 90       	pop	r13
     d2a:	cf 90       	pop	r12
     d2c:	bf 90       	pop	r11
     d2e:	af 90       	pop	r10
     d30:	9f 90       	pop	r9
     d32:	8f 90       	pop	r8
     d34:	08 95       	ret

00000d36 <_ZN4TPinI5PortbLh2EE3SetEv>:
     d36:	2a 9a       	sbi	0x05, 2	; 5
     d38:	08 95       	ret

00000d3a <_ZN8MAX3421eI4TPinI5PortbLh2EES0_IS1_Lh1EEE5regRdEh.isra.4>:
     d3a:	2a 98       	cbi	0x05, 2	; 5
     d3c:	8e bd       	out	0x2e, r24	; 46
     d3e:	0d b4       	in	r0, 0x2d	; 45
     d40:	07 fe       	sbrs	r0, 7
     d42:	fd cf       	rjmp	.-6      	; 0xd3e <_ZN8MAX3421eI4TPinI5PortbLh2EES0_IS1_Lh1EEE5regRdEh.isra.4+0x4>
     d44:	1e bc       	out	0x2e, r1	; 46
     d46:	0d b4       	in	r0, 0x2d	; 45
     d48:	07 fe       	sbrs	r0, 7
     d4a:	fd cf       	rjmp	.-6      	; 0xd46 <_ZN8MAX3421eI4TPinI5PortbLh2EES0_IS1_Lh1EEE5regRdEh.isra.4+0xc>
     d4c:	f4 df       	rcall	.-24     	; 0xd36 <_ZN4TPinI5PortbLh2EE3SetEv>
     d4e:	8e b5       	in	r24, 0x2e	; 46
     d50:	08 95       	ret

00000d52 <_ZN8MAX3421eI4TPinI5PortbLh2EES0_IS1_Lh1EEE5regWrEhh.isra.5>:
     d52:	2a 98       	cbi	0x05, 2	; 5
     d54:	82 60       	ori	r24, 0x02	; 2
     d56:	8e bd       	out	0x2e, r24	; 46
     d58:	0d b4       	in	r0, 0x2d	; 45
     d5a:	07 fe       	sbrs	r0, 7
     d5c:	fd cf       	rjmp	.-6      	; 0xd58 <_ZN8MAX3421eI4TPinI5PortbLh2EES0_IS1_Lh1EEE5regWrEhh.isra.5+0x6>
     d5e:	6e bd       	out	0x2e, r22	; 46
     d60:	0d b4       	in	r0, 0x2d	; 45
     d62:	07 fe       	sbrs	r0, 7
     d64:	fd cf       	rjmp	.-6      	; 0xd60 <_ZN8MAX3421eI4TPinI5PortbLh2EES0_IS1_Lh1EEE5regWrEhh.isra.5+0xe>
     d66:	e7 cf       	rjmp	.-50     	; 0xd36 <_ZN4TPinI5PortbLh2EE3SetEv>

00000d68 <_ZN8MAX3421eI4TPinI5PortbLh2EES0_IS1_Lh1EEE8busprobeEv>:
     d68:	88 ef       	ldi	r24, 0xF8	; 248
     d6a:	e7 df       	rcall	.-50     	; 0xd3a <_ZN8MAX3421eI4TPinI5PortbLh2EES0_IS1_Lh1EEE5regRdEh.isra.4>
     d6c:	80 7c       	andi	r24, 0xC0	; 192
     d6e:	80 34       	cpi	r24, 0x40	; 64
     d70:	91 f0       	breq	.+36     	; 0xd96 <_ZN8MAX3421eI4TPinI5PortbLh2EES0_IS1_Lh1EEE8busprobeEv+0x2e>
     d72:	18 f4       	brcc	.+6      	; 0xd7a <_ZN8MAX3421eI4TPinI5PortbLh2EES0_IS1_Lh1EEE8busprobeEv+0x12>
     d74:	88 23       	and	r24, r24
     d76:	e1 f0       	breq	.+56     	; 0xdb0 <_ZN8MAX3421eI4TPinI5PortbLh2EES0_IS1_Lh1EEE8busprobeEv+0x48>
     d78:	08 95       	ret
     d7a:	80 38       	cpi	r24, 0x80	; 128
     d7c:	19 f0       	breq	.+6      	; 0xd84 <_ZN8MAX3421eI4TPinI5PortbLh2EES0_IS1_Lh1EEE8busprobeEv+0x1c>
     d7e:	80 3c       	cpi	r24, 0xC0	; 192
     d80:	99 f0       	breq	.+38     	; 0xda8 <_ZN8MAX3421eI4TPinI5PortbLh2EES0_IS1_Lh1EEE8busprobeEv+0x40>
     d82:	08 95       	ret
     d84:	88 ed       	ldi	r24, 0xD8	; 216
     d86:	d9 df       	rcall	.-78     	; 0xd3a <_ZN8MAX3421eI4TPinI5PortbLh2EES0_IS1_Lh1EEE5regRdEh.isra.4>
     d88:	81 fd       	sbrc	r24, 1
     d8a:	09 c0       	rjmp	.+18     	; 0xd9e <_ZN8MAX3421eI4TPinI5PortbLh2EES0_IS1_Lh1EEE8busprobeEv+0x36>
     d8c:	69 ec       	ldi	r22, 0xC9	; 201
     d8e:	88 ed       	ldi	r24, 0xD8	; 216
     d90:	e0 df       	rcall	.-64     	; 0xd52 <_ZN8MAX3421eI4TPinI5PortbLh2EES0_IS1_Lh1EEE5regWrEhh.isra.5>
     d92:	82 e0       	ldi	r24, 0x02	; 2
     d94:	0a c0       	rjmp	.+20     	; 0xdaa <_ZN8MAX3421eI4TPinI5PortbLh2EES0_IS1_Lh1EEE8busprobeEv+0x42>
     d96:	88 ed       	ldi	r24, 0xD8	; 216
     d98:	d0 df       	rcall	.-96     	; 0xd3a <_ZN8MAX3421eI4TPinI5PortbLh2EES0_IS1_Lh1EEE5regRdEh.isra.4>
     d9a:	81 fd       	sbrc	r24, 1
     d9c:	f7 cf       	rjmp	.-18     	; 0xd8c <_ZN8MAX3421eI4TPinI5PortbLh2EES0_IS1_Lh1EEE8busprobeEv+0x24>
     d9e:	6b ec       	ldi	r22, 0xCB	; 203
     da0:	88 ed       	ldi	r24, 0xD8	; 216
     da2:	d7 df       	rcall	.-82     	; 0xd52 <_ZN8MAX3421eI4TPinI5PortbLh2EES0_IS1_Lh1EEE5regWrEhh.isra.5>
     da4:	83 e0       	ldi	r24, 0x03	; 3
     da6:	01 c0       	rjmp	.+2      	; 0xdaa <_ZN8MAX3421eI4TPinI5PortbLh2EES0_IS1_Lh1EEE8busprobeEv+0x42>
     da8:	81 e0       	ldi	r24, 0x01	; 1
     daa:	80 93 32 02 	sts	0x0232, r24
     dae:	08 95       	ret
     db0:	61 ed       	ldi	r22, 0xD1	; 209
     db2:	88 ed       	ldi	r24, 0xD8	; 216
     db4:	ce df       	rcall	.-100    	; 0xd52 <_ZN8MAX3421eI4TPinI5PortbLh2EES0_IS1_Lh1EEE5regWrEhh.isra.5>
     db6:	10 92 32 02 	sts	0x0232, r1
     dba:	08 95       	ret

00000dbc <_ZN8MAX3421eI4TPinI5PortbLh2EES0_IS1_Lh1EEE4InitEv>:
     dbc:	0f 93       	push	r16
     dbe:	1f 93       	push	r17
     dc0:	cf 93       	push	r28
     dc2:	df 93       	push	r29
     dc4:	8c 01       	movw	r16, r24
     dc6:	22 9a       	sbi	0x04, 2	; 4
     dc8:	b6 df       	rcall	.-148    	; 0xd36 <_ZN4TPinI5PortbLh2EE3SetEv>
     dca:	25 9a       	sbi	0x04, 5	; 4
     dcc:	23 9a       	sbi	0x04, 3	; 4
     dce:	24 98       	cbi	0x04, 4	; 4
     dd0:	22 9a       	sbi	0x04, 2	; 4
     dd2:	80 e5       	ldi	r24, 0x50	; 80
     dd4:	8c bd       	out	0x2c, r24	; 44
     dd6:	81 e0       	ldi	r24, 0x01	; 1
     dd8:	8d bd       	out	0x2d, r24	; 45
     dda:	21 98       	cbi	0x04, 1	; 4
     ddc:	68 e1       	ldi	r22, 0x18	; 24
     dde:	88 e8       	ldi	r24, 0x88	; 136
     de0:	b8 df       	rcall	.-144    	; 0xd52 <_ZN8MAX3421eI4TPinI5PortbLh2EES0_IS1_Lh1EEE5regWrEhh.isra.5>
     de2:	60 e2       	ldi	r22, 0x20	; 32
     de4:	88 e7       	ldi	r24, 0x78	; 120
     de6:	b5 df       	rcall	.-150    	; 0xd52 <_ZN8MAX3421eI4TPinI5PortbLh2EES0_IS1_Lh1EEE5regWrEhh.isra.5>
     de8:	60 e0       	ldi	r22, 0x00	; 0
     dea:	88 e7       	ldi	r24, 0x78	; 120
     dec:	b2 df       	rcall	.-156    	; 0xd52 <_ZN8MAX3421eI4TPinI5PortbLh2EES0_IS1_Lh1EEE5regWrEhh.isra.5>
     dee:	c0 e0       	ldi	r28, 0x00	; 0
     df0:	d0 e0       	ldi	r29, 0x00	; 0
     df2:	88 e6       	ldi	r24, 0x68	; 104
     df4:	a2 df       	rcall	.-188    	; 0xd3a <_ZN8MAX3421eI4TPinI5PortbLh2EES0_IS1_Lh1EEE5regRdEh.isra.4>
     df6:	21 96       	adiw	r28, 0x01	; 1
     df8:	80 fd       	sbrc	r24, 0
     dfa:	06 c0       	rjmp	.+12     	; 0xe08 <_ZN8MAX3421eI4TPinI5PortbLh2EES0_IS1_Lh1EEE4InitEv+0x4c>
     dfc:	cf 3f       	cpi	r28, 0xFF	; 255
     dfe:	8f ef       	ldi	r24, 0xFF	; 255
     e00:	d8 07       	cpc	r29, r24
     e02:	b9 f7       	brne	.-18     	; 0xdf2 <_ZN8MAX3421eI4TPinI5PortbLh2EES0_IS1_Lh1EEE4InitEv+0x36>
     e04:	8f ef       	ldi	r24, 0xFF	; 255
     e06:	16 c0       	rjmp	.+44     	; 0xe34 <_ZN8MAX3421eI4TPinI5PortbLh2EES0_IS1_Lh1EEE4InitEv+0x78>
     e08:	61 ec       	ldi	r22, 0xC1	; 193
     e0a:	88 ed       	ldi	r24, 0xD8	; 216
     e0c:	a2 df       	rcall	.-188    	; 0xd52 <_ZN8MAX3421eI4TPinI5PortbLh2EES0_IS1_Lh1EEE5regWrEhh.isra.5>
     e0e:	60 e6       	ldi	r22, 0x60	; 96
     e10:	80 ed       	ldi	r24, 0xD0	; 208
     e12:	9f df       	rcall	.-194    	; 0xd52 <_ZN8MAX3421eI4TPinI5PortbLh2EES0_IS1_Lh1EEE5regWrEhh.isra.5>
     e14:	64 e0       	ldi	r22, 0x04	; 4
     e16:	88 ee       	ldi	r24, 0xE8	; 232
     e18:	9c df       	rcall	.-200    	; 0xd52 <_ZN8MAX3421eI4TPinI5PortbLh2EES0_IS1_Lh1EEE5regWrEhh.isra.5>
     e1a:	88 ee       	ldi	r24, 0xE8	; 232
     e1c:	8e df       	rcall	.-228    	; 0xd3a <_ZN8MAX3421eI4TPinI5PortbLh2EES0_IS1_Lh1EEE5regRdEh.isra.4>
     e1e:	82 ff       	sbrs	r24, 2
     e20:	fc cf       	rjmp	.-8      	; 0xe1a <_ZN8MAX3421eI4TPinI5PortbLh2EES0_IS1_Lh1EEE4InitEv+0x5e>
     e22:	c8 01       	movw	r24, r16
     e24:	a1 df       	rcall	.-190    	; 0xd68 <_ZN8MAX3421eI4TPinI5PortbLh2EES0_IS1_Lh1EEE8busprobeEv>
     e26:	60 e2       	ldi	r22, 0x20	; 32
     e28:	88 ec       	ldi	r24, 0xC8	; 200
     e2a:	93 df       	rcall	.-218    	; 0xd52 <_ZN8MAX3421eI4TPinI5PortbLh2EES0_IS1_Lh1EEE5regWrEhh.isra.5>
     e2c:	61 e0       	ldi	r22, 0x01	; 1
     e2e:	80 e8       	ldi	r24, 0x80	; 128
     e30:	90 df       	rcall	.-224    	; 0xd52 <_ZN8MAX3421eI4TPinI5PortbLh2EES0_IS1_Lh1EEE5regWrEhh.isra.5>
     e32:	80 e0       	ldi	r24, 0x00	; 0
     e34:	df 91       	pop	r29
     e36:	cf 91       	pop	r28
     e38:	1f 91       	pop	r17
     e3a:	0f 91       	pop	r16
     e3c:	08 95       	ret

00000e3e <setup>:
     e3e:	40 e8       	ldi	r20, 0x80	; 128
     e40:	55 e2       	ldi	r21, 0x25	; 37
     e42:	60 e0       	ldi	r22, 0x00	; 0
     e44:	70 e0       	ldi	r23, 0x00	; 0
     e46:	8c e3       	ldi	r24, 0x3C	; 60
     e48:	94 e0       	ldi	r25, 0x04	; 4
     e4a:	0e 94 1b 16 	call	0x2c36	; 0x2c36 <_ZN14HardwareSerial5beginEm>
     e4e:	20 e0       	ldi	r18, 0x00	; 0
     e50:	42 e0       	ldi	r20, 0x02	; 2
     e52:	60 e1       	ldi	r22, 0x10	; 16
     e54:	83 e7       	ldi	r24, 0x73	; 115
     e56:	92 e0       	ldi	r25, 0x02	; 2
     e58:	3e dd       	rcall	.-1412   	; 0x8d6 <_ZN21Adafruit_RGBLCDShield5beginEhhh>
     e5a:	88 ec       	ldi	r24, 0xC8	; 200
     e5c:	92 e0       	ldi	r25, 0x02	; 2
     e5e:	ae df       	rcall	.-164    	; 0xdbc <_ZN8MAX3421eI4TPinI5PortbLh2EES0_IS1_Lh1EEE4InitEv>
     e60:	8f 3f       	cpi	r24, 0xFF	; 255
     e62:	81 f4       	brne	.+32     	; 0xe84 <setup+0x46>
     e64:	6a e2       	ldi	r22, 0x2A	; 42
     e66:	71 e0       	ldi	r23, 0x01	; 1
     e68:	8c e3       	ldi	r24, 0x3C	; 60
     e6a:	94 e0       	ldi	r25, 0x04	; 4
     e6c:	0e 94 7a 17 	call	0x2ef4	; 0x2ef4 <_ZN5Print7printlnEPKc>
     e70:	68 e6       	ldi	r22, 0x68	; 104
     e72:	70 e0       	ldi	r23, 0x00	; 0
     e74:	80 91 0a 01 	lds	r24, 0x010A
     e78:	90 91 0b 01 	lds	r25, 0x010B
     e7c:	0e 94 3d 17 	call	0x2e7a	; 0x2e7a <_ZN5Print5printEPK19__FlashStringHelper>
     e80:	10 92 0c 01 	sts	0x010C, r1
     e84:	84 e0       	ldi	r24, 0x04	; 4
     e86:	90 e0       	ldi	r25, 0x00	; 0
     e88:	0e 94 0a 2b 	call	0x5614	; 0x5614 <__eerd_word_m328p>
     e8c:	90 93 0f 01 	sts	0x010F, r25
     e90:	80 93 0e 01 	sts	0x010E, r24
     e94:	8f 3f       	cpi	r24, 0xFF	; 255
     e96:	2f ef       	ldi	r18, 0xFF	; 255
     e98:	92 07       	cpc	r25, r18
     e9a:	51 f0       	breq	.+20     	; 0xeb0 <setup+0x72>
     e9c:	a0 e0       	ldi	r26, 0x00	; 0
     e9e:	b0 e0       	ldi	r27, 0x00	; 0
     ea0:	80 93 5f 03 	sts	0x035F, r24
     ea4:	90 93 60 03 	sts	0x0360, r25
     ea8:	a0 93 61 03 	sts	0x0361, r26
     eac:	b0 93 62 03 	sts	0x0362, r27
     eb0:	82 e0       	ldi	r24, 0x02	; 2
     eb2:	90 e0       	ldi	r25, 0x00	; 0
     eb4:	0e 94 0a 2b 	call	0x5614	; 0x5614 <__eerd_word_m328p>
     eb8:	90 93 91 02 	sts	0x0291, r25
     ebc:	80 93 90 02 	sts	0x0290, r24
     ec0:	8f 3f       	cpi	r24, 0xFF	; 255
     ec2:	2f ef       	ldi	r18, 0xFF	; 255
     ec4:	92 07       	cpc	r25, r18
     ec6:	51 f0       	breq	.+20     	; 0xedc <setup+0x9e>
     ec8:	a0 e0       	ldi	r26, 0x00	; 0
     eca:	b0 e0       	ldi	r27, 0x00	; 0
     ecc:	80 93 67 03 	sts	0x0367, r24
     ed0:	90 93 68 03 	sts	0x0368, r25
     ed4:	a0 93 69 03 	sts	0x0369, r26
     ed8:	b0 93 6a 03 	sts	0x036A, r27
     edc:	81 e0       	ldi	r24, 0x01	; 1
     ede:	90 e0       	ldi	r25, 0x00	; 0
     ee0:	0e 94 02 2b 	call	0x5604	; 0x5604 <__eerd_byte_m328p>
     ee4:	80 93 0d 01 	sts	0x010D, r24
     ee8:	8f 3f       	cpi	r24, 0xFF	; 255
     eea:	59 f0       	breq	.+22     	; 0xf02 <setup+0xc4>
     eec:	90 e0       	ldi	r25, 0x00	; 0
     eee:	a0 e0       	ldi	r26, 0x00	; 0
     ef0:	b0 e0       	ldi	r27, 0x00	; 0
     ef2:	80 93 63 03 	sts	0x0363, r24
     ef6:	90 93 64 03 	sts	0x0364, r25
     efa:	a0 93 65 03 	sts	0x0365, r26
     efe:	b0 93 66 03 	sts	0x0366, r27
     f02:	80 e0       	ldi	r24, 0x00	; 0
     f04:	90 e0       	ldi	r25, 0x00	; 0
     f06:	0e 94 02 2b 	call	0x5604	; 0x5604 <__eerd_byte_m328p>
     f0a:	80 93 8f 02 	sts	0x028F, r24
     f0e:	8f 3f       	cpi	r24, 0xFF	; 255
     f10:	31 f0       	breq	.+12     	; 0xf1e <setup+0xe0>
     f12:	91 e0       	ldi	r25, 0x01	; 1
     f14:	81 11       	cpse	r24, r1
     f16:	01 c0       	rjmp	.+2      	; 0xf1a <setup+0xdc>
     f18:	90 e0       	ldi	r25, 0x00	; 0
     f1a:	90 93 6b 03 	sts	0x036B, r25
     f1e:	08 95       	ret

00000f20 <_GLOBAL__sub_I_g_pump>:
     f20:	ef 92       	push	r14
     f22:	ff 92       	push	r15
     f24:	0f 93       	push	r16
     f26:	1f 93       	push	r17
     f28:	60 e0       	ldi	r22, 0x00	; 0
     f2a:	70 e0       	ldi	r23, 0x00	; 0
     f2c:	8a e7       	ldi	r24, 0x7A	; 122
     f2e:	93 e0       	ldi	r25, 0x03	; 3
     f30:	81 d1       	rcall	.+770    	; 0x1234 <_ZN11MessagePumpC1EP15IMessageHandler>
     f32:	6a e7       	ldi	r22, 0x7A	; 122
     f34:	73 e0       	ldi	r23, 0x03	; 3
     f36:	8c e6       	ldi	r24, 0x6C	; 108
     f38:	93 e0       	ldi	r25, 0x03	; 3
     f3a:	a8 d0       	rcall	.+336    	; 0x108c <_ZN15MainMenuHandlerC1EP11MessagePump>
     f3c:	1a e0       	ldi	r17, 0x0A	; 10
     f3e:	e1 2e       	mov	r14, r17
     f40:	f1 2c       	mov	r15, r1
     f42:	00 e0       	ldi	r16, 0x00	; 0
     f44:	10 e0       	ldi	r17, 0x00	; 0
     f46:	2a ef       	ldi	r18, 0xFA	; 250
     f48:	30 e0       	ldi	r19, 0x00	; 0
     f4a:	40 e0       	ldi	r20, 0x00	; 0
     f4c:	50 e0       	ldi	r21, 0x00	; 0
     f4e:	6a e7       	ldi	r22, 0x7A	; 122
     f50:	73 e0       	ldi	r23, 0x03	; 3
     f52:	81 e5       	ldi	r24, 0x51	; 81
     f54:	93 e0       	ldi	r25, 0x03	; 3
     f56:	e9 d6       	rcall	.+3538   	; 0x1d2a <_ZN12SetupHandlerC1EP11MessagePumpmm>
     f58:	6a e7       	ldi	r22, 0x7A	; 122
     f5a:	73 e0       	ldi	r23, 0x03	; 3
     f5c:	8f e3       	ldi	r24, 0x3F	; 63
     f5e:	93 e0       	ldi	r25, 0x03	; 3
     f60:	35 d6       	rcall	.+3178   	; 0x1bcc <_ZN20RunFocusStackHandlerC1EP11MessagePump>
     f62:	88 ec       	ldi	r24, 0xC8	; 200
     f64:	92 e0       	ldi	r25, 0x02	; 2
     f66:	0e 94 34 21 	call	0x4268	; 0x4268 <_ZN3USBC1Ev>
     f6a:	85 ec       	ldi	r24, 0xC5	; 197
     f6c:	92 e0       	ldi	r25, 0x02	; 2
     f6e:	bc d5       	rcall	.+2936   	; 0x1ae8 <_ZN22NikType003StateHandlerC1Ev>
     f70:	45 ec       	ldi	r20, 0xC5	; 197
     f72:	52 e0       	ldi	r21, 0x02	; 2
     f74:	68 ec       	ldi	r22, 0xC8	; 200
     f76:	72 e0       	ldi	r23, 0x02	; 2
     f78:	82 e9       	ldi	r24, 0x92	; 146
     f7a:	92 e0       	ldi	r25, 0x02	; 2
     f7c:	bd d1       	rcall	.+890    	; 0x12f8 <_ZN10NikType003C1EP3USBP16PTPStateHandlers>
     f7e:	83 e7       	ldi	r24, 0x73	; 115
     f80:	92 e0       	ldi	r25, 0x02	; 2
     f82:	02 db       	rcall	.-2556   	; 0x588 <_ZN21Adafruit_RGBLCDShieldC1Ev>
     f84:	60 91 0a 01 	lds	r22, 0x010A
     f88:	70 91 0b 01 	lds	r23, 0x010B
     f8c:	8f e6       	ldi	r24, 0x6F	; 111
     f8e:	92 e0       	ldi	r25, 0x02	; 2
     f90:	e1 d5       	rcall	.+3010   	; 0x1b54 <_ZN26ReadAdaFruitLcdButtonStateC1EP21Adafruit_RGBLCDShield>
     f92:	01 e0       	ldi	r16, 0x01	; 1
     f94:	20 e0       	ldi	r18, 0x00	; 0
     f96:	40 e1       	ldi	r20, 0x10	; 16
     f98:	50 e0       	ldi	r21, 0x00	; 0
     f9a:	6f e6       	ldi	r22, 0x6F	; 111
     f9c:	72 e0       	ldi	r23, 0x02	; 2
     f9e:	83 e6       	ldi	r24, 0x63	; 99
     fa0:	92 e0       	ldi	r25, 0x02	; 2
     fa2:	a6 dd       	rcall	.-1204   	; 0xaf0 <_ZN6ButtonC1EP15ReadButtonStatei7MsgCodeb>
     fa4:	21 e0       	ldi	r18, 0x01	; 1
     fa6:	42 e0       	ldi	r20, 0x02	; 2
     fa8:	50 e0       	ldi	r21, 0x00	; 0
     faa:	6f e6       	ldi	r22, 0x6F	; 111
     fac:	72 e0       	ldi	r23, 0x02	; 2
     fae:	87 e5       	ldi	r24, 0x57	; 87
     fb0:	92 e0       	ldi	r25, 0x02	; 2
     fb2:	9e dd       	rcall	.-1220   	; 0xaf0 <_ZN6ButtonC1EP15ReadButtonStatei7MsgCodeb>
     fb4:	22 e0       	ldi	r18, 0x02	; 2
     fb6:	48 e0       	ldi	r20, 0x08	; 8
     fb8:	50 e0       	ldi	r21, 0x00	; 0
     fba:	6f e6       	ldi	r22, 0x6F	; 111
     fbc:	72 e0       	ldi	r23, 0x02	; 2
     fbe:	8b e4       	ldi	r24, 0x4B	; 75
     fc0:	92 e0       	ldi	r25, 0x02	; 2
     fc2:	96 dd       	rcall	.-1236   	; 0xaf0 <_ZN6ButtonC1EP15ReadButtonStatei7MsgCodeb>
     fc4:	23 e0       	ldi	r18, 0x03	; 3
     fc6:	44 e0       	ldi	r20, 0x04	; 4
     fc8:	50 e0       	ldi	r21, 0x00	; 0
     fca:	6f e6       	ldi	r22, 0x6F	; 111
     fcc:	72 e0       	ldi	r23, 0x02	; 2
     fce:	8f e3       	ldi	r24, 0x3F	; 63
     fd0:	92 e0       	ldi	r25, 0x02	; 2
     fd2:	8e dd       	rcall	.-1252   	; 0xaf0 <_ZN6ButtonC1EP15ReadButtonStatei7MsgCodeb>
     fd4:	24 e0       	ldi	r18, 0x04	; 4
     fd6:	41 e0       	ldi	r20, 0x01	; 1
     fd8:	50 e0       	ldi	r21, 0x00	; 0
     fda:	6f e6       	ldi	r22, 0x6F	; 111
     fdc:	72 e0       	ldi	r23, 0x02	; 2
     fde:	83 e3       	ldi	r24, 0x33	; 51
     fe0:	92 e0       	ldi	r25, 0x02	; 2
     fe2:	86 dd       	rcall	.-1268   	; 0xaf0 <_ZN6ButtonC1EP15ReadButtonStatei7MsgCodeb>
     fe4:	1f 91       	pop	r17
     fe6:	0f 91       	pop	r16
     fe8:	ff 90       	pop	r15
     fea:	ef 90       	pop	r14
     fec:	08 95       	ret

00000fee <_GLOBAL__sub_D_g_pump>:
     fee:	8f e6       	ldi	r24, 0x6F	; 111
     ff0:	92 e0       	ldi	r25, 0x02	; 2
     ff2:	87 d5       	rcall	.+2830   	; 0x1b02 <_ZN26ReadAdaFruitLcdButtonStateD1Ev>
     ff4:	8f e3       	ldi	r24, 0x3F	; 63
     ff6:	93 e0       	ldi	r25, 0x03	; 3
     ff8:	fa d5       	rcall	.+3060   	; 0x1bee <_ZN20RunFocusStackHandlerD1Ev>
     ffa:	81 e5       	ldi	r24, 0x51	; 81
     ffc:	93 e0       	ldi	r25, 0x03	; 3
     ffe:	e0 d6       	rcall	.+3520   	; 0x1dc0 <_ZN12SetupHandlerD1Ev>
    1000:	8c e6       	ldi	r24, 0x6C	; 108
    1002:	93 e0       	ldi	r25, 0x03	; 3
    1004:	56 c0       	rjmp	.+172    	; 0x10b2 <_ZN15MainMenuHandlerD1Ev>

00001006 <_ZN15MainMenuHandler14processMessageER3Msg>:
    1006:	0f 93       	push	r16
    1008:	1f 93       	push	r17
    100a:	cf 93       	push	r28
    100c:	df 93       	push	r29
    100e:	ec 01       	movw	r28, r24
    1010:	8b 01       	movw	r16, r22
    1012:	fb 01       	movw	r30, r22
    1014:	80 81       	ld	r24, Z
    1016:	91 81       	ldd	r25, Z+1	; 0x01
    1018:	89 2b       	or	r24, r25
    101a:	91 f5       	brne	.+100    	; 0x1080 <_ZN15MainMenuHandler14processMessageER3Msg+0x7a>
    101c:	82 81       	ldd	r24, Z+2	; 0x02
    101e:	81 30       	cpi	r24, 0x01	; 1
    1020:	61 f0       	breq	.+24     	; 0x103a <_ZN15MainMenuHandler14processMessageER3Msg+0x34>
    1022:	18 f0       	brcs	.+6      	; 0x102a <_ZN15MainMenuHandler14processMessageER3Msg+0x24>
    1024:	84 30       	cpi	r24, 0x04	; 4
    1026:	99 f0       	breq	.+38     	; 0x104e <_ZN15MainMenuHandler14processMessageER3Msg+0x48>
    1028:	2b c0       	rjmp	.+86     	; 0x1080 <_ZN15MainMenuHandler14processMessageER3Msg+0x7a>
    102a:	8c 85       	ldd	r24, Y+12	; 0x0c
    102c:	88 23       	and	r24, r24
    102e:	51 f0       	breq	.+20     	; 0x1044 <_ZN15MainMenuHandler14processMessageER3Msg+0x3e>
    1030:	88 30       	cpi	r24, 0x08	; 8
    1032:	31 f5       	brne	.+76     	; 0x1080 <_ZN15MainMenuHandler14processMessageER3Msg+0x7a>
    1034:	41 e0       	ldi	r20, 0x01	; 1
    1036:	60 e0       	ldi	r22, 0x00	; 0
    1038:	07 c0       	rjmp	.+14     	; 0x1048 <_ZN15MainMenuHandler14processMessageER3Msg+0x42>
    103a:	82 e9       	ldi	r24, 0x92	; 146
    103c:	92 e0       	ldi	r25, 0x02	; 2
    103e:	15 d4       	rcall	.+2090   	; 0x186a <_ZNK10NikType00311isConnectedEv>
    1040:	88 23       	and	r24, r24
    1042:	f1 f0       	breq	.+60     	; 0x1080 <_ZN15MainMenuHandler14processMessageER3Msg+0x7a>
    1044:	41 e0       	ldi	r20, 0x01	; 1
    1046:	68 e0       	ldi	r22, 0x08	; 8
    1048:	ce 01       	movw	r24, r28
    104a:	da d0       	rcall	.+436    	; 0x1200 <_ZN15IMessageHandler9moveCaretEhh>
    104c:	19 c0       	rjmp	.+50     	; 0x1080 <_ZN15MainMenuHandler14processMessageER3Msg+0x7a>
    104e:	8c 85       	ldd	r24, Y+12	; 0x0c
    1050:	88 23       	and	r24, r24
    1052:	19 f0       	breq	.+6      	; 0x105a <_ZN15MainMenuHandler14processMessageER3Msg+0x54>
    1054:	88 30       	cpi	r24, 0x08	; 8
    1056:	31 f0       	breq	.+12     	; 0x1064 <_ZN15MainMenuHandler14processMessageER3Msg+0x5e>
    1058:	13 c0       	rjmp	.+38     	; 0x1080 <_ZN15MainMenuHandler14processMessageER3Msg+0x7a>
    105a:	80 91 12 01 	lds	r24, 0x0112
    105e:	90 91 13 01 	lds	r25, 0x0113
    1062:	09 c0       	rjmp	.+18     	; 0x1076 <_ZN15MainMenuHandler14processMessageER3Msg+0x70>
    1064:	82 e9       	ldi	r24, 0x92	; 146
    1066:	92 e0       	ldi	r25, 0x02	; 2
    1068:	00 d4       	rcall	.+2048   	; 0x186a <_ZNK10NikType00311isConnectedEv>
    106a:	88 23       	and	r24, r24
    106c:	49 f0       	breq	.+18     	; 0x1080 <_ZN15MainMenuHandler14processMessageER3Msg+0x7a>
    106e:	80 91 10 01 	lds	r24, 0x0110
    1072:	90 91 11 01 	lds	r25, 0x0111
    1076:	f8 01       	movw	r30, r16
    1078:	94 83       	std	Z+4, r25	; 0x04
    107a:	83 83       	std	Z+3, r24	; 0x03
    107c:	80 e0       	ldi	r24, 0x00	; 0
    107e:	01 c0       	rjmp	.+2      	; 0x1082 <_ZN15MainMenuHandler14processMessageER3Msg+0x7c>
    1080:	81 e0       	ldi	r24, 0x01	; 1
    1082:	df 91       	pop	r29
    1084:	cf 91       	pop	r28
    1086:	1f 91       	pop	r17
    1088:	0f 91       	pop	r16
    108a:	08 95       	ret

0000108c <_ZN15MainMenuHandlerC1EP11MessagePump>:
    108c:	cf 93       	push	r28
    108e:	df 93       	push	r29
    1090:	ec 01       	movw	r28, r24
    1092:	1a d0       	rcall	.+52     	; 0x10c8 <_ZN15IMessageHandlerC1EP11MessagePump>
    1094:	8b e4       	ldi	r24, 0x4B	; 75
    1096:	91 e0       	ldi	r25, 0x01	; 1
    1098:	99 83       	std	Y+1, r25	; 0x01
    109a:	88 83       	st	Y, r24
    109c:	8d e3       	ldi	r24, 0x3D	; 61
    109e:	91 e0       	ldi	r25, 0x01	; 1
    10a0:	9d 83       	std	Y+5, r25	; 0x05
    10a2:	8c 83       	std	Y+4, r24	; 0x04
    10a4:	83 e4       	ldi	r24, 0x43	; 67
    10a6:	91 e0       	ldi	r25, 0x01	; 1
    10a8:	9f 83       	std	Y+7, r25	; 0x07
    10aa:	8e 83       	std	Y+6, r24	; 0x06
    10ac:	df 91       	pop	r29
    10ae:	cf 91       	pop	r28
    10b0:	08 95       	ret

000010b2 <_ZN15MainMenuHandlerD1Ev>:
    10b2:	2b e4       	ldi	r18, 0x4B	; 75
    10b4:	31 e0       	ldi	r19, 0x01	; 1
    10b6:	fc 01       	movw	r30, r24
    10b8:	31 83       	std	Z+1, r19	; 0x01
    10ba:	20 83       	st	Z, r18
    10bc:	08 95       	ret

000010be <_ZN15MainMenuHandler4showEv>:
    10be:	20 91 0c 01 	lds	r18, 0x010C
    10c2:	21 11       	cpse	r18, r1
    10c4:	43 c0       	rjmp	.+134    	; 0x114c <_ZN15IMessageHandler4showEv>
    10c6:	08 95       	ret

000010c8 <_ZN15IMessageHandlerC1EP11MessagePump>:
    10c8:	fc 01       	movw	r30, r24
    10ca:	83 e5       	ldi	r24, 0x53	; 83
    10cc:	91 e0       	ldi	r25, 0x01	; 1
    10ce:	91 83       	std	Z+1, r25	; 0x01
    10d0:	80 83       	st	Z, r24
    10d2:	73 83       	std	Z+3, r23	; 0x03
    10d4:	62 83       	std	Z+2, r22	; 0x02
    10d6:	14 86       	std	Z+12, r1	; 0x0c
    10d8:	81 e0       	ldi	r24, 0x01	; 1
    10da:	85 87       	std	Z+13, r24	; 0x0d
    10dc:	34 96       	adiw	r30, 0x04	; 4
    10de:	88 e0       	ldi	r24, 0x08	; 8
    10e0:	df 01       	movw	r26, r30
    10e2:	1d 92       	st	X+, r1
    10e4:	8a 95       	dec	r24
    10e6:	e9 f7       	brne	.-6      	; 0x10e2 <_ZN15IMessageHandlerC1EP11MessagePump+0x1a>
    10e8:	08 95       	ret

000010ea <_ZN15IMessageHandler13printMenuItemEhh>:
    10ea:	1f 93       	push	r17
    10ec:	cf 93       	push	r28
    10ee:	df 93       	push	r29
    10f0:	18 2f       	mov	r17, r24
    10f2:	d9 2f       	mov	r29, r25
    10f4:	c4 2f       	mov	r28, r20
    10f6:	40 e0       	ldi	r20, 0x00	; 0
    10f8:	80 91 0a 01 	lds	r24, 0x010A
    10fc:	90 91 0b 01 	lds	r25, 0x010B
    1100:	b7 db       	rcall	.-2194   	; 0x870 <_ZN21Adafruit_RGBLCDShield9setCursorEhh>
    1102:	e1 2f       	mov	r30, r17
    1104:	fd 2f       	mov	r31, r29
    1106:	ec 0f       	add	r30, r28
    1108:	f1 1d       	adc	r31, r1
    110a:	ec 0f       	add	r30, r28
    110c:	f1 1d       	adc	r31, r1
    110e:	64 81       	ldd	r22, Z+4	; 0x04
    1110:	75 81       	ldd	r23, Z+5	; 0x05
    1112:	80 91 0a 01 	lds	r24, 0x010A
    1116:	90 91 0b 01 	lds	r25, 0x010B
    111a:	df 91       	pop	r29
    111c:	cf 91       	pop	r28
    111e:	1f 91       	pop	r17
    1120:	0c 94 5e 17 	jmp	0x2ebc	; 0x2ebc <_ZN5Print5printEPKc>

00001124 <_ZN15IMessageHandler9showCaretEb>:
    1124:	cf 93       	push	r28
    1126:	c6 2f       	mov	r28, r22
    1128:	fc 01       	movw	r30, r24
    112a:	45 85       	ldd	r20, Z+13	; 0x0d
    112c:	64 85       	ldd	r22, Z+12	; 0x0c
    112e:	80 91 0a 01 	lds	r24, 0x010A
    1132:	90 91 0b 01 	lds	r25, 0x010B
    1136:	9c db       	rcall	.-2248   	; 0x870 <_ZN21Adafruit_RGBLCDShield9setCursorEhh>
    1138:	80 91 0a 01 	lds	r24, 0x010A
    113c:	90 91 0b 01 	lds	r25, 0x010B
    1140:	cc 23       	and	r28, r28
    1142:	11 f0       	breq	.+4      	; 0x1148 <_ZN15IMessageHandler9showCaretEb+0x24>
    1144:	cf 91       	pop	r28
    1146:	96 cc       	rjmp	.-1748   	; 0xa74 <_ZN21Adafruit_RGBLCDShield6cursorEv>
    1148:	cf 91       	pop	r28
    114a:	8e cc       	rjmp	.-1764   	; 0xa68 <_ZN21Adafruit_RGBLCDShield8noCursorEv>

0000114c <_ZN15IMessageHandler4showEv>:
    114c:	cf 93       	push	r28
    114e:	df 93       	push	r29
    1150:	ec 01       	movw	r28, r24
    1152:	80 91 0a 01 	lds	r24, 0x010A
    1156:	90 91 0b 01 	lds	r25, 0x010B
    115a:	84 db       	rcall	.-2296   	; 0x864 <_ZN21Adafruit_RGBLCDShield5clearEv>
    115c:	8c 81       	ldd	r24, Y+4	; 0x04
    115e:	9d 81       	ldd	r25, Y+5	; 0x05
    1160:	89 2b       	or	r24, r25
    1162:	79 f0       	breq	.+30     	; 0x1182 <_ZN15IMessageHandler4showEv+0x36>
    1164:	40 e0       	ldi	r20, 0x00	; 0
    1166:	60 e0       	ldi	r22, 0x00	; 0
    1168:	80 91 0a 01 	lds	r24, 0x010A
    116c:	90 91 0b 01 	lds	r25, 0x010B
    1170:	7f db       	rcall	.-2306   	; 0x870 <_ZN21Adafruit_RGBLCDShield9setCursorEhh>
    1172:	6c 81       	ldd	r22, Y+4	; 0x04
    1174:	7d 81       	ldd	r23, Y+5	; 0x05
    1176:	80 91 0a 01 	lds	r24, 0x010A
    117a:	90 91 0b 01 	lds	r25, 0x010B
    117e:	0e 94 5e 17 	call	0x2ebc	; 0x2ebc <_ZN5Print5printEPKc>
    1182:	8e 81       	ldd	r24, Y+6	; 0x06
    1184:	9f 81       	ldd	r25, Y+7	; 0x07
    1186:	89 2b       	or	r24, r25
    1188:	79 f0       	breq	.+30     	; 0x11a8 <_ZN15IMessageHandler4showEv+0x5c>
    118a:	40 e0       	ldi	r20, 0x00	; 0
    118c:	68 e0       	ldi	r22, 0x08	; 8
    118e:	80 91 0a 01 	lds	r24, 0x010A
    1192:	90 91 0b 01 	lds	r25, 0x010B
    1196:	6c db       	rcall	.-2344   	; 0x870 <_ZN21Adafruit_RGBLCDShield9setCursorEhh>
    1198:	6e 81       	ldd	r22, Y+6	; 0x06
    119a:	7f 81       	ldd	r23, Y+7	; 0x07
    119c:	80 91 0a 01 	lds	r24, 0x010A
    11a0:	90 91 0b 01 	lds	r25, 0x010B
    11a4:	0e 94 5e 17 	call	0x2ebc	; 0x2ebc <_ZN5Print5printEPKc>
    11a8:	88 85       	ldd	r24, Y+8	; 0x08
    11aa:	99 85       	ldd	r25, Y+9	; 0x09
    11ac:	89 2b       	or	r24, r25
    11ae:	79 f0       	breq	.+30     	; 0x11ce <_ZN15IMessageHandler4showEv+0x82>
    11b0:	41 e0       	ldi	r20, 0x01	; 1
    11b2:	60 e0       	ldi	r22, 0x00	; 0
    11b4:	80 91 0a 01 	lds	r24, 0x010A
    11b8:	90 91 0b 01 	lds	r25, 0x010B
    11bc:	59 db       	rcall	.-2382   	; 0x870 <_ZN21Adafruit_RGBLCDShield9setCursorEhh>
    11be:	68 85       	ldd	r22, Y+8	; 0x08
    11c0:	79 85       	ldd	r23, Y+9	; 0x09
    11c2:	80 91 0a 01 	lds	r24, 0x010A
    11c6:	90 91 0b 01 	lds	r25, 0x010B
    11ca:	0e 94 5e 17 	call	0x2ebc	; 0x2ebc <_ZN5Print5printEPKc>
    11ce:	8a 85       	ldd	r24, Y+10	; 0x0a
    11d0:	9b 85       	ldd	r25, Y+11	; 0x0b
    11d2:	89 2b       	or	r24, r25
    11d4:	79 f0       	breq	.+30     	; 0x11f4 <_ZN15IMessageHandler4showEv+0xa8>
    11d6:	41 e0       	ldi	r20, 0x01	; 1
    11d8:	68 e0       	ldi	r22, 0x08	; 8
    11da:	80 91 0a 01 	lds	r24, 0x010A
    11de:	90 91 0b 01 	lds	r25, 0x010B
    11e2:	46 db       	rcall	.-2420   	; 0x870 <_ZN21Adafruit_RGBLCDShield9setCursorEhh>
    11e4:	68 85       	ldd	r22, Y+8	; 0x08
    11e6:	79 85       	ldd	r23, Y+9	; 0x09
    11e8:	80 91 0a 01 	lds	r24, 0x010A
    11ec:	90 91 0b 01 	lds	r25, 0x010B
    11f0:	0e 94 5e 17 	call	0x2ebc	; 0x2ebc <_ZN5Print5printEPKc>
    11f4:	1c 86       	std	Y+12, r1	; 0x0c
    11f6:	61 e0       	ldi	r22, 0x01	; 1
    11f8:	ce 01       	movw	r24, r28
    11fa:	df 91       	pop	r29
    11fc:	cf 91       	pop	r28
    11fe:	92 cf       	rjmp	.-220    	; 0x1124 <_ZN15IMessageHandler9showCaretEb>

00001200 <_ZN15IMessageHandler9moveCaretEhh>:
    1200:	ef 92       	push	r14
    1202:	ff 92       	push	r15
    1204:	1f 93       	push	r17
    1206:	cf 93       	push	r28
    1208:	df 93       	push	r29
    120a:	1f 92       	push	r1
    120c:	cd b7       	in	r28, 0x3d	; 61
    120e:	de b7       	in	r29, 0x3e	; 62
    1210:	7c 01       	movw	r14, r24
    1212:	16 2f       	mov	r17, r22
    1214:	60 e0       	ldi	r22, 0x00	; 0
    1216:	49 83       	std	Y+1, r20	; 0x01
    1218:	85 df       	rcall	.-246    	; 0x1124 <_ZN15IMessageHandler9showCaretEb>
    121a:	f7 01       	movw	r30, r14
    121c:	14 87       	std	Z+12, r17	; 0x0c
    121e:	49 81       	ldd	r20, Y+1	; 0x01
    1220:	45 87       	std	Z+13, r20	; 0x0d
    1222:	61 e0       	ldi	r22, 0x01	; 1
    1224:	c7 01       	movw	r24, r14
    1226:	0f 90       	pop	r0
    1228:	df 91       	pop	r29
    122a:	cf 91       	pop	r28
    122c:	1f 91       	pop	r17
    122e:	ff 90       	pop	r15
    1230:	ef 90       	pop	r14
    1232:	78 cf       	rjmp	.-272    	; 0x1124 <_ZN15IMessageHandler9showCaretEb>

00001234 <_ZN11MessagePumpC1EP15IMessageHandler>:
    1234:	fc 01       	movw	r30, r24
    1236:	71 83       	std	Z+1, r23	; 0x01
    1238:	60 83       	st	Z, r22
    123a:	08 95       	ret

0000123c <_ZN11MessagePump14setNextHandlerEP15IMessageHandler>:
    123c:	dc 01       	movw	r26, r24
    123e:	6d 93       	st	X+, r22
    1240:	7c 93       	st	X, r23
    1242:	db 01       	movw	r26, r22
    1244:	ed 91       	ld	r30, X+
    1246:	fc 91       	ld	r31, X
    1248:	02 80       	ldd	r0, Z+2	; 0x02
    124a:	f3 81       	ldd	r31, Z+3	; 0x03
    124c:	e0 2d       	mov	r30, r0
    124e:	cb 01       	movw	r24, r22
    1250:	09 94       	ijmp

00001252 <_ZN11MessagePump8dispatchER3Msg>:
    1252:	0f 93       	push	r16
    1254:	1f 93       	push	r17
    1256:	cf 93       	push	r28
    1258:	df 93       	push	r29
    125a:	8c 01       	movw	r16, r24
    125c:	eb 01       	movw	r28, r22
    125e:	dc 01       	movw	r26, r24
    1260:	8d 91       	ld	r24, X+
    1262:	9c 91       	ld	r25, X
    1264:	00 97       	sbiw	r24, 0x00	; 0
    1266:	b9 f0       	breq	.+46     	; 0x1296 <_ZN11MessagePump8dispatchER3Msg+0x44>
    1268:	dc 01       	movw	r26, r24
    126a:	ed 91       	ld	r30, X+
    126c:	fc 91       	ld	r31, X
    126e:	01 90       	ld	r0, Z+
    1270:	f0 81       	ld	r31, Z
    1272:	e0 2d       	mov	r30, r0
    1274:	09 95       	icall
    1276:	81 11       	cpse	r24, r1
    1278:	0e c0       	rjmp	.+28     	; 0x1296 <_ZN11MessagePump8dispatchER3Msg+0x44>
    127a:	8b 81       	ldd	r24, Y+3	; 0x03
    127c:	9c 81       	ldd	r25, Y+4	; 0x04
    127e:	00 97       	sbiw	r24, 0x00	; 0
    1280:	51 f0       	breq	.+20     	; 0x1296 <_ZN11MessagePump8dispatchER3Msg+0x44>
    1282:	f8 01       	movw	r30, r16
    1284:	91 83       	std	Z+1, r25	; 0x01
    1286:	80 83       	st	Z, r24
    1288:	dc 01       	movw	r26, r24
    128a:	ed 91       	ld	r30, X+
    128c:	fc 91       	ld	r31, X
    128e:	02 80       	ldd	r0, Z+2	; 0x02
    1290:	f3 81       	ldd	r31, Z+3	; 0x03
    1292:	e0 2d       	mov	r30, r0
    1294:	09 95       	icall
    1296:	1c 82       	std	Y+4, r1	; 0x04
    1298:	1b 82       	std	Y+3, r1	; 0x03
    129a:	81 e0       	ldi	r24, 0x01	; 1
    129c:	90 e0       	ldi	r25, 0x00	; 0
    129e:	df 91       	pop	r29
    12a0:	cf 91       	pop	r28
    12a2:	1f 91       	pop	r17
    12a4:	0f 91       	pop	r16
    12a6:	08 95       	ret

000012a8 <_ZN15USBDeviceConfig15ConfigureDeviceEhhb>:
    12a8:	80 e0       	ldi	r24, 0x00	; 0
    12aa:	08 95       	ret

000012ac <_ZN15USBDeviceConfig12ResetHubPortEh>:
    12ac:	08 95       	ret

000012ae <_ZN15USBDeviceConfig8VIDPIDOKEjj>:
    12ae:	80 e0       	ldi	r24, 0x00	; 0
    12b0:	08 95       	ret

000012b2 <_ZN15USBDeviceConfig10DEVCLASSOKEh>:
    12b2:	80 e0       	ldi	r24, 0x00	; 0
    12b4:	08 95       	ret

000012b6 <_ZN3PTP10GetAddressEv>:
    12b6:	fc 01       	movw	r30, r24
    12b8:	82 85       	ldd	r24, Z+10	; 0x0a
    12ba:	08 95       	ret

000012bc <_ZN10NikType00310EventCheckEP13PTPReadParser>:
    12bc:	0f 93       	push	r16
    12be:	1f 93       	push	r17
    12c0:	cf 93       	push	r28
    12c2:	df 93       	push	r29
    12c4:	00 d0       	rcall	.+0      	; 0x12c6 <_ZN10NikType00310EventCheckEP13PTPReadParser+0xa>
    12c6:	cd b7       	in	r28, 0x3d	; 61
    12c8:	de b7       	in	r29, 0x3e	; 62
    12ca:	29 81       	ldd	r18, Y+1	; 0x01
    12cc:	20 78       	andi	r18, 0x80	; 128
    12ce:	20 68       	ori	r18, 0x80	; 128
    12d0:	29 83       	std	Y+1, r18	; 0x01
    12d2:	21 e0       	ldi	r18, 0x01	; 1
    12d4:	2a 83       	std	Y+2, r18	; 0x02
    12d6:	8b 01       	movw	r16, r22
    12d8:	20 e0       	ldi	r18, 0x00	; 0
    12da:	30 e0       	ldi	r19, 0x00	; 0
    12dc:	ae 01       	movw	r20, r28
    12de:	4f 5f       	subi	r20, 0xFF	; 255
    12e0:	5f 4f       	sbci	r21, 0xFF	; 255
    12e2:	67 ec       	ldi	r22, 0xC7	; 199
    12e4:	70 e9       	ldi	r23, 0x90	; 144
    12e6:	0e 94 a3 1d 	call	0x3b46	; 0x3b46 <_ZN3PTP11TransactionEjPNS_9OperFlagsEPmPv>
    12ea:	0f 90       	pop	r0
    12ec:	0f 90       	pop	r0
    12ee:	df 91       	pop	r29
    12f0:	cf 91       	pop	r28
    12f2:	1f 91       	pop	r17
    12f4:	0f 91       	pop	r16
    12f6:	08 95       	ret

000012f8 <_ZN10NikType003C1EP3USBP16PTPStateHandlers>:
    12f8:	cf 93       	push	r28
    12fa:	df 93       	push	r29
    12fc:	ec 01       	movw	r28, r24
    12fe:	0e 94 77 1b 	call	0x36ee	; 0x36ee <_ZN3PTPC1EP3USBP16PTPStateHandlers>
    1302:	8b e5       	ldi	r24, 0x5B	; 91
    1304:	91 e0       	ldi	r25, 0x01	; 1
    1306:	99 83       	std	Y+1, r25	; 0x01
    1308:	88 83       	st	Y, r24
    130a:	83 e7       	ldi	r24, 0x73	; 115
    130c:	91 e0       	ldi	r25, 0x01	; 1
    130e:	9b 8f       	std	Y+27, r25	; 0x1b
    1310:	8a 8f       	std	Y+26, r24	; 0x1a
    1312:	48 ee       	ldi	r20, 0xE8	; 232
    1314:	53 e0       	ldi	r21, 0x03	; 3
    1316:	60 e0       	ldi	r22, 0x00	; 0
    1318:	70 e0       	ldi	r23, 0x00	; 0
    131a:	4c 8f       	std	Y+28, r20	; 0x1c
    131c:	5d 8f       	std	Y+29, r21	; 0x1d
    131e:	6e 8f       	std	Y+30, r22	; 0x1e
    1320:	7f 8f       	std	Y+31, r23	; 0x1f
    1322:	18 a2       	std	Y+32, r1	; 0x20
    1324:	19 a2       	std	Y+33, r1	; 0x21
    1326:	1a a2       	std	Y+34, r1	; 0x22
    1328:	1b a2       	std	Y+35, r1	; 0x23
    132a:	8c a1       	ldd	r24, Y+36	; 0x24
    132c:	80 7e       	andi	r24, 0xE0	; 224
    132e:	80 62       	ori	r24, 0x20	; 32
    1330:	8c a3       	std	Y+36, r24	; 0x24
    1332:	1e a2       	std	Y+38, r1	; 0x26
    1334:	1d a2       	std	Y+37, r1	; 0x25
    1336:	1f a2       	std	Y+39, r1	; 0x27
    1338:	18 a6       	std	Y+40, r1	; 0x28
    133a:	19 a6       	std	Y+41, r1	; 0x29
    133c:	1a a6       	std	Y+42, r1	; 0x2a
    133e:	1c a6       	std	Y+44, r1	; 0x2c
    1340:	1b a6       	std	Y+43, r1	; 0x2b
    1342:	84 e6       	ldi	r24, 0x64	; 100
    1344:	90 e0       	ldi	r25, 0x00	; 0
    1346:	9e a7       	std	Y+46, r25	; 0x2e
    1348:	8d a7       	std	Y+45, r24	; 0x2d
    134a:	1f a6       	std	Y+47, r1	; 0x2f
    134c:	18 aa       	std	Y+48, r1	; 0x30
    134e:	19 aa       	std	Y+49, r1	; 0x31
    1350:	1a aa       	std	Y+50, r1	; 0x32
    1352:	df 91       	pop	r29
    1354:	cf 91       	pop	r28
    1356:	08 95       	ret

00001358 <_ZN10NikType00312waitForReadyEj>:
    1358:	8f 92       	push	r8
    135a:	9f 92       	push	r9
    135c:	af 92       	push	r10
    135e:	bf 92       	push	r11
    1360:	cf 92       	push	r12
    1362:	df 92       	push	r13
    1364:	ef 92       	push	r14
    1366:	ff 92       	push	r15
    1368:	0f 93       	push	r16
    136a:	1f 93       	push	r17
    136c:	cf 93       	push	r28
    136e:	df 93       	push	r29
    1370:	ec 01       	movw	r28, r24
    1372:	4b 01       	movw	r8, r22
    1374:	20 e0       	ldi	r18, 0x00	; 0
    1376:	30 e0       	ldi	r19, 0x00	; 0
    1378:	40 e0       	ldi	r20, 0x00	; 0
    137a:	68 ec       	ldi	r22, 0xC8	; 200
    137c:	70 e9       	ldi	r23, 0x90	; 144
    137e:	0e 94 df 20 	call	0x41be	; 0x41be <_ZN3PTP9OperationEjhPm>
    1382:	6d a5       	ldd	r22, Y+45	; 0x2d
    1384:	7e a5       	ldd	r23, Y+46	; 0x2e
    1386:	80 e0       	ldi	r24, 0x00	; 0
    1388:	90 e0       	ldi	r25, 0x00	; 0
    138a:	0e 94 e3 18 	call	0x31c6	; 0x31c6 <delay>
    138e:	20 e0       	ldi	r18, 0x00	; 0
    1390:	30 e0       	ldi	r19, 0x00	; 0
    1392:	40 e0       	ldi	r20, 0x00	; 0
    1394:	68 ec       	ldi	r22, 0xC8	; 200
    1396:	70 e9       	ldi	r23, 0x90	; 144
    1398:	ce 01       	movw	r24, r28
    139a:	0e 94 df 20 	call	0x41be	; 0x41be <_ZN3PTP9OperationEjhPm>
    139e:	8c 01       	movw	r16, r24
    13a0:	6d a5       	ldd	r22, Y+45	; 0x2d
    13a2:	7e a5       	ldd	r23, Y+46	; 0x2e
    13a4:	80 e0       	ldi	r24, 0x00	; 0
    13a6:	90 e0       	ldi	r25, 0x00	; 0
    13a8:	0e 94 e3 18 	call	0x31c6	; 0x31c6 <delay>
    13ac:	c1 2c       	mov	r12, r1
    13ae:	d1 2c       	mov	r13, r1
    13b0:	76 01       	movw	r14, r12
    13b2:	a1 2c       	mov	r10, r1
    13b4:	b1 2c       	mov	r11, r1
    13b6:	09 31       	cpi	r16, 0x19	; 25
    13b8:	80 e2       	ldi	r24, 0x20	; 32
    13ba:	18 07       	cpc	r17, r24
    13bc:	d1 f4       	brne	.+52     	; 0x13f2 <_ZN10NikType00312waitForReadyEj+0x9a>
    13be:	8f ef       	ldi	r24, 0xFF	; 255
    13c0:	c8 1a       	sub	r12, r24
    13c2:	d8 0a       	sbc	r13, r24
    13c4:	e8 0a       	sbc	r14, r24
    13c6:	f8 0a       	sbc	r15, r24
    13c8:	c8 14       	cp	r12, r8
    13ca:	d9 04       	cpc	r13, r9
    13cc:	ea 04       	cpc	r14, r10
    13ce:	fb 04       	cpc	r15, r11
    13d0:	80 f4       	brcc	.+32     	; 0x13f2 <_ZN10NikType00312waitForReadyEj+0x9a>
    13d2:	20 e0       	ldi	r18, 0x00	; 0
    13d4:	30 e0       	ldi	r19, 0x00	; 0
    13d6:	40 e0       	ldi	r20, 0x00	; 0
    13d8:	68 ec       	ldi	r22, 0xC8	; 200
    13da:	70 e9       	ldi	r23, 0x90	; 144
    13dc:	ce 01       	movw	r24, r28
    13de:	0e 94 df 20 	call	0x41be	; 0x41be <_ZN3PTP9OperationEjhPm>
    13e2:	8c 01       	movw	r16, r24
    13e4:	6d a5       	ldd	r22, Y+45	; 0x2d
    13e6:	7e a5       	ldd	r23, Y+46	; 0x2e
    13e8:	80 e0       	ldi	r24, 0x00	; 0
    13ea:	90 e0       	ldi	r25, 0x00	; 0
    13ec:	0e 94 e3 18 	call	0x31c6	; 0x31c6 <delay>
    13f0:	e2 cf       	rjmp	.-60     	; 0x13b6 <_ZN10NikType00312waitForReadyEj+0x5e>
    13f2:	c8 01       	movw	r24, r16
    13f4:	df 91       	pop	r29
    13f6:	cf 91       	pop	r28
    13f8:	1f 91       	pop	r17
    13fa:	0f 91       	pop	r16
    13fc:	ff 90       	pop	r15
    13fe:	ef 90       	pop	r14
    1400:	df 90       	pop	r13
    1402:	cf 90       	pop	r12
    1404:	bf 90       	pop	r11
    1406:	af 90       	pop	r10
    1408:	9f 90       	pop	r9
    140a:	8f 90       	pop	r8
    140c:	08 95       	ret

0000140e <_ZN10NikType00314enableLiveViewEb>:
    140e:	1f 93       	push	r17
    1410:	cf 93       	push	r28
    1412:	df 93       	push	r29
    1414:	ec 01       	movw	r28, r24
    1416:	16 2f       	mov	r17, r22
    1418:	20 e0       	ldi	r18, 0x00	; 0
    141a:	30 e0       	ldi	r19, 0x00	; 0
    141c:	40 e0       	ldi	r20, 0x00	; 0
    141e:	61 11       	cpse	r22, r1
    1420:	03 c0       	rjmp	.+6      	; 0x1428 <_ZN10NikType00314enableLiveViewEb+0x1a>
    1422:	62 e0       	ldi	r22, 0x02	; 2
    1424:	72 e9       	ldi	r23, 0x92	; 146
    1426:	02 c0       	rjmp	.+4      	; 0x142c <_ZN10NikType00314enableLiveViewEb+0x1e>
    1428:	61 e0       	ldi	r22, 0x01	; 1
    142a:	72 e9       	ldi	r23, 0x92	; 146
    142c:	ce 01       	movw	r24, r28
    142e:	0e 94 df 20 	call	0x41be	; 0x41be <_ZN3PTP9OperationEjhPm>
    1432:	81 30       	cpi	r24, 0x01	; 1
    1434:	20 e2       	ldi	r18, 0x20	; 32
    1436:	92 07       	cpc	r25, r18
    1438:	21 f4       	brne	.+8      	; 0x1442 <_ZN10NikType00314enableLiveViewEb+0x34>
    143a:	2c a1       	ldd	r18, Y+36	; 0x24
    143c:	10 fb       	bst	r17, 0
    143e:	21 f9       	bld	r18, 1
    1440:	2c a3       	std	Y+36, r18	; 0x24
    1442:	df 91       	pop	r29
    1444:	cf 91       	pop	r28
    1446:	1f 91       	pop	r17
    1448:	08 95       	ret

0000144a <_ZN10NikType00313captureToCardEv>:
    144a:	ef 92       	push	r14
    144c:	ff 92       	push	r15
    144e:	0f 93       	push	r16
    1450:	1f 93       	push	r17
    1452:	cf 93       	push	r28
    1454:	df 93       	push	r29
    1456:	cd b7       	in	r28, 0x3d	; 61
    1458:	de b7       	in	r29, 0x3e	; 62
    145a:	28 97       	sbiw	r28, 0x08	; 8
    145c:	0f b6       	in	r0, 0x3f	; 63
    145e:	f8 94       	cli
    1460:	de bf       	out	0x3e, r29	; 62
    1462:	0f be       	out	0x3f, r0	; 63
    1464:	cd bf       	out	0x3d, r28	; 61
    1466:	8c 01       	movw	r16, r24
    1468:	fc 01       	movw	r30, r24
    146a:	84 a1       	ldd	r24, Z+36	; 0x24
    146c:	82 fd       	sbrc	r24, 2
    146e:	3b c0       	rjmp	.+118    	; 0x14e6 <_ZN10NikType00313captureToCardEv+0x9c>
    1470:	60 e0       	ldi	r22, 0x00	; 0
    1472:	80 91 10 01 	lds	r24, 0x0110
    1476:	90 91 11 01 	lds	r25, 0x0111
    147a:	1b d4       	rcall	.+2102   	; 0x1cb2 <_ZN20RunFocusStackHandler11reportDelayEh>
    147c:	63 ea       	ldi	r22, 0xA3	; 163
    147e:	70 e0       	ldi	r23, 0x00	; 0
    1480:	80 91 10 01 	lds	r24, 0x0110
    1484:	90 91 11 01 	lds	r25, 0x0111
    1488:	b8 d3       	rcall	.+1904   	; 0x1bfa <_ZN20RunFocusStackHandler12reportStatusEPK19__FlashStringHelper>
    148a:	8f ef       	ldi	r24, 0xFF	; 255
    148c:	9f ef       	ldi	r25, 0xFF	; 255
    148e:	dc 01       	movw	r26, r24
    1490:	89 83       	std	Y+1, r24	; 0x01
    1492:	9a 83       	std	Y+2, r25	; 0x02
    1494:	ab 83       	std	Y+3, r26	; 0x03
    1496:	bc 83       	std	Y+4, r27	; 0x04
    1498:	1d 82       	std	Y+5, r1	; 0x05
    149a:	1e 82       	std	Y+6, r1	; 0x06
    149c:	1f 82       	std	Y+7, r1	; 0x07
    149e:	18 86       	std	Y+8, r1	; 0x08
    14a0:	9e 01       	movw	r18, r28
    14a2:	2f 5f       	subi	r18, 0xFF	; 255
    14a4:	3f 4f       	sbci	r19, 0xFF	; 255
    14a6:	42 e0       	ldi	r20, 0x02	; 2
    14a8:	67 e0       	ldi	r22, 0x07	; 7
    14aa:	72 e9       	ldi	r23, 0x92	; 146
    14ac:	c8 01       	movw	r24, r16
    14ae:	0e 94 df 20 	call	0x41be	; 0x41be <_ZN3PTP9OperationEjhPm>
    14b2:	7c 01       	movw	r14, r24
    14b4:	81 30       	cpi	r24, 0x01	; 1
    14b6:	f0 e2       	ldi	r31, 0x20	; 32
    14b8:	9f 07       	cpc	r25, r31
    14ba:	c9 f4       	brne	.+50     	; 0x14ee <_ZN10NikType00313captureToCardEv+0xa4>
    14bc:	21 e0       	ldi	r18, 0x01	; 1
    14be:	f8 01       	movw	r30, r16
    14c0:	85 a1       	ldd	r24, Z+37	; 0x25
    14c2:	96 a1       	ldd	r25, Z+38	; 0x26
    14c4:	02 97       	sbiw	r24, 0x02	; 2
    14c6:	08 f0       	brcs	.+2      	; 0x14ca <_ZN10NikType00313captureToCardEv+0x80>
    14c8:	20 e0       	ldi	r18, 0x00	; 0
    14ca:	f8 01       	movw	r30, r16
    14cc:	84 a1       	ldd	r24, Z+36	; 0x24
    14ce:	20 fb       	bst	r18, 0
    14d0:	85 f9       	bld	r24, 5
    14d2:	84 60       	ori	r24, 0x04	; 4
    14d4:	84 a3       	std	Z+36, r24	; 0x24
    14d6:	0e 94 a7 18 	call	0x314e	; 0x314e <millis>
    14da:	f8 01       	movw	r30, r16
    14dc:	67 a7       	std	Z+47, r22	; 0x2f
    14de:	70 ab       	std	Z+48, r23	; 0x30
    14e0:	81 ab       	std	Z+49, r24	; 0x31
    14e2:	92 ab       	std	Z+50, r25	; 0x32
    14e4:	04 c0       	rjmp	.+8      	; 0x14ee <_ZN10NikType00313captureToCardEv+0xa4>
    14e6:	82 e0       	ldi	r24, 0x02	; 2
    14e8:	e8 2e       	mov	r14, r24
    14ea:	80 e2       	ldi	r24, 0x20	; 32
    14ec:	f8 2e       	mov	r15, r24
    14ee:	c7 01       	movw	r24, r14
    14f0:	28 96       	adiw	r28, 0x08	; 8
    14f2:	0f b6       	in	r0, 0x3f	; 63
    14f4:	f8 94       	cli
    14f6:	de bf       	out	0x3e, r29	; 62
    14f8:	0f be       	out	0x3f, r0	; 63
    14fa:	cd bf       	out	0x3d, r28	; 61
    14fc:	df 91       	pop	r29
    14fe:	cf 91       	pop	r28
    1500:	1f 91       	pop	r17
    1502:	0f 91       	pop	r16
    1504:	ff 90       	pop	r15
    1506:	ef 90       	pop	r14
    1508:	08 95       	ret

0000150a <_ZN10NikType0039moveFocusEmm>:
    150a:	0f 93       	push	r16
    150c:	1f 93       	push	r17
    150e:	cf 93       	push	r28
    1510:	df 93       	push	r29
    1512:	cd b7       	in	r28, 0x3d	; 61
    1514:	de b7       	in	r29, 0x3e	; 62
    1516:	2a 97       	sbiw	r28, 0x0a	; 10
    1518:	0f b6       	in	r0, 0x3f	; 63
    151a:	f8 94       	cli
    151c:	de bf       	out	0x3e, r29	; 62
    151e:	0f be       	out	0x3f, r0	; 63
    1520:	cd bf       	out	0x3d, r28	; 61
    1522:	e9 85       	ldd	r30, Y+9	; 0x09
    1524:	e0 78       	andi	r30, 0x80	; 128
    1526:	e2 60       	ori	r30, 0x02	; 2
    1528:	ef 77       	andi	r30, 0x7F	; 127
    152a:	e9 87       	std	Y+9, r30	; 0x09
    152c:	1a 86       	std	Y+10, r1	; 0x0a
    152e:	49 83       	std	Y+1, r20	; 0x01
    1530:	5a 83       	std	Y+2, r21	; 0x02
    1532:	6b 83       	std	Y+3, r22	; 0x03
    1534:	7c 83       	std	Y+4, r23	; 0x04
    1536:	0d 83       	std	Y+5, r16	; 0x05
    1538:	1e 83       	std	Y+6, r17	; 0x06
    153a:	2f 83       	std	Y+7, r18	; 0x07
    153c:	38 87       	std	Y+8, r19	; 0x08
    153e:	00 e0       	ldi	r16, 0x00	; 0
    1540:	10 e0       	ldi	r17, 0x00	; 0
    1542:	9e 01       	movw	r18, r28
    1544:	2f 5f       	subi	r18, 0xFF	; 255
    1546:	3f 4f       	sbci	r19, 0xFF	; 255
    1548:	ae 01       	movw	r20, r28
    154a:	47 5f       	subi	r20, 0xF7	; 247
    154c:	5f 4f       	sbci	r21, 0xFF	; 255
    154e:	64 e0       	ldi	r22, 0x04	; 4
    1550:	72 e9       	ldi	r23, 0x92	; 146
    1552:	0e 94 a3 1d 	call	0x3b46	; 0x3b46 <_ZN3PTP11TransactionEjPNS_9OperFlagsEPmPv>
    1556:	2a 96       	adiw	r28, 0x0a	; 10
    1558:	0f b6       	in	r0, 0x3f	; 63
    155a:	f8 94       	cli
    155c:	de bf       	out	0x3e, r29	; 62
    155e:	0f be       	out	0x3f, r0	; 63
    1560:	cd bf       	out	0x3d, r28	; 61
    1562:	df 91       	pop	r29
    1564:	cf 91       	pop	r28
    1566:	1f 91       	pop	r17
    1568:	0f 91       	pop	r16
    156a:	08 95       	ret

0000156c <_ZN10NikType00315startFocusStackEv>:
    156c:	0f 93       	push	r16
    156e:	1f 93       	push	r17
    1570:	cf 93       	push	r28
    1572:	df 93       	push	r29
    1574:	ec 01       	movw	r28, r24
    1576:	e0 91 12 01 	lds	r30, 0x0112
    157a:	f0 91 13 01 	lds	r31, 0x0113
    157e:	62 89       	ldd	r22, Z+18	; 0x12
    1580:	73 89       	ldd	r23, Z+19	; 0x13
    1582:	7e a3       	std	Y+38, r23	; 0x26
    1584:	6d a3       	std	Y+37, r22	; 0x25
    1586:	80 91 10 01 	lds	r24, 0x0110
    158a:	90 91 11 01 	lds	r25, 0x0111
    158e:	59 d3       	rcall	.+1714   	; 0x1c42 <_ZN20RunFocusStackHandler11reportFrameEj>
    1590:	1f a2       	std	Y+39, r1	; 0x27
    1592:	18 a6       	std	Y+40, r1	; 0x28
    1594:	19 a6       	std	Y+41, r1	; 0x29
    1596:	1a a6       	std	Y+42, r1	; 0x2a
    1598:	8c a1       	ldd	r24, Y+36	; 0x24
    159a:	88 60       	ori	r24, 0x08	; 8
    159c:	8f 7e       	andi	r24, 0xEF	; 239
    159e:	8c a3       	std	Y+36, r24	; 0x24
    15a0:	ce 01       	movw	r24, r28
    15a2:	53 df       	rcall	.-346    	; 0x144a <_ZN10NikType00313captureToCardEv>
    15a4:	8c 01       	movw	r16, r24
    15a6:	01 30       	cpi	r16, 0x01	; 1
    15a8:	80 e2       	ldi	r24, 0x20	; 32
    15aa:	18 07       	cpc	r17, r24
    15ac:	99 f4       	brne	.+38     	; 0x15d4 <_ZN10NikType00315startFocusStackEv+0x68>
    15ae:	6d a1       	ldd	r22, Y+37	; 0x25
    15b0:	7e a1       	ldd	r23, Y+38	; 0x26
    15b2:	80 91 10 01 	lds	r24, 0x0110
    15b6:	90 91 11 01 	lds	r25, 0x0111
    15ba:	43 d3       	rcall	.+1670   	; 0x1c42 <_ZN20RunFocusStackHandler11reportFrameEj>
    15bc:	80 91 10 01 	lds	r24, 0x0110
    15c0:	90 91 11 01 	lds	r25, 0x0111
    15c4:	6a d3       	rcall	.+1748   	; 0x1c9a <_ZN20RunFocusStackHandler19resetLastUpdateTimeEv>
    15c6:	2d a1       	ldd	r18, Y+37	; 0x25
    15c8:	3e a1       	ldd	r19, Y+38	; 0x26
    15ca:	21 50       	subi	r18, 0x01	; 1
    15cc:	31 09       	sbc	r19, r1
    15ce:	3e a3       	std	Y+38, r19	; 0x26
    15d0:	2d a3       	std	Y+37, r18	; 0x25
    15d2:	02 c0       	rjmp	.+4      	; 0x15d8 <_ZN10NikType00315startFocusStackEv+0x6c>
    15d4:	1e a2       	std	Y+38, r1	; 0x26
    15d6:	1d a2       	std	Y+37, r1	; 0x25
    15d8:	c8 01       	movw	r24, r16
    15da:	df 91       	pop	r29
    15dc:	cf 91       	pop	r28
    15de:	1f 91       	pop	r17
    15e0:	0f 91       	pop	r16
    15e2:	08 95       	ret

000015e4 <_ZN10NikType00316prepareNextFrameEv>:
    15e4:	0f 93       	push	r16
    15e6:	1f 93       	push	r17
    15e8:	cf 93       	push	r28
    15ea:	df 93       	push	r29
    15ec:	ec 01       	movw	r28, r24
    15ee:	8d a1       	ldd	r24, Y+37	; 0x25
    15f0:	9e a1       	ldd	r25, Y+38	; 0x26
    15f2:	89 2b       	or	r24, r25
    15f4:	09 f4       	brne	.+2      	; 0x15f8 <_ZN10NikType00316prepareNextFrameEv+0x14>
    15f6:	7c c0       	rjmp	.+248    	; 0x16f0 <_ZN10NikType00316prepareNextFrameEv+0x10c>
    15f8:	6d e9       	ldi	r22, 0x9D	; 157
    15fa:	70 e0       	ldi	r23, 0x00	; 0
    15fc:	80 91 10 01 	lds	r24, 0x0110
    1600:	90 91 11 01 	lds	r25, 0x0111
    1604:	fa d2       	rcall	.+1524   	; 0x1bfa <_ZN20RunFocusStackHandler12reportStatusEPK19__FlashStringHelper>
    1606:	61 e0       	ldi	r22, 0x01	; 1
    1608:	ce 01       	movw	r24, r28
    160a:	01 df       	rcall	.-510    	; 0x140e <_ZN10NikType00314enableLiveViewEb>
    160c:	8c 01       	movw	r16, r24
    160e:	01 30       	cpi	r16, 0x01	; 1
    1610:	80 e2       	ldi	r24, 0x20	; 32
    1612:	18 07       	cpc	r17, r24
    1614:	09 f0       	breq	.+2      	; 0x1618 <_ZN10NikType00316prepareNextFrameEv+0x34>
    1616:	56 c0       	rjmp	.+172    	; 0x16c4 <_ZN10NikType00316prepareNextFrameEv+0xe0>
    1618:	68 ee       	ldi	r22, 0xE8	; 232
    161a:	73 e0       	ldi	r23, 0x03	; 3
    161c:	ce 01       	movw	r24, r28
    161e:	9c de       	rcall	.-712    	; 0x1358 <_ZN10NikType00312waitForReadyEj>
    1620:	8c 01       	movw	r16, r24
    1622:	01 30       	cpi	r16, 0x01	; 1
    1624:	80 e2       	ldi	r24, 0x20	; 32
    1626:	18 07       	cpc	r17, r24
    1628:	09 f0       	breq	.+2      	; 0x162c <_ZN10NikType00316prepareNextFrameEv+0x48>
    162a:	4c c0       	rjmp	.+152    	; 0x16c4 <_ZN10NikType00316prepareNextFrameEv+0xe0>
    162c:	67 e9       	ldi	r22, 0x97	; 151
    162e:	70 e0       	ldi	r23, 0x00	; 0
    1630:	80 91 10 01 	lds	r24, 0x0110
    1634:	90 91 11 01 	lds	r25, 0x0111
    1638:	e0 d2       	rcall	.+1472   	; 0x1bfa <_ZN20RunFocusStackHandler12reportStatusEPK19__FlashStringHelper>
    163a:	e0 91 12 01 	lds	r30, 0x0112
    163e:	f0 91 13 01 	lds	r31, 0x0113
    1642:	06 85       	ldd	r16, Z+14	; 0x0e
    1644:	17 85       	ldd	r17, Z+15	; 0x0f
    1646:	20 89       	ldd	r18, Z+16	; 0x10
    1648:	31 89       	ldd	r19, Z+17	; 0x11
    164a:	42 e0       	ldi	r20, 0x02	; 2
    164c:	50 e0       	ldi	r21, 0x00	; 0
    164e:	60 e0       	ldi	r22, 0x00	; 0
    1650:	70 e0       	ldi	r23, 0x00	; 0
    1652:	ce 01       	movw	r24, r28
    1654:	5a df       	rcall	.-332    	; 0x150a <_ZN10NikType0039moveFocusEmm>
    1656:	8c 01       	movw	r16, r24
    1658:	01 30       	cpi	r16, 0x01	; 1
    165a:	80 e2       	ldi	r24, 0x20	; 32
    165c:	18 07       	cpc	r17, r24
    165e:	91 f5       	brne	.+100    	; 0x16c4 <_ZN10NikType00316prepareNextFrameEv+0xe0>
    1660:	e0 91 12 01 	lds	r30, 0x0112
    1664:	f0 91 13 01 	lds	r31, 0x0113
    1668:	4f a1       	ldd	r20, Y+39	; 0x27
    166a:	58 a5       	ldd	r21, Y+40	; 0x28
    166c:	69 a5       	ldd	r22, Y+41	; 0x29
    166e:	7a a5       	ldd	r23, Y+42	; 0x2a
    1670:	86 85       	ldd	r24, Z+14	; 0x0e
    1672:	97 85       	ldd	r25, Z+15	; 0x0f
    1674:	a0 89       	ldd	r26, Z+16	; 0x10
    1676:	b1 89       	ldd	r27, Z+17	; 0x11
    1678:	48 0f       	add	r20, r24
    167a:	59 1f       	adc	r21, r25
    167c:	6a 1f       	adc	r22, r26
    167e:	7b 1f       	adc	r23, r27
    1680:	4f a3       	std	Y+39, r20	; 0x27
    1682:	58 a7       	std	Y+40, r21	; 0x28
    1684:	69 a7       	std	Y+41, r22	; 0x29
    1686:	7a a7       	std	Y+42, r23	; 0x2a
    1688:	68 ee       	ldi	r22, 0xE8	; 232
    168a:	73 e0       	ldi	r23, 0x03	; 3
    168c:	ce 01       	movw	r24, r28
    168e:	64 de       	rcall	.-824    	; 0x1358 <_ZN10NikType00312waitForReadyEj>
    1690:	8c 01       	movw	r16, r24
    1692:	01 30       	cpi	r16, 0x01	; 1
    1694:	80 e2       	ldi	r24, 0x20	; 32
    1696:	18 07       	cpc	r17, r24
    1698:	a9 f4       	brne	.+42     	; 0x16c4 <_ZN10NikType00316prepareNextFrameEv+0xe0>
    169a:	60 e9       	ldi	r22, 0x90	; 144
    169c:	70 e0       	ldi	r23, 0x00	; 0
    169e:	80 91 10 01 	lds	r24, 0x0110
    16a2:	90 91 11 01 	lds	r25, 0x0111
    16a6:	a9 d2       	rcall	.+1362   	; 0x1bfa <_ZN20RunFocusStackHandler12reportStatusEPK19__FlashStringHelper>
    16a8:	60 e0       	ldi	r22, 0x00	; 0
    16aa:	ce 01       	movw	r24, r28
    16ac:	b0 de       	rcall	.-672    	; 0x140e <_ZN10NikType00314enableLiveViewEb>
    16ae:	8c 01       	movw	r16, r24
    16b0:	8c a1       	ldd	r24, Y+36	; 0x24
    16b2:	80 62       	ori	r24, 0x20	; 32
    16b4:	8c a3       	std	Y+36, r24	; 0x24
    16b6:	6d a1       	ldd	r22, Y+37	; 0x25
    16b8:	7e a1       	ldd	r23, Y+38	; 0x26
    16ba:	80 91 10 01 	lds	r24, 0x0110
    16be:	90 91 11 01 	lds	r25, 0x0111
    16c2:	bf d2       	rcall	.+1406   	; 0x1c42 <_ZN20RunFocusStackHandler11reportFrameEj>
    16c4:	0e 30       	cpi	r16, 0x0E	; 14
    16c6:	80 ea       	ldi	r24, 0xA0	; 160
    16c8:	18 07       	cpc	r17, r24
    16ca:	41 f4       	brne	.+16     	; 0x16dc <_ZN10NikType00316prepareNextFrameEv+0xf8>
    16cc:	6c e8       	ldi	r22, 0x8C	; 140
    16ce:	70 e0       	ldi	r23, 0x00	; 0
    16d0:	80 91 10 01 	lds	r24, 0x0110
    16d4:	90 91 11 01 	lds	r25, 0x0111
    16d8:	90 d2       	rcall	.+1312   	; 0x1bfa <_ZN20RunFocusStackHandler12reportStatusEPK19__FlashStringHelper>
    16da:	04 c0       	rjmp	.+8      	; 0x16e4 <_ZN10NikType00316prepareNextFrameEv+0x100>
    16dc:	01 30       	cpi	r16, 0x01	; 1
    16de:	80 e2       	ldi	r24, 0x20	; 32
    16e0:	18 07       	cpc	r17, r24
    16e2:	41 f0       	breq	.+16     	; 0x16f4 <_ZN10NikType00316prepareNextFrameEv+0x110>
    16e4:	1e a2       	std	Y+38, r1	; 0x26
    16e6:	1d a2       	std	Y+37, r1	; 0x25
    16e8:	8c a1       	ldd	r24, Y+36	; 0x24
    16ea:	87 7f       	andi	r24, 0xF7	; 247
    16ec:	8c a3       	std	Y+36, r24	; 0x24
    16ee:	02 c0       	rjmp	.+4      	; 0x16f4 <_ZN10NikType00316prepareNextFrameEv+0x110>
    16f0:	02 e0       	ldi	r16, 0x02	; 2
    16f2:	10 e2       	ldi	r17, 0x20	; 32
    16f4:	c8 01       	movw	r24, r16
    16f6:	df 91       	pop	r29
    16f8:	cf 91       	pop	r28
    16fa:	1f 91       	pop	r17
    16fc:	0f 91       	pop	r16
    16fe:	08 95       	ret

00001700 <_ZN10NikType00316cancelFocusStackEv>:
    1700:	fc 01       	movw	r30, r24
    1702:	16 a2       	std	Z+38, r1	; 0x26
    1704:	15 a2       	std	Z+37, r1	; 0x25
    1706:	84 a1       	ldd	r24, Z+36	; 0x24
    1708:	87 7f       	andi	r24, 0xF7	; 247
    170a:	84 a3       	std	Z+36, r24	; 0x24
    170c:	08 95       	ret

0000170e <_ZN10NikType00320restoreOriginalFocusEv>:
    170e:	0f 93       	push	r16
    1710:	1f 93       	push	r17
    1712:	cf 93       	push	r28
    1714:	df 93       	push	r29
    1716:	ec 01       	movw	r28, r24
    1718:	e0 91 12 01 	lds	r30, 0x0112
    171c:	f0 91 13 01 	lds	r31, 0x0113
    1720:	82 8d       	ldd	r24, Z+26	; 0x1a
    1722:	88 23       	and	r24, r24
    1724:	99 f1       	breq	.+102    	; 0x178c <_ZN10NikType00320restoreOriginalFocusEv+0x7e>
    1726:	6b e7       	ldi	r22, 0x7B	; 123
    1728:	70 e0       	ldi	r23, 0x00	; 0
    172a:	80 91 10 01 	lds	r24, 0x0110
    172e:	90 91 11 01 	lds	r25, 0x0111
    1732:	63 d2       	rcall	.+1222   	; 0x1bfa <_ZN20RunFocusStackHandler12reportStatusEPK19__FlashStringHelper>
    1734:	61 e0       	ldi	r22, 0x01	; 1
    1736:	ce 01       	movw	r24, r28
    1738:	6a de       	rcall	.-812    	; 0x140e <_ZN10NikType00314enableLiveViewEb>
    173a:	81 30       	cpi	r24, 0x01	; 1
    173c:	20 e2       	ldi	r18, 0x20	; 32
    173e:	92 07       	cpc	r25, r18
    1740:	39 f5       	brne	.+78     	; 0x1790 <_ZN10NikType00320restoreOriginalFocusEv+0x82>
    1742:	68 ee       	ldi	r22, 0xE8	; 232
    1744:	73 e0       	ldi	r23, 0x03	; 3
    1746:	ce 01       	movw	r24, r28
    1748:	07 de       	rcall	.-1010   	; 0x1358 <_ZN10NikType00312waitForReadyEj>
    174a:	81 30       	cpi	r24, 0x01	; 1
    174c:	20 e2       	ldi	r18, 0x20	; 32
    174e:	92 07       	cpc	r25, r18
    1750:	f9 f4       	brne	.+62     	; 0x1790 <_ZN10NikType00320restoreOriginalFocusEv+0x82>
    1752:	0f a1       	ldd	r16, Y+39	; 0x27
    1754:	18 a5       	ldd	r17, Y+40	; 0x28
    1756:	29 a5       	ldd	r18, Y+41	; 0x29
    1758:	3a a5       	ldd	r19, Y+42	; 0x2a
    175a:	41 e0       	ldi	r20, 0x01	; 1
    175c:	50 e0       	ldi	r21, 0x00	; 0
    175e:	60 e0       	ldi	r22, 0x00	; 0
    1760:	70 e0       	ldi	r23, 0x00	; 0
    1762:	ce 01       	movw	r24, r28
    1764:	d2 de       	rcall	.-604    	; 0x150a <_ZN10NikType0039moveFocusEmm>
    1766:	81 30       	cpi	r24, 0x01	; 1
    1768:	20 e2       	ldi	r18, 0x20	; 32
    176a:	92 07       	cpc	r25, r18
    176c:	89 f4       	brne	.+34     	; 0x1790 <_ZN10NikType00320restoreOriginalFocusEv+0x82>
    176e:	68 ee       	ldi	r22, 0xE8	; 232
    1770:	73 e0       	ldi	r23, 0x03	; 3
    1772:	ce 01       	movw	r24, r28
    1774:	f1 dd       	rcall	.-1054   	; 0x1358 <_ZN10NikType00312waitForReadyEj>
    1776:	81 30       	cpi	r24, 0x01	; 1
    1778:	20 e2       	ldi	r18, 0x20	; 32
    177a:	92 07       	cpc	r25, r18
    177c:	49 f4       	brne	.+18     	; 0x1790 <_ZN10NikType00320restoreOriginalFocusEv+0x82>
    177e:	60 e0       	ldi	r22, 0x00	; 0
    1780:	ce 01       	movw	r24, r28
    1782:	df 91       	pop	r29
    1784:	cf 91       	pop	r28
    1786:	1f 91       	pop	r17
    1788:	0f 91       	pop	r16
    178a:	41 ce       	rjmp	.-894    	; 0x140e <_ZN10NikType00314enableLiveViewEb>
    178c:	81 e0       	ldi	r24, 0x01	; 1
    178e:	90 e2       	ldi	r25, 0x20	; 32
    1790:	df 91       	pop	r29
    1792:	cf 91       	pop	r28
    1794:	1f 91       	pop	r17
    1796:	0f 91       	pop	r16
    1798:	08 95       	ret

0000179a <_ZN10NikType00319focusStackNextFrameEv>:
    179a:	0f 93       	push	r16
    179c:	1f 93       	push	r17
    179e:	cf 93       	push	r28
    17a0:	df 93       	push	r29
    17a2:	ec 01       	movw	r28, r24
    17a4:	8d a1       	ldd	r24, Y+37	; 0x25
    17a6:	9e a1       	ldd	r25, Y+38	; 0x26
    17a8:	89 2b       	or	r24, r25
    17aa:	11 f1       	breq	.+68     	; 0x17f0 <_ZN10NikType00319focusStackNextFrameEv+0x56>
    17ac:	ce 01       	movw	r24, r28
    17ae:	4d de       	rcall	.-870    	; 0x144a <_ZN10NikType00313captureToCardEv>
    17b0:	8c 01       	movw	r16, r24
    17b2:	01 30       	cpi	r16, 0x01	; 1
    17b4:	80 e2       	ldi	r24, 0x20	; 32
    17b6:	18 07       	cpc	r17, r24
    17b8:	51 f4       	brne	.+20     	; 0x17ce <_ZN10NikType00319focusStackNextFrameEv+0x34>
    17ba:	8d a1       	ldd	r24, Y+37	; 0x25
    17bc:	9e a1       	ldd	r25, Y+38	; 0x26
    17be:	01 97       	sbiw	r24, 0x01	; 1
    17c0:	9e a3       	std	Y+38, r25	; 0x26
    17c2:	8d a3       	std	Y+37, r24	; 0x25
    17c4:	89 2b       	or	r24, r25
    17c6:	21 f5       	brne	.+72     	; 0x1810 <_ZN10NikType00319focusStackNextFrameEv+0x76>
    17c8:	8c a1       	ldd	r24, Y+36	; 0x24
    17ca:	80 61       	ori	r24, 0x10	; 16
    17cc:	0f c0       	rjmp	.+30     	; 0x17ec <_ZN10NikType00319focusStackNextFrameEv+0x52>
    17ce:	0c 30       	cpi	r16, 0x0C	; 12
    17d0:	80 e2       	ldi	r24, 0x20	; 32
    17d2:	18 07       	cpc	r17, r24
    17d4:	39 f4       	brne	.+14     	; 0x17e4 <_ZN10NikType00319focusStackNextFrameEv+0x4a>
    17d6:	63 e8       	ldi	r22, 0x83	; 131
    17d8:	70 e0       	ldi	r23, 0x00	; 0
    17da:	80 91 10 01 	lds	r24, 0x0110
    17de:	90 91 11 01 	lds	r25, 0x0111
    17e2:	0b d2       	rcall	.+1046   	; 0x1bfa <_ZN20RunFocusStackHandler12reportStatusEPK19__FlashStringHelper>
    17e4:	1e a2       	std	Y+38, r1	; 0x26
    17e6:	1d a2       	std	Y+37, r1	; 0x25
    17e8:	8c a1       	ldd	r24, Y+36	; 0x24
    17ea:	87 7f       	andi	r24, 0xF7	; 247
    17ec:	8c a3       	std	Y+36, r24	; 0x24
    17ee:	10 c0       	rjmp	.+32     	; 0x1810 <_ZN10NikType00319focusStackNextFrameEv+0x76>
    17f0:	8c a1       	ldd	r24, Y+36	; 0x24
    17f2:	87 7f       	andi	r24, 0xF7	; 247
    17f4:	8c a3       	std	Y+36, r24	; 0x24
    17f6:	84 ff       	sbrs	r24, 4
    17f8:	02 c0       	rjmp	.+4      	; 0x17fe <_ZN10NikType00319focusStackNextFrameEv+0x64>
    17fa:	ce 01       	movw	r24, r28
    17fc:	88 df       	rcall	.-240    	; 0x170e <_ZN10NikType00320restoreOriginalFocusEv>
    17fe:	60 91 14 01 	lds	r22, 0x0114
    1802:	70 91 15 01 	lds	r23, 0x0115
    1806:	8a e7       	ldi	r24, 0x7A	; 122
    1808:	93 e0       	ldi	r25, 0x03	; 3
    180a:	18 dd       	rcall	.-1488   	; 0x123c <_ZN11MessagePump14setNextHandlerEP15IMessageHandler>
    180c:	02 e0       	ldi	r16, 0x02	; 2
    180e:	10 e2       	ldi	r17, 0x20	; 32
    1810:	c8 01       	movw	r24, r16
    1812:	df 91       	pop	r29
    1814:	cf 91       	pop	r28
    1816:	1f 91       	pop	r17
    1818:	0f 91       	pop	r16
    181a:	08 95       	ret

0000181c <_ZN10NikType0037OnEventEPK7NKEvent>:
    181c:	cf 93       	push	r28
    181e:	df 93       	push	r29
    1820:	ec 01       	movw	r28, r24
    1822:	61 15       	cp	r22, r1
    1824:	71 05       	cpc	r23, r1
    1826:	c1 f0       	breq	.+48     	; 0x1858 <_ZN10NikType0037OnEventEPK7NKEvent+0x3c>
    1828:	fb 01       	movw	r30, r22
    182a:	80 81       	ld	r24, Z
    182c:	91 81       	ldd	r25, Z+1	; 0x01
    182e:	8d 30       	cpi	r24, 0x0D	; 13
    1830:	90 44       	sbci	r25, 0x40	; 64
    1832:	91 f4       	brne	.+36     	; 0x1858 <_ZN10NikType0037OnEventEPK7NKEvent+0x3c>
    1834:	6b ea       	ldi	r22, 0xAB	; 171
    1836:	70 e0       	ldi	r23, 0x00	; 0
    1838:	80 91 10 01 	lds	r24, 0x0110
    183c:	90 91 11 01 	lds	r25, 0x0111
    1840:	dc d1       	rcall	.+952    	; 0x1bfa <_ZN20RunFocusStackHandler12reportStatusEPK19__FlashStringHelper>
    1842:	8c a1       	ldd	r24, Y+36	; 0x24
    1844:	8b 7f       	andi	r24, 0xFB	; 251
    1846:	8c a3       	std	Y+36, r24	; 0x24
    1848:	8d a1       	ldd	r24, Y+37	; 0x25
    184a:	9e a1       	ldd	r25, Y+38	; 0x26
    184c:	89 2b       	or	r24, r25
    184e:	21 f4       	brne	.+8      	; 0x1858 <_ZN10NikType0037OnEventEPK7NKEvent+0x3c>
    1850:	ce 01       	movw	r24, r28
    1852:	df 91       	pop	r29
    1854:	cf 91       	pop	r28
    1856:	a1 cf       	rjmp	.-190    	; 0x179a <_ZN10NikType00319focusStackNextFrameEv>
    1858:	df 91       	pop	r29
    185a:	cf 91       	pop	r28
    185c:	08 95       	ret

0000185e <_ZN10NikType00314setIsConnectedEb>:
    185e:	fc 01       	movw	r30, r24
    1860:	24 a1       	ldd	r18, Z+36	; 0x24
    1862:	60 fb       	bst	r22, 0
    1864:	20 f9       	bld	r18, 0
    1866:	24 a3       	std	Z+36, r18	; 0x24
    1868:	08 95       	ret

0000186a <_ZNK10NikType00311isConnectedEv>:
    186a:	fc 01       	movw	r30, r24
    186c:	84 a1       	ldd	r24, Z+36	; 0x24
    186e:	81 70       	andi	r24, 0x01	; 1
    1870:	08 95       	ret

00001872 <_ZNK10NikType00319isCaptureInProgressEv>:
    1872:	fc 01       	movw	r30, r24
    1874:	84 a1       	ldd	r24, Z+36	; 0x24
    1876:	82 fb       	bst	r24, 2
    1878:	88 27       	eor	r24, r24
    187a:	80 f9       	bld	r24, 0
    187c:	08 95       	ret

0000187e <_ZNK10NikType00318isFocusStackActiveEv>:
    187e:	fc 01       	movw	r30, r24
    1880:	84 a1       	ldd	r24, Z+36	; 0x24
    1882:	83 fb       	bst	r24, 3
    1884:	88 27       	eor	r24, r24
    1886:	80 f9       	bld	r24, 0
    1888:	08 95       	ret

0000188a <_ZNK10NikType00318isNextFrameFocusedEv>:
    188a:	fc 01       	movw	r30, r24
    188c:	84 a1       	ldd	r24, Z+36	; 0x24
    188e:	85 fb       	bst	r24, 5
    1890:	88 27       	eor	r24, r24
    1892:	80 f9       	bld	r24, 0
    1894:	08 95       	ret

00001896 <_ZNK10NikType00326getTimeLastCaptureCompleteEv>:
    1896:	fc 01       	movw	r30, r24
    1898:	67 a5       	ldd	r22, Z+47	; 0x2f
    189a:	70 a9       	ldd	r23, Z+48	; 0x30
    189c:	81 a9       	ldd	r24, Z+49	; 0x31
    189e:	92 a9       	ldd	r25, Z+50	; 0x32
    18a0:	08 95       	ret

000018a2 <_ZN10NikType0034InitEhhb>:
    18a2:	7f 92       	push	r7
    18a4:	8f 92       	push	r8
    18a6:	9f 92       	push	r9
    18a8:	af 92       	push	r10
    18aa:	bf 92       	push	r11
    18ac:	cf 92       	push	r12
    18ae:	df 92       	push	r13
    18b0:	ef 92       	push	r14
    18b2:	ff 92       	push	r15
    18b4:	0f 93       	push	r16
    18b6:	1f 93       	push	r17
    18b8:	cf 93       	push	r28
    18ba:	df 93       	push	r29
    18bc:	cd b7       	in	r28, 0x3d	; 61
    18be:	de b7       	in	r29, 0x3e	; 62
    18c0:	2c 97       	sbiw	r28, 0x0c	; 12
    18c2:	0f b6       	in	r0, 0x3f	; 63
    18c4:	f8 94       	cli
    18c6:	de bf       	out	0x3e, r29	; 62
    18c8:	0f be       	out	0x3f, r0	; 63
    18ca:	cd bf       	out	0x3d, r28	; 61
    18cc:	7c 01       	movw	r14, r24
    18ce:	96 2e       	mov	r9, r22
    18d0:	84 2e       	mov	r8, r20
    18d2:	72 2e       	mov	r7, r18
    18d4:	dc 01       	movw	r26, r24
    18d6:	1c 96       	adiw	r26, 0x0c	; 12
    18d8:	8d 91       	ld	r24, X+
    18da:	9c 91       	ld	r25, X
    18dc:	1d 97       	sbiw	r26, 0x0d	; 13
    18de:	1a 96       	adiw	r26, 0x0a	; 10
    18e0:	2c 91       	ld	r18, X
    18e2:	21 11       	cpse	r18, r1
    18e4:	56 c0       	rjmp	.+172    	; 0x1992 <_ZN10NikType0034InitEhhb+0xf0>
    18e6:	dc 01       	movw	r26, r24
    18e8:	ed 91       	ld	r30, X+
    18ea:	fc 91       	ld	r31, X
    18ec:	01 90       	ld	r0, Z+
    18ee:	f0 81       	ld	r31, Z
    18f0:	e0 2d       	mov	r30, r0
    18f2:	60 e0       	ldi	r22, 0x00	; 0
    18f4:	09 95       	icall
    18f6:	6c 01       	movw	r12, r24
    18f8:	00 97       	sbiw	r24, 0x00	; 0
    18fa:	09 f4       	brne	.+2      	; 0x18fe <_ZN10NikType0034InitEhhb+0x5c>
    18fc:	4c c0       	rjmp	.+152    	; 0x1996 <_ZN10NikType0034InitEhhb+0xf4>
    18fe:	fc 01       	movw	r30, r24
    1900:	a0 80       	ld	r10, Z
    1902:	b1 80       	ldd	r11, Z+1	; 0x01
    1904:	a1 14       	cp	r10, r1
    1906:	b1 04       	cpc	r11, r1
    1908:	09 f4       	brne	.+2      	; 0x190c <_ZN10NikType0034InitEhhb+0x6a>
    190a:	47 c0       	rjmp	.+142    	; 0x199a <_ZN10NikType0034InitEhhb+0xf8>
    190c:	c7 01       	movw	r24, r14
    190e:	0e 96       	adiw	r24, 0x0e	; 14
    1910:	91 83       	std	Z+1, r25	; 0x01
    1912:	80 83       	st	Z, r24
    1914:	8e 01       	movw	r16, r28
    1916:	0f 5f       	subi	r16, 0xFF	; 255
    1918:	1f 4f       	sbci	r17, 0xFF	; 255
    191a:	2c e0       	ldi	r18, 0x0C	; 12
    191c:	30 e0       	ldi	r19, 0x00	; 0
    191e:	40 e0       	ldi	r20, 0x00	; 0
    1920:	60 e0       	ldi	r22, 0x00	; 0
    1922:	d7 01       	movw	r26, r14
    1924:	1c 96       	adiw	r26, 0x0c	; 12
    1926:	8d 91       	ld	r24, X+
    1928:	9c 91       	ld	r25, X
    192a:	1d 97       	sbiw	r26, 0x0d	; 13
    192c:	0e 94 b1 26 	call	0x4d62	; 0x4d62 <_ZN3USB11getDevDescrEhhjPh>
    1930:	18 2f       	mov	r17, r24
    1932:	f6 01       	movw	r30, r12
    1934:	b1 82       	std	Z+1, r11	; 0x01
    1936:	a0 82       	st	Z, r10
    1938:	88 23       	and	r24, r24
    193a:	41 f0       	breq	.+16     	; 0x194c <_ZN10NikType0034InitEhhb+0xaa>
    193c:	61 e0       	ldi	r22, 0x01	; 1
    193e:	70 e0       	ldi	r23, 0x00	; 0
    1940:	80 e0       	ldi	r24, 0x00	; 0
    1942:	90 e0       	ldi	r25, 0x00	; 0
    1944:	0e 94 e3 18 	call	0x31c6	; 0x31c6 <delay>
    1948:	81 2f       	mov	r24, r17
    194a:	28 c0       	rjmp	.+80     	; 0x199c <_ZN10NikType0034InitEhhb+0xfa>
    194c:	89 85       	ldd	r24, Y+9	; 0x09
    194e:	9a 85       	ldd	r25, Y+10	; 0x0a
    1950:	80 3b       	cpi	r24, 0xB0	; 176
    1952:	94 40       	sbci	r25, 0x04	; 4
    1954:	71 f4       	brne	.+28     	; 0x1972 <_ZN10NikType0034InitEhhb+0xd0>
    1956:	8b 85       	ldd	r24, Y+11	; 0x0b
    1958:	9c 85       	ldd	r25, Y+12	; 0x0c
    195a:	d7 01       	movw	r26, r14
    195c:	9c 96       	adiw	r26, 0x2c	; 44
    195e:	9c 93       	st	X, r25
    1960:	8e 93       	st	-X, r24
    1962:	9b 97       	sbiw	r26, 0x2b	; 43
    1964:	27 2d       	mov	r18, r7
    1966:	48 2d       	mov	r20, r8
    1968:	69 2d       	mov	r22, r9
    196a:	c7 01       	movw	r24, r14
    196c:	0e 94 fe 1b 	call	0x37fc	; 0x37fc <_ZN3PTP4InitEhhb>
    1970:	15 c0       	rjmp	.+42     	; 0x199c <_ZN10NikType0034InitEhhb+0xfa>
    1972:	80 91 0a 01 	lds	r24, 0x010A
    1976:	90 91 0b 01 	lds	r25, 0x010B
    197a:	0e 94 32 04 	call	0x864	; 0x864 <_ZN21Adafruit_RGBLCDShield5clearEv>
    197e:	62 eb       	ldi	r22, 0xB2	; 178
    1980:	70 e0       	ldi	r23, 0x00	; 0
    1982:	80 91 0a 01 	lds	r24, 0x010A
    1986:	90 91 0b 01 	lds	r25, 0x010B
    198a:	0e 94 3d 17 	call	0x2e7a	; 0x2e7a <_ZN5Print5printEPK19__FlashStringHelper>
    198e:	81 ed       	ldi	r24, 0xD1	; 209
    1990:	05 c0       	rjmp	.+10     	; 0x199c <_ZN10NikType0034InitEhhb+0xfa>
    1992:	89 ed       	ldi	r24, 0xD9	; 217
    1994:	03 c0       	rjmp	.+6      	; 0x199c <_ZN10NikType0034InitEhhb+0xfa>
    1996:	86 ed       	ldi	r24, 0xD6	; 214
    1998:	01 c0       	rjmp	.+2      	; 0x199c <_ZN10NikType0034InitEhhb+0xfa>
    199a:	87 ed       	ldi	r24, 0xD7	; 215
    199c:	2c 96       	adiw	r28, 0x0c	; 12
    199e:	0f b6       	in	r0, 0x3f	; 63
    19a0:	f8 94       	cli
    19a2:	de bf       	out	0x3e, r29	; 62
    19a4:	0f be       	out	0x3f, r0	; 63
    19a6:	cd bf       	out	0x3d, r28	; 61
    19a8:	df 91       	pop	r29
    19aa:	cf 91       	pop	r28
    19ac:	1f 91       	pop	r17
    19ae:	0f 91       	pop	r16
    19b0:	ff 90       	pop	r15
    19b2:	ef 90       	pop	r14
    19b4:	df 90       	pop	r13
    19b6:	cf 90       	pop	r12
    19b8:	bf 90       	pop	r11
    19ba:	af 90       	pop	r10
    19bc:	9f 90       	pop	r9
    19be:	8f 90       	pop	r8
    19c0:	7f 90       	pop	r7
    19c2:	08 95       	ret

000019c4 <_ZN10NikType0034PollEv>:
    19c4:	cf 92       	push	r12
    19c6:	df 92       	push	r13
    19c8:	ef 92       	push	r14
    19ca:	ff 92       	push	r15
    19cc:	0f 93       	push	r16
    19ce:	1f 93       	push	r17
    19d0:	cf 93       	push	r28
    19d2:	df 93       	push	r29
    19d4:	cd b7       	in	r28, 0x3d	; 61
    19d6:	de b7       	in	r29, 0x3e	; 62
    19d8:	69 97       	sbiw	r28, 0x19	; 25
    19da:	0f b6       	in	r0, 0x3f	; 63
    19dc:	f8 94       	cli
    19de:	de bf       	out	0x3e, r29	; 62
    19e0:	0f be       	out	0x3f, r0	; 63
    19e2:	cd bf       	out	0x3d, r28	; 61
    19e4:	8c 01       	movw	r16, r24
    19e6:	0e 94 9d 1d 	call	0x3b3a	; 0x3b3a <_ZN3PTP4PollEv>
    19ea:	d8 01       	movw	r26, r16
    19ec:	94 96       	adiw	r26, 0x24	; 36
    19ee:	8c 91       	ld	r24, X
    19f0:	80 ff       	sbrs	r24, 0
    19f2:	46 c0       	rjmp	.+140    	; 0x1a80 <_ZN10NikType0034PollEv+0xbc>
    19f4:	0e 94 a7 18 	call	0x314e	; 0x314e <millis>
    19f8:	6b 01       	movw	r12, r22
    19fa:	7c 01       	movw	r14, r24
    19fc:	f8 01       	movw	r30, r16
    19fe:	80 a1       	ldd	r24, Z+32	; 0x20
    1a00:	91 a1       	ldd	r25, Z+33	; 0x21
    1a02:	a2 a1       	ldd	r26, Z+34	; 0x22
    1a04:	b3 a1       	ldd	r27, Z+35	; 0x23
    1a06:	c8 16       	cp	r12, r24
    1a08:	d9 06       	cpc	r13, r25
    1a0a:	ea 06       	cpc	r14, r26
    1a0c:	fb 06       	cpc	r15, r27
    1a0e:	c0 f1       	brcs	.+112    	; 0x1a80 <_ZN10NikType0034PollEv+0xbc>
    1a10:	80 e1       	ldi	r24, 0x10	; 16
    1a12:	92 e0       	ldi	r25, 0x02	; 2
    1a14:	9a 83       	std	Y+2, r25	; 0x02
    1a16:	89 83       	std	Y+1, r24	; 0x01
    1a18:	8f ef       	ldi	r24, 0xFF	; 255
    1a1a:	9f ef       	ldi	r25, 0xFF	; 255
    1a1c:	9c 83       	std	Y+4, r25	; 0x04
    1a1e:	8b 83       	std	Y+3, r24	; 0x03
    1a20:	c8 01       	movw	r24, r16
    1a22:	4a 96       	adiw	r24, 0x1a	; 26
    1a24:	9e 83       	std	Y+6, r25	; 0x06
    1a26:	8d 83       	std	Y+5, r24	; 0x05
    1a28:	18 86       	std	Y+8, r1	; 0x08
    1a2a:	1b 86       	std	Y+11, r1	; 0x0b
    1a2c:	1a 86       	std	Y+10, r1	; 0x0a
    1a2e:	1f 8a       	std	Y+23, r1	; 0x17
    1a30:	1e 8a       	std	Y+22, r1	; 0x16
    1a32:	18 8e       	std	Y+24, r1	; 0x18
    1a34:	19 8e       	std	Y+25, r1	; 0x19
    1a36:	19 8a       	std	Y+17, r1	; 0x11
    1a38:	18 8a       	std	Y+16, r1	; 0x10
    1a3a:	1b 8a       	std	Y+19, r1	; 0x13
    1a3c:	1a 8a       	std	Y+18, r1	; 0x12
    1a3e:	1d 8a       	std	Y+21, r1	; 0x15
    1a40:	1c 8a       	std	Y+20, r1	; 0x14
    1a42:	ce 01       	movw	r24, r28
    1a44:	40 96       	adiw	r24, 0x10	; 16
    1a46:	9f 87       	std	Y+15, r25	; 0x0f
    1a48:	8e 87       	std	Y+14, r24	; 0x0e
    1a4a:	01 90       	ld	r0, Z+
    1a4c:	f0 81       	ld	r31, Z
    1a4e:	e0 2d       	mov	r30, r0
    1a50:	00 88       	ldd	r0, Z+16	; 0x10
    1a52:	f1 89       	ldd	r31, Z+17	; 0x11
    1a54:	e0 2d       	mov	r30, r0
    1a56:	be 01       	movw	r22, r28
    1a58:	6f 5f       	subi	r22, 0xFF	; 255
    1a5a:	7f 4f       	sbci	r23, 0xFF	; 255
    1a5c:	c8 01       	movw	r24, r16
    1a5e:	09 95       	icall
    1a60:	d8 01       	movw	r26, r16
    1a62:	5c 96       	adiw	r26, 0x1c	; 28
    1a64:	4d 91       	ld	r20, X+
    1a66:	5d 91       	ld	r21, X+
    1a68:	6d 91       	ld	r22, X+
    1a6a:	7c 91       	ld	r23, X
    1a6c:	5f 97       	sbiw	r26, 0x1f	; 31
    1a6e:	4c 0d       	add	r20, r12
    1a70:	5d 1d       	adc	r21, r13
    1a72:	6e 1d       	adc	r22, r14
    1a74:	7f 1d       	adc	r23, r15
    1a76:	f8 01       	movw	r30, r16
    1a78:	40 a3       	std	Z+32, r20	; 0x20
    1a7a:	51 a3       	std	Z+33, r21	; 0x21
    1a7c:	62 a3       	std	Z+34, r22	; 0x22
    1a7e:	73 a3       	std	Z+35, r23	; 0x23
    1a80:	80 e0       	ldi	r24, 0x00	; 0
    1a82:	69 96       	adiw	r28, 0x19	; 25
    1a84:	0f b6       	in	r0, 0x3f	; 63
    1a86:	f8 94       	cli
    1a88:	de bf       	out	0x3e, r29	; 62
    1a8a:	0f be       	out	0x3f, r0	; 63
    1a8c:	cd bf       	out	0x3d, r28	; 61
    1a8e:	df 91       	pop	r29
    1a90:	cf 91       	pop	r28
    1a92:	1f 91       	pop	r17
    1a94:	0f 91       	pop	r16
    1a96:	ff 90       	pop	r15
    1a98:	ef 90       	pop	r14
    1a9a:	df 90       	pop	r13
    1a9c:	cf 90       	pop	r12
    1a9e:	08 95       	ret

00001aa0 <_ZThn26_N10NikType0037OnEventEPK7NKEvent>:
    1aa0:	4a 97       	sbiw	r24, 0x1a	; 26
    1aa2:	bc ce       	rjmp	.-648    	; 0x181c <_ZN10NikType0037OnEventEPK7NKEvent>

00001aa4 <_ZN22NikType003StateHandler25OnDeviceDisconnectedStateEP3PTP>:
    1aa4:	fc 01       	movw	r30, r24
    1aa6:	cb 01       	movw	r24, r22
    1aa8:	22 81       	ldd	r18, Z+2	; 0x02
    1aaa:	2d 7f       	andi	r18, 0xFD	; 253
    1aac:	59 f4       	brne	.+22     	; 0x1ac4 <_ZN22NikType003StateHandler25OnDeviceDisconnectedStateEP3PTP+0x20>
    1aae:	21 e0       	ldi	r18, 0x01	; 1
    1ab0:	22 83       	std	Z+2, r18	; 0x02
    1ab2:	60 e0       	ldi	r22, 0x00	; 0
    1ab4:	d4 de       	rcall	.-600    	; 0x185e <_ZN10NikType00314setIsConnectedEb>
    1ab6:	60 91 14 01 	lds	r22, 0x0114
    1aba:	70 91 15 01 	lds	r23, 0x0115
    1abe:	8a e7       	ldi	r24, 0x7A	; 122
    1ac0:	93 e0       	ldi	r25, 0x03	; 3
    1ac2:	bc cb       	rjmp	.-2184   	; 0x123c <_ZN11MessagePump14setNextHandlerEP15IMessageHandler>
    1ac4:	08 95       	ret

00001ac6 <_ZN22NikType003StateHandler24OnDeviceInitializedStateEP3PTP>:
    1ac6:	fc 01       	movw	r30, r24
    1ac8:	cb 01       	movw	r24, r22
    1aca:	22 81       	ldd	r18, Z+2	; 0x02
    1acc:	22 30       	cpi	r18, 0x02	; 2
    1ace:	58 f4       	brcc	.+22     	; 0x1ae6 <_ZN22NikType003StateHandler24OnDeviceInitializedStateEP3PTP+0x20>
    1ad0:	22 e0       	ldi	r18, 0x02	; 2
    1ad2:	22 83       	std	Z+2, r18	; 0x02
    1ad4:	61 e0       	ldi	r22, 0x01	; 1
    1ad6:	c3 de       	rcall	.-634    	; 0x185e <_ZN10NikType00314setIsConnectedEb>
    1ad8:	60 91 14 01 	lds	r22, 0x0114
    1adc:	70 91 15 01 	lds	r23, 0x0115
    1ae0:	8a e7       	ldi	r24, 0x7A	; 122
    1ae2:	93 e0       	ldi	r25, 0x03	; 3
    1ae4:	ab cb       	rjmp	.-2218   	; 0x123c <_ZN11MessagePump14setNextHandlerEP15IMessageHandler>
    1ae6:	08 95       	ret

00001ae8 <_ZN22NikType003StateHandlerC1Ev>:
    1ae8:	29 e7       	ldi	r18, 0x79	; 121
    1aea:	31 e0       	ldi	r19, 0x01	; 1
    1aec:	fc 01       	movw	r30, r24
    1aee:	31 83       	std	Z+1, r19	; 0x01
    1af0:	20 83       	st	Z, r18
    1af2:	12 82       	std	Z+2, r1	; 0x02
    1af4:	08 95       	ret

00001af6 <_ZN15ReadButtonStateD1Ev>:
    1af6:	29 e8       	ldi	r18, 0x89	; 137
    1af8:	31 e0       	ldi	r19, 0x01	; 1
    1afa:	fc 01       	movw	r30, r24
    1afc:	31 83       	std	Z+1, r19	; 0x01
    1afe:	20 83       	st	Z, r18
    1b00:	08 95       	ret

00001b02 <_ZN26ReadAdaFruitLcdButtonStateD1Ev>:
    1b02:	29 e8       	ldi	r18, 0x89	; 137
    1b04:	31 e0       	ldi	r19, 0x01	; 1
    1b06:	fc 01       	movw	r30, r24
    1b08:	31 83       	std	Z+1, r19	; 0x01
    1b0a:	20 83       	st	Z, r18
    1b0c:	08 95       	ret

00001b0e <_ZN26ReadAdaFruitLcdButtonState10setPinModeEhh>:
    1b0e:	08 95       	ret

00001b10 <_ZN15ReadButtonStateD0Ev>:
    1b10:	29 e8       	ldi	r18, 0x89	; 137
    1b12:	31 e0       	ldi	r19, 0x01	; 1
    1b14:	fc 01       	movw	r30, r24
    1b16:	31 83       	std	Z+1, r19	; 0x01
    1b18:	20 83       	st	Z, r18
    1b1a:	0c 94 fd 16 	jmp	0x2dfa	; 0x2dfa <_ZdlPv>

00001b1e <_ZN26ReadAdaFruitLcdButtonStateD0Ev>:
    1b1e:	29 e8       	ldi	r18, 0x89	; 137
    1b20:	31 e0       	ldi	r19, 0x01	; 1
    1b22:	fc 01       	movw	r30, r24
    1b24:	31 83       	std	Z+1, r19	; 0x01
    1b26:	20 83       	st	Z, r18
    1b28:	0c 94 fd 16 	jmp	0x2dfa	; 0x2dfa <_ZdlPv>

00001b2c <_ZN26ReadAdaFruitLcdButtonState9isPressedEh>:
    1b2c:	cf 93       	push	r28
    1b2e:	df 93       	push	r29
    1b30:	1f 92       	push	r1
    1b32:	cd b7       	in	r28, 0x3d	; 61
    1b34:	de b7       	in	r29, 0x3e	; 62
    1b36:	fc 01       	movw	r30, r24
    1b38:	82 81       	ldd	r24, Z+2	; 0x02
    1b3a:	93 81       	ldd	r25, Z+3	; 0x03
    1b3c:	69 83       	std	Y+1, r22	; 0x01
    1b3e:	0e 94 46 05 	call	0xa8c	; 0xa8c <_ZN21Adafruit_RGBLCDShield11readButtonsEv>
    1b42:	69 81       	ldd	r22, Y+1	; 0x01
    1b44:	68 23       	and	r22, r24
    1b46:	81 e0       	ldi	r24, 0x01	; 1
    1b48:	09 f4       	brne	.+2      	; 0x1b4c <_ZN26ReadAdaFruitLcdButtonState9isPressedEh+0x20>
    1b4a:	80 e0       	ldi	r24, 0x00	; 0
    1b4c:	0f 90       	pop	r0
    1b4e:	df 91       	pop	r29
    1b50:	cf 91       	pop	r28
    1b52:	08 95       	ret

00001b54 <_ZN26ReadAdaFruitLcdButtonStateC1EP21Adafruit_RGBLCDShield>:
    1b54:	25 e9       	ldi	r18, 0x95	; 149
    1b56:	31 e0       	ldi	r19, 0x01	; 1
    1b58:	fc 01       	movw	r30, r24
    1b5a:	31 83       	std	Z+1, r19	; 0x01
    1b5c:	20 83       	st	Z, r18
    1b5e:	73 83       	std	Z+3, r23	; 0x03
    1b60:	62 83       	std	Z+2, r22	; 0x02
    1b62:	08 95       	ret

00001b64 <_ZN20RunFocusStackHandler4showEv>:
    1b64:	cf 93       	push	r28
    1b66:	df 93       	push	r29
    1b68:	ec 01       	movw	r28, r24
    1b6a:	80 91 0a 01 	lds	r24, 0x010A
    1b6e:	90 91 0b 01 	lds	r25, 0x010B
    1b72:	0e 94 32 04 	call	0x864	; 0x864 <_ZN21Adafruit_RGBLCDShield5clearEv>
    1b76:	40 e0       	ldi	r20, 0x00	; 0
    1b78:	60 e0       	ldi	r22, 0x00	; 0
    1b7a:	80 91 0a 01 	lds	r24, 0x010A
    1b7e:	90 91 0b 01 	lds	r25, 0x010B
    1b82:	0e 94 38 04 	call	0x870	; 0x870 <_ZN21Adafruit_RGBLCDShield9setCursorEhh>
    1b86:	6c 81       	ldd	r22, Y+4	; 0x04
    1b88:	7d 81       	ldd	r23, Y+5	; 0x05
    1b8a:	80 91 0a 01 	lds	r24, 0x010A
    1b8e:	90 91 0b 01 	lds	r25, 0x010B
    1b92:	0e 94 5e 17 	call	0x2ebc	; 0x2ebc <_ZN5Print5printEPKc>
    1b96:	82 e9       	ldi	r24, 0x92	; 146
    1b98:	92 e0       	ldi	r25, 0x02	; 2
    1b9a:	df 91       	pop	r29
    1b9c:	cf 91       	pop	r28
    1b9e:	e6 cc       	rjmp	.-1588   	; 0x156c <_ZN10NikType00315startFocusStackEv>

00001ba0 <_ZN20RunFocusStackHandler14processMessageER3Msg>:
    1ba0:	cf 93       	push	r28
    1ba2:	df 93       	push	r29
    1ba4:	eb 01       	movw	r28, r22
    1ba6:	88 81       	ld	r24, Y
    1ba8:	99 81       	ldd	r25, Y+1	; 0x01
    1baa:	89 2b       	or	r24, r25
    1bac:	59 f4       	brne	.+22     	; 0x1bc4 <_ZN20RunFocusStackHandler14processMessageER3Msg+0x24>
    1bae:	82 e9       	ldi	r24, 0x92	; 146
    1bb0:	92 e0       	ldi	r25, 0x02	; 2
    1bb2:	a6 dd       	rcall	.-1204   	; 0x1700 <_ZN10NikType00316cancelFocusStackEv>
    1bb4:	80 91 14 01 	lds	r24, 0x0114
    1bb8:	90 91 15 01 	lds	r25, 0x0115
    1bbc:	9c 83       	std	Y+4, r25	; 0x04
    1bbe:	8b 83       	std	Y+3, r24	; 0x03
    1bc0:	80 e0       	ldi	r24, 0x00	; 0
    1bc2:	01 c0       	rjmp	.+2      	; 0x1bc6 <_ZN20RunFocusStackHandler14processMessageER3Msg+0x26>
    1bc4:	81 e0       	ldi	r24, 0x01	; 1
    1bc6:	df 91       	pop	r29
    1bc8:	cf 91       	pop	r28
    1bca:	08 95       	ret

00001bcc <_ZN20RunFocusStackHandlerC1EP11MessagePump>:
    1bcc:	cf 93       	push	r28
    1bce:	df 93       	push	r29
    1bd0:	ec 01       	movw	r28, r24
    1bd2:	7a da       	rcall	.-2828   	; 0x10c8 <_ZN15IMessageHandlerC1EP11MessagePump>
    1bd4:	85 ea       	ldi	r24, 0xA5	; 165
    1bd6:	91 e0       	ldi	r25, 0x01	; 1
    1bd8:	99 83       	std	Y+1, r25	; 0x01
    1bda:	88 83       	st	Y, r24
    1bdc:	8d e9       	ldi	r24, 0x9D	; 157
    1bde:	91 e0       	ldi	r25, 0x01	; 1
    1be0:	9d 83       	std	Y+5, r25	; 0x05
    1be2:	8c 83       	std	Y+4, r24	; 0x04
    1be4:	1f 82       	std	Y+7, r1	; 0x07
    1be6:	1e 82       	std	Y+6, r1	; 0x06
    1be8:	df 91       	pop	r29
    1bea:	cf 91       	pop	r28
    1bec:	08 95       	ret

00001bee <_ZN20RunFocusStackHandlerD1Ev>:
    1bee:	25 ea       	ldi	r18, 0xA5	; 165
    1bf0:	31 e0       	ldi	r19, 0x01	; 1
    1bf2:	fc 01       	movw	r30, r24
    1bf4:	31 83       	std	Z+1, r19	; 0x01
    1bf6:	20 83       	st	Z, r18
    1bf8:	08 95       	ret

00001bfa <_ZN20RunFocusStackHandler12reportStatusEPK19__FlashStringHelper>:
    1bfa:	cf 93       	push	r28
    1bfc:	df 93       	push	r29
    1bfe:	eb 01       	movw	r28, r22
    1c00:	40 e0       	ldi	r20, 0x00	; 0
    1c02:	68 e0       	ldi	r22, 0x08	; 8
    1c04:	80 91 0a 01 	lds	r24, 0x010A
    1c08:	90 91 0b 01 	lds	r25, 0x010B
    1c0c:	0e 94 38 04 	call	0x870	; 0x870 <_ZN21Adafruit_RGBLCDShield9setCursorEhh>
    1c10:	65 ed       	ldi	r22, 0xD5	; 213
    1c12:	70 e0       	ldi	r23, 0x00	; 0
    1c14:	80 91 0a 01 	lds	r24, 0x010A
    1c18:	90 91 0b 01 	lds	r25, 0x010B
    1c1c:	0e 94 3d 17 	call	0x2e7a	; 0x2e7a <_ZN5Print5printEPK19__FlashStringHelper>
    1c20:	40 e0       	ldi	r20, 0x00	; 0
    1c22:	68 e0       	ldi	r22, 0x08	; 8
    1c24:	80 91 0a 01 	lds	r24, 0x010A
    1c28:	90 91 0b 01 	lds	r25, 0x010B
    1c2c:	0e 94 38 04 	call	0x870	; 0x870 <_ZN21Adafruit_RGBLCDShield9setCursorEhh>
    1c30:	be 01       	movw	r22, r28
    1c32:	80 91 0a 01 	lds	r24, 0x010A
    1c36:	90 91 0b 01 	lds	r25, 0x010B
    1c3a:	df 91       	pop	r29
    1c3c:	cf 91       	pop	r28
    1c3e:	0c 94 3d 17 	jmp	0x2e7a	; 0x2e7a <_ZN5Print5printEPK19__FlashStringHelper>

00001c42 <_ZN20RunFocusStackHandler11reportFrameEj>:
    1c42:	cf 93       	push	r28
    1c44:	df 93       	push	r29
    1c46:	eb 01       	movw	r28, r22
    1c48:	40 e0       	ldi	r20, 0x00	; 0
    1c4a:	64 e0       	ldi	r22, 0x04	; 4
    1c4c:	80 91 0a 01 	lds	r24, 0x010A
    1c50:	90 91 0b 01 	lds	r25, 0x010B
    1c54:	0e 94 38 04 	call	0x870	; 0x870 <_ZN21Adafruit_RGBLCDShield9setCursorEhh>
    1c58:	60 ed       	ldi	r22, 0xD0	; 208
    1c5a:	70 e0       	ldi	r23, 0x00	; 0
    1c5c:	80 91 0a 01 	lds	r24, 0x010A
    1c60:	90 91 0b 01 	lds	r25, 0x010B
    1c64:	0e 94 3d 17 	call	0x2e7a	; 0x2e7a <_ZN5Print5printEPK19__FlashStringHelper>
    1c68:	40 e0       	ldi	r20, 0x00	; 0
    1c6a:	64 e0       	ldi	r22, 0x04	; 4
    1c6c:	80 91 0a 01 	lds	r24, 0x010A
    1c70:	90 91 0b 01 	lds	r25, 0x010B
    1c74:	0e 94 38 04 	call	0x870	; 0x870 <_ZN21Adafruit_RGBLCDShield9setCursorEhh>
    1c78:	4a e0       	ldi	r20, 0x0A	; 10
    1c7a:	50 e0       	ldi	r21, 0x00	; 0
    1c7c:	be 01       	movw	r22, r28
    1c7e:	80 91 0a 01 	lds	r24, 0x010A
    1c82:	90 91 0b 01 	lds	r25, 0x010B
    1c86:	df 91       	pop	r29
    1c88:	cf 91       	pop	r28
    1c8a:	0c 94 f3 17 	jmp	0x2fe6	; 0x2fe6 <_ZN5Print5printEji>

00001c8e <_ZNK20RunFocusStackHandler17getLastUpdateTimeEv>:
    1c8e:	fc 01       	movw	r30, r24
    1c90:	66 85       	ldd	r22, Z+14	; 0x0e
    1c92:	77 85       	ldd	r23, Z+15	; 0x0f
    1c94:	80 89       	ldd	r24, Z+16	; 0x10
    1c96:	91 89       	ldd	r25, Z+17	; 0x11
    1c98:	08 95       	ret

00001c9a <_ZN20RunFocusStackHandler19resetLastUpdateTimeEv>:
    1c9a:	cf 93       	push	r28
    1c9c:	df 93       	push	r29
    1c9e:	ec 01       	movw	r28, r24
    1ca0:	0e 94 a7 18 	call	0x314e	; 0x314e <millis>
    1ca4:	6e 87       	std	Y+14, r22	; 0x0e
    1ca6:	7f 87       	std	Y+15, r23	; 0x0f
    1ca8:	88 8b       	std	Y+16, r24	; 0x10
    1caa:	99 8b       	std	Y+17, r25	; 0x11
    1cac:	df 91       	pop	r29
    1cae:	cf 91       	pop	r28
    1cb0:	08 95       	ret

00001cb2 <_ZN20RunFocusStackHandler11reportDelayEh>:
    1cb2:	cf 93       	push	r28
    1cb4:	c6 2f       	mov	r28, r22
    1cb6:	f1 df       	rcall	.-30     	; 0x1c9a <_ZN20RunFocusStackHandler19resetLastUpdateTimeEv>
    1cb8:	41 e0       	ldi	r20, 0x01	; 1
    1cba:	60 e0       	ldi	r22, 0x00	; 0
    1cbc:	80 91 0a 01 	lds	r24, 0x010A
    1cc0:	90 91 0b 01 	lds	r25, 0x010B
    1cc4:	0e 94 38 04 	call	0x870	; 0x870 <_ZN21Adafruit_RGBLCDShield9setCursorEhh>
    1cc8:	80 91 0a 01 	lds	r24, 0x010A
    1ccc:	90 91 0b 01 	lds	r25, 0x010B
    1cd0:	cc 23       	and	r28, r28
    1cd2:	31 f1       	breq	.+76     	; 0x1d20 <_ZN20RunFocusStackHandler11reportDelayEh+0x6e>
    1cd4:	6a ec       	ldi	r22, 0xCA	; 202
    1cd6:	70 e0       	ldi	r23, 0x00	; 0
    1cd8:	0e 94 3d 17 	call	0x2e7a	; 0x2e7a <_ZN5Print5printEPK19__FlashStringHelper>
    1cdc:	41 e0       	ldi	r20, 0x01	; 1
    1cde:	66 e0       	ldi	r22, 0x06	; 6
    1ce0:	80 91 0a 01 	lds	r24, 0x010A
    1ce4:	90 91 0b 01 	lds	r25, 0x010B
    1ce8:	0e 94 38 04 	call	0x870	; 0x870 <_ZN21Adafruit_RGBLCDShield9setCursorEhh>
    1cec:	65 ec       	ldi	r22, 0xC5	; 197
    1cee:	70 e0       	ldi	r23, 0x00	; 0
    1cf0:	80 91 0a 01 	lds	r24, 0x010A
    1cf4:	90 91 0b 01 	lds	r25, 0x010B
    1cf8:	0e 94 3d 17 	call	0x2e7a	; 0x2e7a <_ZN5Print5printEPK19__FlashStringHelper>
    1cfc:	41 e0       	ldi	r20, 0x01	; 1
    1cfe:	66 e0       	ldi	r22, 0x06	; 6
    1d00:	80 91 0a 01 	lds	r24, 0x010A
    1d04:	90 91 0b 01 	lds	r25, 0x010B
    1d08:	0e 94 38 04 	call	0x870	; 0x870 <_ZN21Adafruit_RGBLCDShield9setCursorEhh>
    1d0c:	4a e0       	ldi	r20, 0x0A	; 10
    1d0e:	50 e0       	ldi	r21, 0x00	; 0
    1d10:	6c 2f       	mov	r22, r28
    1d12:	80 91 0a 01 	lds	r24, 0x010A
    1d16:	90 91 0b 01 	lds	r25, 0x010B
    1d1a:	cf 91       	pop	r28
    1d1c:	0c 94 f8 17 	jmp	0x2ff0	; 0x2ff0 <_ZN5Print5printEhi>
    1d20:	6c eb       	ldi	r22, 0xBC	; 188
    1d22:	70 e0       	ldi	r23, 0x00	; 0
    1d24:	cf 91       	pop	r28
    1d26:	0c 94 3d 17 	jmp	0x2e7a	; 0x2e7a <_ZN5Print5printEPK19__FlashStringHelper>

00001d2a <_ZN12SetupHandlerC1EP11MessagePumpmm>:
    1d2a:	af 92       	push	r10
    1d2c:	bf 92       	push	r11
    1d2e:	cf 92       	push	r12
    1d30:	df 92       	push	r13
    1d32:	ef 92       	push	r14
    1d34:	ff 92       	push	r15
    1d36:	0f 93       	push	r16
    1d38:	1f 93       	push	r17
    1d3a:	cf 93       	push	r28
    1d3c:	df 93       	push	r29
    1d3e:	00 d0       	rcall	.+0      	; 0x1d40 <_ZN12SetupHandlerC1EP11MessagePumpmm+0x16>
    1d40:	00 d0       	rcall	.+0      	; 0x1d42 <_ZN12SetupHandlerC1EP11MessagePumpmm+0x18>
    1d42:	cd b7       	in	r28, 0x3d	; 61
    1d44:	de b7       	in	r29, 0x3e	; 62
    1d46:	5c 01       	movw	r10, r24
    1d48:	67 01       	movw	r12, r14
    1d4a:	78 01       	movw	r14, r16
    1d4c:	29 83       	std	Y+1, r18	; 0x01
    1d4e:	3a 83       	std	Y+2, r19	; 0x02
    1d50:	4b 83       	std	Y+3, r20	; 0x03
    1d52:	5c 83       	std	Y+4, r21	; 0x04
    1d54:	b9 d9       	rcall	.-3214   	; 0x10c8 <_ZN15IMessageHandlerC1EP11MessagePump>
    1d56:	88 ee       	ldi	r24, 0xE8	; 232
    1d58:	91 e0       	ldi	r25, 0x01	; 1
    1d5a:	f5 01       	movw	r30, r10
    1d5c:	91 83       	std	Z+1, r25	; 0x01
    1d5e:	80 83       	st	Z, r24
    1d60:	29 81       	ldd	r18, Y+1	; 0x01
    1d62:	3a 81       	ldd	r19, Y+2	; 0x02
    1d64:	4b 81       	ldd	r20, Y+3	; 0x03
    1d66:	5c 81       	ldd	r21, Y+4	; 0x04
    1d68:	26 87       	std	Z+14, r18	; 0x0e
    1d6a:	37 87       	std	Z+15, r19	; 0x0f
    1d6c:	40 8b       	std	Z+16, r20	; 0x10
    1d6e:	51 8b       	std	Z+17, r21	; 0x11
    1d70:	c2 8a       	std	Z+18, r12	; 0x12
    1d72:	d3 8a       	std	Z+19, r13	; 0x13
    1d74:	e4 8a       	std	Z+20, r14	; 0x14
    1d76:	f5 8a       	std	Z+21, r15	; 0x15
    1d78:	16 8a       	std	Z+22, r1	; 0x16
    1d7a:	17 8a       	std	Z+23, r1	; 0x17
    1d7c:	10 8e       	std	Z+24, r1	; 0x18
    1d7e:	11 8e       	std	Z+25, r1	; 0x19
    1d80:	12 8e       	std	Z+26, r1	; 0x1a
    1d82:	89 ea       	ldi	r24, 0xA9	; 169
    1d84:	91 e0       	ldi	r25, 0x01	; 1
    1d86:	95 83       	std	Z+5, r25	; 0x05
    1d88:	84 83       	std	Z+4, r24	; 0x04
    1d8a:	8d e9       	ldi	r24, 0x9D	; 157
    1d8c:	91 e0       	ldi	r25, 0x01	; 1
    1d8e:	97 83       	std	Z+7, r25	; 0x07
    1d90:	86 83       	std	Z+6, r24	; 0x06
    1d92:	8d ea       	ldi	r24, 0xAD	; 173
    1d94:	91 e0       	ldi	r25, 0x01	; 1
    1d96:	91 87       	std	Z+9, r25	; 0x09
    1d98:	80 87       	std	Z+8, r24	; 0x08
    1d9a:	81 eb       	ldi	r24, 0xB1	; 177
    1d9c:	91 e0       	ldi	r25, 0x01	; 1
    1d9e:	93 87       	std	Z+11, r25	; 0x0b
    1da0:	82 87       	std	Z+10, r24	; 0x0a
    1da2:	0f 90       	pop	r0
    1da4:	0f 90       	pop	r0
    1da6:	0f 90       	pop	r0
    1da8:	0f 90       	pop	r0
    1daa:	df 91       	pop	r29
    1dac:	cf 91       	pop	r28
    1dae:	1f 91       	pop	r17
    1db0:	0f 91       	pop	r16
    1db2:	ff 90       	pop	r15
    1db4:	ef 90       	pop	r14
    1db6:	df 90       	pop	r13
    1db8:	cf 90       	pop	r12
    1dba:	bf 90       	pop	r11
    1dbc:	af 90       	pop	r10
    1dbe:	08 95       	ret

00001dc0 <_ZN12SetupHandlerD1Ev>:
    1dc0:	28 ee       	ldi	r18, 0xE8	; 232
    1dc2:	31 e0       	ldi	r19, 0x01	; 1
    1dc4:	fc 01       	movw	r30, r24
    1dc6:	31 83       	std	Z+1, r19	; 0x01
    1dc8:	20 83       	st	Z, r18
    1dca:	08 95       	ret

00001dcc <_ZN12SetupHandler12advanceCaretEh>:
    1dcc:	0f 93       	push	r16
    1dce:	1f 93       	push	r17
    1dd0:	cf 93       	push	r28
    1dd2:	df 93       	push	r29
    1dd4:	ec 01       	movw	r28, r24
    1dd6:	06 2f       	mov	r16, r22
    1dd8:	1c 85       	ldd	r17, Y+12	; 0x0c
    1dda:	65 eb       	ldi	r22, 0xB5	; 181
    1ddc:	71 e0       	ldi	r23, 0x01	; 1
    1dde:	8c e3       	ldi	r24, 0x3C	; 60
    1de0:	94 e0       	ldi	r25, 0x04	; 4
    1de2:	0e 94 5e 17 	call	0x2ebc	; 0x2ebc <_ZN5Print5printEPKc>
    1de6:	4a e0       	ldi	r20, 0x0A	; 10
    1de8:	50 e0       	ldi	r21, 0x00	; 0
    1dea:	60 2f       	mov	r22, r16
    1dec:	8c e3       	ldi	r24, 0x3C	; 60
    1dee:	94 e0       	ldi	r25, 0x04	; 4
    1df0:	0e 94 f8 17 	call	0x2ff0	; 0x2ff0 <_ZN5Print5printEhi>
    1df4:	68 ec       	ldi	r22, 0xC8	; 200
    1df6:	71 e0       	ldi	r23, 0x01	; 1
    1df8:	8c e3       	ldi	r24, 0x3C	; 60
    1dfa:	94 e0       	ldi	r25, 0x04	; 4
    1dfc:	0e 94 5e 17 	call	0x2ebc	; 0x2ebc <_ZN5Print5printEPKc>
    1e00:	4a e0       	ldi	r20, 0x0A	; 10
    1e02:	50 e0       	ldi	r21, 0x00	; 0
    1e04:	61 2f       	mov	r22, r17
    1e06:	8c e3       	ldi	r24, 0x3C	; 60
    1e08:	94 e0       	ldi	r25, 0x04	; 4
    1e0a:	0e 94 f8 17 	call	0x2ff0	; 0x2ff0 <_ZN5Print5printEhi>
    1e0e:	0f 3f       	cpi	r16, 0xFF	; 255
    1e10:	81 f4       	brne	.+32     	; 0x1e32 <_ZN12SetupHandler12advanceCaretEh+0x66>
    1e12:	15 30       	cpi	r17, 0x05	; 5
    1e14:	09 f1       	breq	.+66     	; 0x1e58 <_ZN12SetupHandler12advanceCaretEh+0x8c>
    1e16:	18 f4       	brcc	.+6      	; 0x1e1e <_ZN12SetupHandler12advanceCaretEh+0x52>
    1e18:	11 23       	and	r17, r17
    1e1a:	d1 f0       	breq	.+52     	; 0x1e50 <_ZN12SetupHandler12advanceCaretEh+0x84>
    1e1c:	08 c0       	rjmp	.+16     	; 0x1e2e <_ZN12SetupHandler12advanceCaretEh+0x62>
    1e1e:	19 30       	cpi	r17, 0x09	; 9
    1e20:	21 f0       	breq	.+8      	; 0x1e2a <_ZN12SetupHandler12advanceCaretEh+0x5e>
    1e22:	1d 30       	cpi	r17, 0x0D	; 13
    1e24:	21 f4       	brne	.+8      	; 0x1e2e <_ZN12SetupHandler12advanceCaretEh+0x62>
    1e26:	1b e0       	ldi	r17, 0x0B	; 11
    1e28:	1a c0       	rjmp	.+52     	; 0x1e5e <_ZN12SetupHandler12advanceCaretEh+0x92>
    1e2a:	17 e0       	ldi	r17, 0x07	; 7
    1e2c:	18 c0       	rjmp	.+48     	; 0x1e5e <_ZN12SetupHandler12advanceCaretEh+0x92>
    1e2e:	11 50       	subi	r17, 0x01	; 1
    1e30:	16 c0       	rjmp	.+44     	; 0x1e5e <_ZN12SetupHandler12advanceCaretEh+0x92>
    1e32:	01 30       	cpi	r16, 0x01	; 1
    1e34:	a1 f4       	brne	.+40     	; 0x1e5e <_ZN12SetupHandler12advanceCaretEh+0x92>
    1e36:	17 30       	cpi	r17, 0x07	; 7
    1e38:	89 f0       	breq	.+34     	; 0x1e5c <_ZN12SetupHandler12advanceCaretEh+0x90>
    1e3a:	20 f4       	brcc	.+8      	; 0x1e44 <_ZN12SetupHandler12advanceCaretEh+0x78>
    1e3c:	13 30       	cpi	r17, 0x03	; 3
    1e3e:	51 f4       	brne	.+20     	; 0x1e54 <_ZN12SetupHandler12advanceCaretEh+0x88>
    1e40:	15 e0       	ldi	r17, 0x05	; 5
    1e42:	0d c0       	rjmp	.+26     	; 0x1e5e <_ZN12SetupHandler12advanceCaretEh+0x92>
    1e44:	1b 30       	cpi	r17, 0x0B	; 11
    1e46:	21 f0       	breq	.+8      	; 0x1e50 <_ZN12SetupHandler12advanceCaretEh+0x84>
    1e48:	1d 30       	cpi	r17, 0x0D	; 13
    1e4a:	21 f4       	brne	.+8      	; 0x1e54 <_ZN12SetupHandler12advanceCaretEh+0x88>
    1e4c:	10 e0       	ldi	r17, 0x00	; 0
    1e4e:	07 c0       	rjmp	.+14     	; 0x1e5e <_ZN12SetupHandler12advanceCaretEh+0x92>
    1e50:	1d e0       	ldi	r17, 0x0D	; 13
    1e52:	05 c0       	rjmp	.+10     	; 0x1e5e <_ZN12SetupHandler12advanceCaretEh+0x92>
    1e54:	1f 5f       	subi	r17, 0xFF	; 255
    1e56:	03 c0       	rjmp	.+6      	; 0x1e5e <_ZN12SetupHandler12advanceCaretEh+0x92>
    1e58:	13 e0       	ldi	r17, 0x03	; 3
    1e5a:	01 c0       	rjmp	.+2      	; 0x1e5e <_ZN12SetupHandler12advanceCaretEh+0x92>
    1e5c:	19 e0       	ldi	r17, 0x09	; 9
    1e5e:	41 e0       	ldi	r20, 0x01	; 1
    1e60:	61 2f       	mov	r22, r17
    1e62:	ce 01       	movw	r24, r28
    1e64:	cd d9       	rcall	.-3174   	; 0x1200 <_ZN15IMessageHandler9moveCaretEhh>
    1e66:	67 ed       	ldi	r22, 0xD7	; 215
    1e68:	71 e0       	ldi	r23, 0x01	; 1
    1e6a:	8c e3       	ldi	r24, 0x3C	; 60
    1e6c:	94 e0       	ldi	r25, 0x04	; 4
    1e6e:	0e 94 5e 17 	call	0x2ebc	; 0x2ebc <_ZN5Print5printEPKc>
    1e72:	4a e0       	ldi	r20, 0x0A	; 10
    1e74:	50 e0       	ldi	r21, 0x00	; 0
    1e76:	61 2f       	mov	r22, r17
    1e78:	8c e3       	ldi	r24, 0x3C	; 60
    1e7a:	94 e0       	ldi	r25, 0x04	; 4
    1e7c:	0e 94 f8 17 	call	0x2ff0	; 0x2ff0 <_ZN5Print5printEhi>
    1e80:	8c e3       	ldi	r24, 0x3C	; 60
    1e82:	94 e0       	ldi	r25, 0x04	; 4
    1e84:	df 91       	pop	r29
    1e86:	cf 91       	pop	r28
    1e88:	1f 91       	pop	r17
    1e8a:	0f 91       	pop	r16
    1e8c:	0c 94 66 17 	jmp	0x2ecc	; 0x2ecc <_ZN5Print7printlnEv>

00001e90 <_ZN12SetupHandler19updateDriveAmountUIEi>:
    1e90:	bf 92       	push	r11
    1e92:	cf 92       	push	r12
    1e94:	df 92       	push	r13
    1e96:	ef 92       	push	r14
    1e98:	ff 92       	push	r15
    1e9a:	0f 93       	push	r16
    1e9c:	1f 93       	push	r17
    1e9e:	cf 93       	push	r28
    1ea0:	df 93       	push	r29
    1ea2:	ec 01       	movw	r28, r24
    1ea4:	ab 01       	movw	r20, r22
    1ea6:	66 27       	eor	r22, r22
    1ea8:	57 fd       	sbrc	r21, 7
    1eaa:	60 95       	com	r22
    1eac:	76 2f       	mov	r23, r22
    1eae:	ce 84       	ldd	r12, Y+14	; 0x0e
    1eb0:	df 84       	ldd	r13, Y+15	; 0x0f
    1eb2:	e8 88       	ldd	r14, Y+16	; 0x10
    1eb4:	f9 88       	ldd	r15, Y+17	; 0x11
    1eb6:	4c 0d       	add	r20, r12
    1eb8:	5d 1d       	adc	r21, r13
    1eba:	6e 1d       	adc	r22, r14
    1ebc:	7f 1d       	adc	r23, r15
    1ebe:	14 16       	cp	r1, r20
    1ec0:	15 06       	cpc	r1, r21
    1ec2:	16 06       	cpc	r1, r22
    1ec4:	17 06       	cpc	r1, r23
    1ec6:	24 f0       	brlt	.+8      	; 0x1ed0 <_ZN12SetupHandler19updateDriveAmountUIEi+0x40>
    1ec8:	41 e0       	ldi	r20, 0x01	; 1
    1eca:	50 e0       	ldi	r21, 0x00	; 0
    1ecc:	60 e0       	ldi	r22, 0x00	; 0
    1ece:	70 e0       	ldi	r23, 0x00	; 0
    1ed0:	4e 87       	std	Y+14, r20	; 0x0e
    1ed2:	5f 87       	std	Y+15, r21	; 0x0f
    1ed4:	68 8b       	std	Y+16, r22	; 0x10
    1ed6:	79 8b       	std	Y+17, r23	; 0x11
    1ed8:	4e 85       	ldd	r20, Y+14	; 0x0e
    1eda:	5f 85       	ldd	r21, Y+15	; 0x0f
    1edc:	68 89       	ldd	r22, Y+16	; 0x10
    1ede:	79 89       	ldd	r23, Y+17	; 0x11
    1ee0:	40 31       	cpi	r20, 0x10	; 16
    1ee2:	57 42       	sbci	r21, 0x27	; 39
    1ee4:	61 05       	cpc	r22, r1
    1ee6:	71 05       	cpc	r23, r1
    1ee8:	44 f0       	brlt	.+16     	; 0x1efa <_ZN12SetupHandler19updateDriveAmountUIEi+0x6a>
    1eea:	4f e0       	ldi	r20, 0x0F	; 15
    1eec:	57 e2       	ldi	r21, 0x27	; 39
    1eee:	60 e0       	ldi	r22, 0x00	; 0
    1ef0:	70 e0       	ldi	r23, 0x00	; 0
    1ef2:	4e 87       	std	Y+14, r20	; 0x0e
    1ef4:	5f 87       	std	Y+15, r21	; 0x0f
    1ef6:	68 8b       	std	Y+16, r22	; 0x10
    1ef8:	79 8b       	std	Y+17, r23	; 0x11
    1efa:	6e 85       	ldd	r22, Y+14	; 0x0e
    1efc:	7f 85       	ldd	r23, Y+15	; 0x0f
    1efe:	88 89       	ldd	r24, Y+16	; 0x10
    1f00:	99 89       	ldd	r25, Y+17	; 0x11
    1f02:	b1 2c       	mov	r11, r1
    1f04:	2a e0       	ldi	r18, 0x0A	; 10
    1f06:	c2 2e       	mov	r12, r18
    1f08:	d1 2c       	mov	r13, r1
    1f0a:	e1 2c       	mov	r14, r1
    1f0c:	f1 2c       	mov	r15, r1
    1f0e:	61 15       	cp	r22, r1
    1f10:	71 05       	cpc	r23, r1
    1f12:	81 05       	cpc	r24, r1
    1f14:	91 05       	cpc	r25, r1
    1f16:	41 f0       	breq	.+16     	; 0x1f28 <_ZN12SetupHandler19updateDriveAmountUIEi+0x98>
    1f18:	a7 01       	movw	r20, r14
    1f1a:	96 01       	movw	r18, r12
    1f1c:	0e 94 a4 2a 	call	0x5548	; 0x5548 <__udivmodsi4>
    1f20:	ca 01       	movw	r24, r20
    1f22:	b9 01       	movw	r22, r18
    1f24:	b3 94       	inc	r11
    1f26:	f3 cf       	rjmp	.-26     	; 0x1f0e <_ZN12SetupHandler19updateDriveAmountUIEi+0x7e>
    1f28:	41 e0       	ldi	r20, 0x01	; 1
    1f2a:	60 e0       	ldi	r22, 0x00	; 0
    1f2c:	80 91 0a 01 	lds	r24, 0x010A
    1f30:	90 91 0b 01 	lds	r25, 0x010B
    1f34:	0e 94 38 04 	call	0x870	; 0x870 <_ZN21Adafruit_RGBLCDShield9setCursorEhh>
    1f38:	f1 2c       	mov	r15, r1
    1f3a:	04 e0       	ldi	r16, 0x04	; 4
    1f3c:	10 e0       	ldi	r17, 0x00	; 0
    1f3e:	0b 19       	sub	r16, r11
    1f40:	11 09       	sbc	r17, r1
    1f42:	2f 2d       	mov	r18, r15
    1f44:	30 e0       	ldi	r19, 0x00	; 0
    1f46:	80 91 0a 01 	lds	r24, 0x010A
    1f4a:	90 91 0b 01 	lds	r25, 0x010B
    1f4e:	20 17       	cp	r18, r16
    1f50:	31 07       	cpc	r19, r17
    1f52:	2c f4       	brge	.+10     	; 0x1f5e <_ZN12SetupHandler19updateDriveAmountUIEi+0xce>
    1f54:	6c ee       	ldi	r22, 0xEC	; 236
    1f56:	70 e0       	ldi	r23, 0x00	; 0
    1f58:	90 d7       	rcall	.+3872   	; 0x2e7a <_ZN5Print5printEPK19__FlashStringHelper>
    1f5a:	f3 94       	inc	r15
    1f5c:	f2 cf       	rjmp	.-28     	; 0x1f42 <_ZN12SetupHandler19updateDriveAmountUIEi+0xb2>
    1f5e:	4e 85       	ldd	r20, Y+14	; 0x0e
    1f60:	5f 85       	ldd	r21, Y+15	; 0x0f
    1f62:	68 89       	ldd	r22, Y+16	; 0x10
    1f64:	79 89       	ldd	r23, Y+17	; 0x11
    1f66:	2a e0       	ldi	r18, 0x0A	; 10
    1f68:	30 e0       	ldi	r19, 0x00	; 0
    1f6a:	0e 94 15 18 	call	0x302a	; 0x302a <_ZN5Print5printEli>
    1f6e:	41 e0       	ldi	r20, 0x01	; 1
    1f70:	6c 85       	ldd	r22, Y+12	; 0x0c
    1f72:	80 91 0a 01 	lds	r24, 0x010A
    1f76:	90 91 0b 01 	lds	r25, 0x010B
    1f7a:	df 91       	pop	r29
    1f7c:	cf 91       	pop	r28
    1f7e:	1f 91       	pop	r17
    1f80:	0f 91       	pop	r16
    1f82:	ff 90       	pop	r15
    1f84:	ef 90       	pop	r14
    1f86:	df 90       	pop	r13
    1f88:	cf 90       	pop	r12
    1f8a:	bf 90       	pop	r11
    1f8c:	0c 94 38 04 	jmp	0x870	; 0x870 <_ZN21Adafruit_RGBLCDShield9setCursorEhh>

00001f90 <_ZN12SetupHandler14updateFramesUIEi>:
    1f90:	bf 92       	push	r11
    1f92:	cf 92       	push	r12
    1f94:	df 92       	push	r13
    1f96:	ef 92       	push	r14
    1f98:	ff 92       	push	r15
    1f9a:	0f 93       	push	r16
    1f9c:	1f 93       	push	r17
    1f9e:	cf 93       	push	r28
    1fa0:	df 93       	push	r29
    1fa2:	ec 01       	movw	r28, r24
    1fa4:	ab 01       	movw	r20, r22
    1fa6:	66 27       	eor	r22, r22
    1fa8:	57 fd       	sbrc	r21, 7
    1faa:	60 95       	com	r22
    1fac:	76 2f       	mov	r23, r22
    1fae:	ca 88       	ldd	r12, Y+18	; 0x12
    1fb0:	db 88       	ldd	r13, Y+19	; 0x13
    1fb2:	ec 88       	ldd	r14, Y+20	; 0x14
    1fb4:	fd 88       	ldd	r15, Y+21	; 0x15
    1fb6:	4c 0d       	add	r20, r12
    1fb8:	5d 1d       	adc	r21, r13
    1fba:	6e 1d       	adc	r22, r14
    1fbc:	7f 1d       	adc	r23, r15
    1fbe:	14 16       	cp	r1, r20
    1fc0:	15 06       	cpc	r1, r21
    1fc2:	16 06       	cpc	r1, r22
    1fc4:	17 06       	cpc	r1, r23
    1fc6:	24 f0       	brlt	.+8      	; 0x1fd0 <_ZN12SetupHandler14updateFramesUIEi+0x40>
    1fc8:	41 e0       	ldi	r20, 0x01	; 1
    1fca:	50 e0       	ldi	r21, 0x00	; 0
    1fcc:	60 e0       	ldi	r22, 0x00	; 0
    1fce:	70 e0       	ldi	r23, 0x00	; 0
    1fd0:	4a 8b       	std	Y+18, r20	; 0x12
    1fd2:	5b 8b       	std	Y+19, r21	; 0x13
    1fd4:	6c 8b       	std	Y+20, r22	; 0x14
    1fd6:	7d 8b       	std	Y+21, r23	; 0x15
    1fd8:	4a 89       	ldd	r20, Y+18	; 0x12
    1fda:	5b 89       	ldd	r21, Y+19	; 0x13
    1fdc:	6c 89       	ldd	r22, Y+20	; 0x14
    1fde:	7d 89       	ldd	r23, Y+21	; 0x15
    1fe0:	48 3e       	cpi	r20, 0xE8	; 232
    1fe2:	53 40       	sbci	r21, 0x03	; 3
    1fe4:	61 05       	cpc	r22, r1
    1fe6:	71 05       	cpc	r23, r1
    1fe8:	44 f0       	brlt	.+16     	; 0x1ffa <_ZN12SetupHandler14updateFramesUIEi+0x6a>
    1fea:	47 ee       	ldi	r20, 0xE7	; 231
    1fec:	53 e0       	ldi	r21, 0x03	; 3
    1fee:	60 e0       	ldi	r22, 0x00	; 0
    1ff0:	70 e0       	ldi	r23, 0x00	; 0
    1ff2:	4a 8b       	std	Y+18, r20	; 0x12
    1ff4:	5b 8b       	std	Y+19, r21	; 0x13
    1ff6:	6c 8b       	std	Y+20, r22	; 0x14
    1ff8:	7d 8b       	std	Y+21, r23	; 0x15
    1ffa:	6a 89       	ldd	r22, Y+18	; 0x12
    1ffc:	7b 89       	ldd	r23, Y+19	; 0x13
    1ffe:	8c 89       	ldd	r24, Y+20	; 0x14
    2000:	9d 89       	ldd	r25, Y+21	; 0x15
    2002:	b1 2c       	mov	r11, r1
    2004:	3a e0       	ldi	r19, 0x0A	; 10
    2006:	c3 2e       	mov	r12, r19
    2008:	d1 2c       	mov	r13, r1
    200a:	e1 2c       	mov	r14, r1
    200c:	f1 2c       	mov	r15, r1
    200e:	61 15       	cp	r22, r1
    2010:	71 05       	cpc	r23, r1
    2012:	81 05       	cpc	r24, r1
    2014:	91 05       	cpc	r25, r1
    2016:	41 f0       	breq	.+16     	; 0x2028 <_ZN12SetupHandler14updateFramesUIEi+0x98>
    2018:	a7 01       	movw	r20, r14
    201a:	96 01       	movw	r18, r12
    201c:	0e 94 a4 2a 	call	0x5548	; 0x5548 <__udivmodsi4>
    2020:	ca 01       	movw	r24, r20
    2022:	b9 01       	movw	r22, r18
    2024:	b3 94       	inc	r11
    2026:	f3 cf       	rjmp	.-26     	; 0x200e <_ZN12SetupHandler14updateFramesUIEi+0x7e>
    2028:	41 e0       	ldi	r20, 0x01	; 1
    202a:	65 e0       	ldi	r22, 0x05	; 5
    202c:	80 91 0a 01 	lds	r24, 0x010A
    2030:	90 91 0b 01 	lds	r25, 0x010B
    2034:	0e 94 38 04 	call	0x870	; 0x870 <_ZN21Adafruit_RGBLCDShield9setCursorEhh>
    2038:	f1 2c       	mov	r15, r1
    203a:	03 e0       	ldi	r16, 0x03	; 3
    203c:	10 e0       	ldi	r17, 0x00	; 0
    203e:	0b 19       	sub	r16, r11
    2040:	11 09       	sbc	r17, r1
    2042:	2f 2d       	mov	r18, r15
    2044:	30 e0       	ldi	r19, 0x00	; 0
    2046:	80 91 0a 01 	lds	r24, 0x010A
    204a:	90 91 0b 01 	lds	r25, 0x010B
    204e:	20 17       	cp	r18, r16
    2050:	31 07       	cpc	r19, r17
    2052:	2c f4       	brge	.+10     	; 0x205e <_ZN12SetupHandler14updateFramesUIEi+0xce>
    2054:	6a ee       	ldi	r22, 0xEA	; 234
    2056:	70 e0       	ldi	r23, 0x00	; 0
    2058:	10 d7       	rcall	.+3616   	; 0x2e7a <_ZN5Print5printEPK19__FlashStringHelper>
    205a:	f3 94       	inc	r15
    205c:	f2 cf       	rjmp	.-28     	; 0x2042 <_ZN12SetupHandler14updateFramesUIEi+0xb2>
    205e:	4a 89       	ldd	r20, Y+18	; 0x12
    2060:	5b 89       	ldd	r21, Y+19	; 0x13
    2062:	6c 89       	ldd	r22, Y+20	; 0x14
    2064:	7d 89       	ldd	r23, Y+21	; 0x15
    2066:	2a e0       	ldi	r18, 0x0A	; 10
    2068:	30 e0       	ldi	r19, 0x00	; 0
    206a:	df d7       	rcall	.+4030   	; 0x302a <_ZN5Print5printEli>
    206c:	41 e0       	ldi	r20, 0x01	; 1
    206e:	6c 85       	ldd	r22, Y+12	; 0x0c
    2070:	80 91 0a 01 	lds	r24, 0x010A
    2074:	90 91 0b 01 	lds	r25, 0x010B
    2078:	df 91       	pop	r29
    207a:	cf 91       	pop	r28
    207c:	1f 91       	pop	r17
    207e:	0f 91       	pop	r16
    2080:	ff 90       	pop	r15
    2082:	ef 90       	pop	r14
    2084:	df 90       	pop	r13
    2086:	cf 90       	pop	r12
    2088:	bf 90       	pop	r11
    208a:	0c 94 38 04 	jmp	0x870	; 0x870 <_ZN21Adafruit_RGBLCDShield9setCursorEhh>

0000208e <_ZN12SetupHandler18updateFrameDelayUIEi>:
    208e:	bf 92       	push	r11
    2090:	cf 92       	push	r12
    2092:	df 92       	push	r13
    2094:	ef 92       	push	r14
    2096:	ff 92       	push	r15
    2098:	0f 93       	push	r16
    209a:	1f 93       	push	r17
    209c:	cf 93       	push	r28
    209e:	df 93       	push	r29
    20a0:	ec 01       	movw	r28, r24
    20a2:	ab 01       	movw	r20, r22
    20a4:	66 27       	eor	r22, r22
    20a6:	57 fd       	sbrc	r21, 7
    20a8:	60 95       	com	r22
    20aa:	76 2f       	mov	r23, r22
    20ac:	ce 88       	ldd	r12, Y+22	; 0x16
    20ae:	df 88       	ldd	r13, Y+23	; 0x17
    20b0:	e8 8c       	ldd	r14, Y+24	; 0x18
    20b2:	f9 8c       	ldd	r15, Y+25	; 0x19
    20b4:	4c 0d       	add	r20, r12
    20b6:	5d 1d       	adc	r21, r13
    20b8:	6e 1d       	adc	r22, r14
    20ba:	7f 1d       	adc	r23, r15
    20bc:	77 fd       	sbrc	r23, 7
    20be:	05 c0       	rjmp	.+10     	; 0x20ca <_ZN12SetupHandler18updateFrameDelayUIEi+0x3c>
    20c0:	4e 8b       	std	Y+22, r20	; 0x16
    20c2:	5f 8b       	std	Y+23, r21	; 0x17
    20c4:	68 8f       	std	Y+24, r22	; 0x18
    20c6:	79 8f       	std	Y+25, r23	; 0x19
    20c8:	04 c0       	rjmp	.+8      	; 0x20d2 <_ZN12SetupHandler18updateFrameDelayUIEi+0x44>
    20ca:	1e 8a       	std	Y+22, r1	; 0x16
    20cc:	1f 8a       	std	Y+23, r1	; 0x17
    20ce:	18 8e       	std	Y+24, r1	; 0x18
    20d0:	19 8e       	std	Y+25, r1	; 0x19
    20d2:	4e 89       	ldd	r20, Y+22	; 0x16
    20d4:	5f 89       	ldd	r21, Y+23	; 0x17
    20d6:	68 8d       	ldd	r22, Y+24	; 0x18
    20d8:	79 8d       	ldd	r23, Y+25	; 0x19
    20da:	48 3e       	cpi	r20, 0xE8	; 232
    20dc:	53 40       	sbci	r21, 0x03	; 3
    20de:	61 05       	cpc	r22, r1
    20e0:	71 05       	cpc	r23, r1
    20e2:	44 f0       	brlt	.+16     	; 0x20f4 <_ZN12SetupHandler18updateFrameDelayUIEi+0x66>
    20e4:	47 ee       	ldi	r20, 0xE7	; 231
    20e6:	53 e0       	ldi	r21, 0x03	; 3
    20e8:	60 e0       	ldi	r22, 0x00	; 0
    20ea:	70 e0       	ldi	r23, 0x00	; 0
    20ec:	4e 8b       	std	Y+22, r20	; 0x16
    20ee:	5f 8b       	std	Y+23, r21	; 0x17
    20f0:	68 8f       	std	Y+24, r22	; 0x18
    20f2:	79 8f       	std	Y+25, r23	; 0x19
    20f4:	6e 89       	ldd	r22, Y+22	; 0x16
    20f6:	7f 89       	ldd	r23, Y+23	; 0x17
    20f8:	88 8d       	ldd	r24, Y+24	; 0x18
    20fa:	99 8d       	ldd	r25, Y+25	; 0x19
    20fc:	b1 2c       	mov	r11, r1
    20fe:	4a e0       	ldi	r20, 0x0A	; 10
    2100:	c4 2e       	mov	r12, r20
    2102:	d1 2c       	mov	r13, r1
    2104:	e1 2c       	mov	r14, r1
    2106:	f1 2c       	mov	r15, r1
    2108:	61 15       	cp	r22, r1
    210a:	71 05       	cpc	r23, r1
    210c:	81 05       	cpc	r24, r1
    210e:	91 05       	cpc	r25, r1
    2110:	41 f0       	breq	.+16     	; 0x2122 <_ZN12SetupHandler18updateFrameDelayUIEi+0x94>
    2112:	a7 01       	movw	r20, r14
    2114:	96 01       	movw	r18, r12
    2116:	0e 94 a4 2a 	call	0x5548	; 0x5548 <__udivmodsi4>
    211a:	ca 01       	movw	r24, r20
    211c:	b9 01       	movw	r22, r18
    211e:	b3 94       	inc	r11
    2120:	f3 cf       	rjmp	.-26     	; 0x2108 <_ZN12SetupHandler18updateFrameDelayUIEi+0x7a>
    2122:	41 e0       	ldi	r20, 0x01	; 1
    2124:	69 e0       	ldi	r22, 0x09	; 9
    2126:	80 91 0a 01 	lds	r24, 0x010A
    212a:	90 91 0b 01 	lds	r25, 0x010B
    212e:	0e 94 38 04 	call	0x870	; 0x870 <_ZN21Adafruit_RGBLCDShield9setCursorEhh>
    2132:	f1 2c       	mov	r15, r1
    2134:	03 e0       	ldi	r16, 0x03	; 3
    2136:	10 e0       	ldi	r17, 0x00	; 0
    2138:	0b 19       	sub	r16, r11
    213a:	11 09       	sbc	r17, r1
    213c:	2f 2d       	mov	r18, r15
    213e:	30 e0       	ldi	r19, 0x00	; 0
    2140:	80 91 0a 01 	lds	r24, 0x010A
    2144:	90 91 0b 01 	lds	r25, 0x010B
    2148:	20 17       	cp	r18, r16
    214a:	31 07       	cpc	r19, r17
    214c:	2c f4       	brge	.+10     	; 0x2158 <_ZN12SetupHandler18updateFrameDelayUIEi+0xca>
    214e:	68 ee       	ldi	r22, 0xE8	; 232
    2150:	70 e0       	ldi	r23, 0x00	; 0
    2152:	93 d6       	rcall	.+3366   	; 0x2e7a <_ZN5Print5printEPK19__FlashStringHelper>
    2154:	f3 94       	inc	r15
    2156:	f2 cf       	rjmp	.-28     	; 0x213c <_ZN12SetupHandler18updateFrameDelayUIEi+0xae>
    2158:	4e 89       	ldd	r20, Y+22	; 0x16
    215a:	5f 89       	ldd	r21, Y+23	; 0x17
    215c:	68 8d       	ldd	r22, Y+24	; 0x18
    215e:	79 8d       	ldd	r23, Y+25	; 0x19
    2160:	41 15       	cp	r20, r1
    2162:	51 05       	cpc	r21, r1
    2164:	61 05       	cpc	r22, r1
    2166:	71 05       	cpc	r23, r1
    2168:	19 f0       	breq	.+6      	; 0x2170 <_ZN12SetupHandler18updateFrameDelayUIEi+0xe2>
    216a:	2a e0       	ldi	r18, 0x0A	; 10
    216c:	30 e0       	ldi	r19, 0x00	; 0
    216e:	5d d7       	rcall	.+3770   	; 0x302a <_ZN5Print5printEli>
    2170:	41 e0       	ldi	r20, 0x01	; 1
    2172:	6c 85       	ldd	r22, Y+12	; 0x0c
    2174:	80 91 0a 01 	lds	r24, 0x010A
    2178:	90 91 0b 01 	lds	r25, 0x010B
    217c:	df 91       	pop	r29
    217e:	cf 91       	pop	r28
    2180:	1f 91       	pop	r17
    2182:	0f 91       	pop	r16
    2184:	ff 90       	pop	r15
    2186:	ef 90       	pop	r14
    2188:	df 90       	pop	r13
    218a:	cf 90       	pop	r12
    218c:	bf 90       	pop	r11
    218e:	0c 94 38 04 	jmp	0x870	; 0x870 <_ZN21Adafruit_RGBLCDShield9setCursorEhh>

00002192 <_ZN12SetupHandler20updateRestoreFocusUIEi>:
    2192:	0f 93       	push	r16
    2194:	1f 93       	push	r17
    2196:	cf 93       	push	r28
    2198:	df 93       	push	r29
    219a:	ec 01       	movw	r28, r24
    219c:	8b 01       	movw	r16, r22
    219e:	41 e0       	ldi	r20, 0x01	; 1
    21a0:	6d e0       	ldi	r22, 0x0D	; 13
    21a2:	80 91 0a 01 	lds	r24, 0x010A
    21a6:	90 91 0b 01 	lds	r25, 0x010B
    21aa:	0e 94 38 04 	call	0x870	; 0x870 <_ZN21Adafruit_RGBLCDShield9setCursorEhh>
    21ae:	64 ee       	ldi	r22, 0xE4	; 228
    21b0:	70 e0       	ldi	r23, 0x00	; 0
    21b2:	80 91 0a 01 	lds	r24, 0x010A
    21b6:	90 91 0b 01 	lds	r25, 0x010B
    21ba:	5f d6       	rcall	.+3262   	; 0x2e7a <_ZN5Print5printEPK19__FlashStringHelper>
    21bc:	41 e0       	ldi	r20, 0x01	; 1
    21be:	6d e0       	ldi	r22, 0x0D	; 13
    21c0:	80 91 0a 01 	lds	r24, 0x010A
    21c4:	90 91 0b 01 	lds	r25, 0x010B
    21c8:	0e 94 38 04 	call	0x870	; 0x870 <_ZN21Adafruit_RGBLCDShield9setCursorEhh>
    21cc:	01 2b       	or	r16, r17
    21ce:	21 f0       	breq	.+8      	; 0x21d8 <_ZN12SetupHandler20updateRestoreFocusUIEi+0x46>
    21d0:	8a 8d       	ldd	r24, Y+26	; 0x1a
    21d2:	91 e0       	ldi	r25, 0x01	; 1
    21d4:	89 27       	eor	r24, r25
    21d6:	8a 8f       	std	Y+26, r24	; 0x1a
    21d8:	8a 8d       	ldd	r24, Y+26	; 0x1a
    21da:	88 23       	and	r24, r24
    21dc:	19 f0       	breq	.+6      	; 0x21e4 <_ZN12SetupHandler20updateRestoreFocusUIEi+0x52>
    21de:	60 ee       	ldi	r22, 0xE0	; 224
    21e0:	70 e0       	ldi	r23, 0x00	; 0
    21e2:	02 c0       	rjmp	.+4      	; 0x21e8 <_ZN12SetupHandler20updateRestoreFocusUIEi+0x56>
    21e4:	6d ed       	ldi	r22, 0xDD	; 221
    21e6:	70 e0       	ldi	r23, 0x00	; 0
    21e8:	80 91 0a 01 	lds	r24, 0x010A
    21ec:	90 91 0b 01 	lds	r25, 0x010B
    21f0:	44 d6       	rcall	.+3208   	; 0x2e7a <_ZN5Print5printEPK19__FlashStringHelper>
    21f2:	41 e0       	ldi	r20, 0x01	; 1
    21f4:	6c 85       	ldd	r22, Y+12	; 0x0c
    21f6:	80 91 0a 01 	lds	r24, 0x010A
    21fa:	90 91 0b 01 	lds	r25, 0x010B
    21fe:	df 91       	pop	r29
    2200:	cf 91       	pop	r28
    2202:	1f 91       	pop	r17
    2204:	0f 91       	pop	r16
    2206:	0c 94 38 04 	jmp	0x870	; 0x870 <_ZN21Adafruit_RGBLCDShield9setCursorEhh>

0000220a <_ZN12SetupHandler14processMessageER3Msg>:
    220a:	cf 92       	push	r12
    220c:	df 92       	push	r13
    220e:	ef 92       	push	r14
    2210:	ff 92       	push	r15
    2212:	0f 93       	push	r16
    2214:	1f 93       	push	r17
    2216:	cf 93       	push	r28
    2218:	df 93       	push	r29
    221a:	ec 01       	movw	r28, r24
    221c:	8b 01       	movw	r16, r22
    221e:	fb 01       	movw	r30, r22
    2220:	80 81       	ld	r24, Z
    2222:	91 81       	ldd	r25, Z+1	; 0x01
    2224:	89 2b       	or	r24, r25
    2226:	09 f0       	breq	.+2      	; 0x222a <_ZN12SetupHandler14processMessageER3Msg+0x20>
    2228:	db c0       	rjmp	.+438    	; 0x23e0 <_ZN12SetupHandler14processMessageER3Msg+0x1d6>
    222a:	4c 85       	ldd	r20, Y+12	; 0x0c
    222c:	82 81       	ldd	r24, Z+2	; 0x02
    222e:	82 30       	cpi	r24, 0x02	; 2
    2230:	09 f4       	brne	.+2      	; 0x2234 <_ZN12SetupHandler14processMessageER3Msg+0x2a>
    2232:	43 c0       	rjmp	.+134    	; 0x22ba <_ZN12SetupHandler14processMessageER3Msg+0xb0>
    2234:	40 f4       	brcc	.+16     	; 0x2246 <_ZN12SetupHandler14processMessageER3Msg+0x3c>
    2236:	88 23       	and	r24, r24
    2238:	09 f4       	brne	.+2      	; 0x223c <_ZN12SetupHandler14processMessageER3Msg+0x32>
    223a:	7d c0       	rjmp	.+250    	; 0x2336 <_ZN12SetupHandler14processMessageER3Msg+0x12c>
    223c:	81 30       	cpi	r24, 0x01	; 1
    223e:	09 f0       	breq	.+2      	; 0x2242 <_ZN12SetupHandler14processMessageER3Msg+0x38>
    2240:	cf c0       	rjmp	.+414    	; 0x23e0 <_ZN12SetupHandler14processMessageER3Msg+0x1d6>
    2242:	61 e0       	ldi	r22, 0x01	; 1
    2244:	79 c0       	rjmp	.+242    	; 0x2338 <_ZN12SetupHandler14processMessageER3Msg+0x12e>
    2246:	83 30       	cpi	r24, 0x03	; 3
    2248:	21 f0       	breq	.+8      	; 0x2252 <_ZN12SetupHandler14processMessageER3Msg+0x48>
    224a:	84 30       	cpi	r24, 0x04	; 4
    224c:	09 f4       	brne	.+2      	; 0x2250 <_ZN12SetupHandler14processMessageER3Msg+0x46>
    224e:	77 c0       	rjmp	.+238    	; 0x233e <_ZN12SetupHandler14processMessageER3Msg+0x134>
    2250:	c7 c0       	rjmp	.+398    	; 0x23e0 <_ZN12SetupHandler14processMessageER3Msg+0x1d6>
    2252:	44 30       	cpi	r20, 0x04	; 4
    2254:	58 f4       	brcc	.+22     	; 0x226c <_ZN12SetupHandler14processMessageER3Msg+0x62>
    2256:	68 e1       	ldi	r22, 0x18	; 24
    2258:	7c ef       	ldi	r23, 0xFC	; 252
    225a:	2a e0       	ldi	r18, 0x0A	; 10
    225c:	30 e0       	ldi	r19, 0x00	; 0
    225e:	41 50       	subi	r20, 0x01	; 1
    2260:	c8 f1       	brcs	.+114    	; 0x22d4 <_ZN12SetupHandler14processMessageER3Msg+0xca>
    2262:	cb 01       	movw	r24, r22
    2264:	b9 01       	movw	r22, r18
    2266:	0e 94 91 2a 	call	0x5522	; 0x5522 <__divmodhi4>
    226a:	f9 cf       	rjmp	.-14     	; 0x225e <_ZN12SetupHandler14processMessageER3Msg+0x54>
    226c:	8b ef       	ldi	r24, 0xFB	; 251
    226e:	84 0f       	add	r24, r20
    2270:	83 30       	cpi	r24, 0x03	; 3
    2272:	60 f4       	brcc	.+24     	; 0x228c <_ZN12SetupHandler14processMessageER3Msg+0x82>
    2274:	6c e9       	ldi	r22, 0x9C	; 156
    2276:	7f ef       	ldi	r23, 0xFF	; 255
    2278:	2a e0       	ldi	r18, 0x0A	; 10
    227a:	30 e0       	ldi	r19, 0x00	; 0
    227c:	41 50       	subi	r20, 0x01	; 1
    227e:	44 30       	cpi	r20, 0x04	; 4
    2280:	e1 f1       	breq	.+120    	; 0x22fa <_ZN12SetupHandler14processMessageER3Msg+0xf0>
    2282:	cb 01       	movw	r24, r22
    2284:	b9 01       	movw	r22, r18
    2286:	0e 94 91 2a 	call	0x5522	; 0x5522 <__divmodhi4>
    228a:	f8 cf       	rjmp	.-16     	; 0x227c <_ZN12SetupHandler14processMessageER3Msg+0x72>
    228c:	87 ef       	ldi	r24, 0xF7	; 247
    228e:	84 0f       	add	r24, r20
    2290:	83 30       	cpi	r24, 0x03	; 3
    2292:	68 f4       	brcc	.+26     	; 0x22ae <_ZN12SetupHandler14processMessageER3Msg+0xa4>
    2294:	6c e9       	ldi	r22, 0x9C	; 156
    2296:	7f ef       	ldi	r23, 0xFF	; 255
    2298:	2a e0       	ldi	r18, 0x0A	; 10
    229a:	30 e0       	ldi	r19, 0x00	; 0
    229c:	41 50       	subi	r20, 0x01	; 1
    229e:	48 30       	cpi	r20, 0x08	; 8
    22a0:	09 f4       	brne	.+2      	; 0x22a4 <_ZN12SetupHandler14processMessageER3Msg+0x9a>
    22a2:	3e c0       	rjmp	.+124    	; 0x2320 <_ZN12SetupHandler14processMessageER3Msg+0x116>
    22a4:	cb 01       	movw	r24, r22
    22a6:	b9 01       	movw	r22, r18
    22a8:	0e 94 91 2a 	call	0x5522	; 0x5522 <__divmodhi4>
    22ac:	f7 cf       	rjmp	.-18     	; 0x229c <_ZN12SetupHandler14processMessageER3Msg+0x92>
    22ae:	4d 30       	cpi	r20, 0x0D	; 13
    22b0:	09 f0       	breq	.+2      	; 0x22b4 <_ZN12SetupHandler14processMessageER3Msg+0xaa>
    22b2:	96 c0       	rjmp	.+300    	; 0x23e0 <_ZN12SetupHandler14processMessageER3Msg+0x1d6>
    22b4:	6f ef       	ldi	r22, 0xFF	; 255
    22b6:	7f ef       	ldi	r23, 0xFF	; 255
    22b8:	3b c0       	rjmp	.+118    	; 0x2330 <_ZN12SetupHandler14processMessageER3Msg+0x126>
    22ba:	44 30       	cpi	r20, 0x04	; 4
    22bc:	70 f4       	brcc	.+28     	; 0x22da <_ZN12SetupHandler14processMessageER3Msg+0xd0>
    22be:	68 ee       	ldi	r22, 0xE8	; 232
    22c0:	73 e0       	ldi	r23, 0x03	; 3
    22c2:	2a e0       	ldi	r18, 0x0A	; 10
    22c4:	30 e0       	ldi	r19, 0x00	; 0
    22c6:	41 50       	subi	r20, 0x01	; 1
    22c8:	28 f0       	brcs	.+10     	; 0x22d4 <_ZN12SetupHandler14processMessageER3Msg+0xca>
    22ca:	cb 01       	movw	r24, r22
    22cc:	b9 01       	movw	r22, r18
    22ce:	0e 94 91 2a 	call	0x5522	; 0x5522 <__divmodhi4>
    22d2:	f9 cf       	rjmp	.-14     	; 0x22c6 <_ZN12SetupHandler14processMessageER3Msg+0xbc>
    22d4:	ce 01       	movw	r24, r28
    22d6:	dc dd       	rcall	.-1096   	; 0x1e90 <_ZN12SetupHandler19updateDriveAmountUIEi>
    22d8:	83 c0       	rjmp	.+262    	; 0x23e0 <_ZN12SetupHandler14processMessageER3Msg+0x1d6>
    22da:	8b ef       	ldi	r24, 0xFB	; 251
    22dc:	84 0f       	add	r24, r20
    22de:	83 30       	cpi	r24, 0x03	; 3
    22e0:	78 f4       	brcc	.+30     	; 0x2300 <_ZN12SetupHandler14processMessageER3Msg+0xf6>
    22e2:	64 e6       	ldi	r22, 0x64	; 100
    22e4:	70 e0       	ldi	r23, 0x00	; 0
    22e6:	2a e0       	ldi	r18, 0x0A	; 10
    22e8:	30 e0       	ldi	r19, 0x00	; 0
    22ea:	41 50       	subi	r20, 0x01	; 1
    22ec:	44 30       	cpi	r20, 0x04	; 4
    22ee:	29 f0       	breq	.+10     	; 0x22fa <_ZN12SetupHandler14processMessageER3Msg+0xf0>
    22f0:	cb 01       	movw	r24, r22
    22f2:	b9 01       	movw	r22, r18
    22f4:	0e 94 91 2a 	call	0x5522	; 0x5522 <__divmodhi4>
    22f8:	f8 cf       	rjmp	.-16     	; 0x22ea <_ZN12SetupHandler14processMessageER3Msg+0xe0>
    22fa:	ce 01       	movw	r24, r28
    22fc:	49 de       	rcall	.-878    	; 0x1f90 <_ZN12SetupHandler14updateFramesUIEi>
    22fe:	70 c0       	rjmp	.+224    	; 0x23e0 <_ZN12SetupHandler14processMessageER3Msg+0x1d6>
    2300:	87 ef       	ldi	r24, 0xF7	; 247
    2302:	84 0f       	add	r24, r20
    2304:	83 30       	cpi	r24, 0x03	; 3
    2306:	78 f4       	brcc	.+30     	; 0x2326 <_ZN12SetupHandler14processMessageER3Msg+0x11c>
    2308:	64 e6       	ldi	r22, 0x64	; 100
    230a:	70 e0       	ldi	r23, 0x00	; 0
    230c:	2a e0       	ldi	r18, 0x0A	; 10
    230e:	30 e0       	ldi	r19, 0x00	; 0
    2310:	41 50       	subi	r20, 0x01	; 1
    2312:	48 30       	cpi	r20, 0x08	; 8
    2314:	29 f0       	breq	.+10     	; 0x2320 <_ZN12SetupHandler14processMessageER3Msg+0x116>
    2316:	cb 01       	movw	r24, r22
    2318:	b9 01       	movw	r22, r18
    231a:	0e 94 91 2a 	call	0x5522	; 0x5522 <__divmodhi4>
    231e:	f8 cf       	rjmp	.-16     	; 0x2310 <_ZN12SetupHandler14processMessageER3Msg+0x106>
    2320:	ce 01       	movw	r24, r28
    2322:	b5 de       	rcall	.-662    	; 0x208e <_ZN12SetupHandler18updateFrameDelayUIEi>
    2324:	5d c0       	rjmp	.+186    	; 0x23e0 <_ZN12SetupHandler14processMessageER3Msg+0x1d6>
    2326:	4d 30       	cpi	r20, 0x0D	; 13
    2328:	09 f0       	breq	.+2      	; 0x232c <_ZN12SetupHandler14processMessageER3Msg+0x122>
    232a:	5a c0       	rjmp	.+180    	; 0x23e0 <_ZN12SetupHandler14processMessageER3Msg+0x1d6>
    232c:	61 e0       	ldi	r22, 0x01	; 1
    232e:	70 e0       	ldi	r23, 0x00	; 0
    2330:	ce 01       	movw	r24, r28
    2332:	2f df       	rcall	.-418    	; 0x2192 <_ZN12SetupHandler20updateRestoreFocusUIEi>
    2334:	55 c0       	rjmp	.+170    	; 0x23e0 <_ZN12SetupHandler14processMessageER3Msg+0x1d6>
    2336:	6f ef       	ldi	r22, 0xFF	; 255
    2338:	ce 01       	movw	r24, r28
    233a:	48 dd       	rcall	.-1392   	; 0x1dcc <_ZN12SetupHandler12advanceCaretEh>
    233c:	51 c0       	rjmp	.+162    	; 0x23e0 <_ZN12SetupHandler14processMessageER3Msg+0x1d6>
    233e:	84 e0       	ldi	r24, 0x04	; 4
    2340:	90 e0       	ldi	r25, 0x00	; 0
    2342:	0e 94 0a 2b 	call	0x5614	; 0x5614 <__eerd_word_m328p>
    2346:	6c 01       	movw	r12, r24
    2348:	6e 85       	ldd	r22, Y+14	; 0x0e
    234a:	7f 85       	ldd	r23, Y+15	; 0x0f
    234c:	88 89       	ldd	r24, Y+16	; 0x10
    234e:	99 89       	ldd	r25, Y+17	; 0x11
    2350:	e1 2c       	mov	r14, r1
    2352:	f1 2c       	mov	r15, r1
    2354:	c6 16       	cp	r12, r22
    2356:	d7 06       	cpc	r13, r23
    2358:	e8 06       	cpc	r14, r24
    235a:	f9 06       	cpc	r15, r25
    235c:	21 f0       	breq	.+8      	; 0x2366 <_ZN12SetupHandler14processMessageER3Msg+0x15c>
    235e:	84 e0       	ldi	r24, 0x04	; 4
    2360:	90 e0       	ldi	r25, 0x00	; 0
    2362:	0e 94 1d 2b 	call	0x563a	; 0x563a <__eewr_word_m328p>
    2366:	82 e0       	ldi	r24, 0x02	; 2
    2368:	90 e0       	ldi	r25, 0x00	; 0
    236a:	0e 94 0a 2b 	call	0x5614	; 0x5614 <__eerd_word_m328p>
    236e:	6c 01       	movw	r12, r24
    2370:	6e 89       	ldd	r22, Y+22	; 0x16
    2372:	7f 89       	ldd	r23, Y+23	; 0x17
    2374:	88 8d       	ldd	r24, Y+24	; 0x18
    2376:	99 8d       	ldd	r25, Y+25	; 0x19
    2378:	e1 2c       	mov	r14, r1
    237a:	f1 2c       	mov	r15, r1
    237c:	c6 16       	cp	r12, r22
    237e:	d7 06       	cpc	r13, r23
    2380:	e8 06       	cpc	r14, r24
    2382:	f9 06       	cpc	r15, r25
    2384:	21 f0       	breq	.+8      	; 0x238e <_ZN12SetupHandler14processMessageER3Msg+0x184>
    2386:	82 e0       	ldi	r24, 0x02	; 2
    2388:	90 e0       	ldi	r25, 0x00	; 0
    238a:	0e 94 1d 2b 	call	0x563a	; 0x563a <__eewr_word_m328p>
    238e:	81 e0       	ldi	r24, 0x01	; 1
    2390:	90 e0       	ldi	r25, 0x00	; 0
    2392:	0e 94 02 2b 	call	0x5604	; 0x5604 <__eerd_byte_m328p>
    2396:	c8 2e       	mov	r12, r24
    2398:	6a 89       	ldd	r22, Y+18	; 0x12
    239a:	7b 89       	ldd	r23, Y+19	; 0x13
    239c:	8c 89       	ldd	r24, Y+20	; 0x14
    239e:	9d 89       	ldd	r25, Y+21	; 0x15
    23a0:	d1 2c       	mov	r13, r1
    23a2:	e1 2c       	mov	r14, r1
    23a4:	f1 2c       	mov	r15, r1
    23a6:	c6 16       	cp	r12, r22
    23a8:	d7 06       	cpc	r13, r23
    23aa:	e8 06       	cpc	r14, r24
    23ac:	f9 06       	cpc	r15, r25
    23ae:	21 f0       	breq	.+8      	; 0x23b8 <_ZN12SetupHandler14processMessageER3Msg+0x1ae>
    23b0:	81 e0       	ldi	r24, 0x01	; 1
    23b2:	90 e0       	ldi	r25, 0x00	; 0
    23b4:	0e 94 0f 2b 	call	0x561e	; 0x561e <__eewr_byte_m328p>
    23b8:	80 e0       	ldi	r24, 0x00	; 0
    23ba:	90 e0       	ldi	r25, 0x00	; 0
    23bc:	0e 94 02 2b 	call	0x5604	; 0x5604 <__eerd_byte_m328p>
    23c0:	6a 8d       	ldd	r22, Y+26	; 0x1a
    23c2:	86 17       	cp	r24, r22
    23c4:	21 f0       	breq	.+8      	; 0x23ce <_ZN12SetupHandler14processMessageER3Msg+0x1c4>
    23c6:	80 e0       	ldi	r24, 0x00	; 0
    23c8:	90 e0       	ldi	r25, 0x00	; 0
    23ca:	0e 94 0f 2b 	call	0x561e	; 0x561e <__eewr_byte_m328p>
    23ce:	80 91 14 01 	lds	r24, 0x0114
    23d2:	90 91 15 01 	lds	r25, 0x0115
    23d6:	f8 01       	movw	r30, r16
    23d8:	94 83       	std	Z+4, r25	; 0x04
    23da:	83 83       	std	Z+3, r24	; 0x03
    23dc:	80 e0       	ldi	r24, 0x00	; 0
    23de:	01 c0       	rjmp	.+2      	; 0x23e2 <_ZN12SetupHandler14processMessageER3Msg+0x1d8>
    23e0:	81 e0       	ldi	r24, 0x01	; 1
    23e2:	df 91       	pop	r29
    23e4:	cf 91       	pop	r28
    23e6:	1f 91       	pop	r17
    23e8:	0f 91       	pop	r16
    23ea:	ff 90       	pop	r15
    23ec:	ef 90       	pop	r14
    23ee:	df 90       	pop	r13
    23f0:	cf 90       	pop	r12
    23f2:	08 95       	ret

000023f4 <_ZN12SetupHandler4showEv>:
    23f4:	cf 93       	push	r28
    23f6:	df 93       	push	r29
    23f8:	ec 01       	movw	r28, r24
    23fa:	80 91 0a 01 	lds	r24, 0x010A
    23fe:	90 91 0b 01 	lds	r25, 0x010B
    2402:	0e 94 32 04 	call	0x864	; 0x864 <_ZN21Adafruit_RGBLCDShield5clearEv>
    2406:	40 e0       	ldi	r20, 0x00	; 0
    2408:	60 e0       	ldi	r22, 0x00	; 0
    240a:	ce 01       	movw	r24, r28
    240c:	0e 94 75 08 	call	0x10ea	; 0x10ea <_ZN15IMessageHandler13printMenuItemEhh>
    2410:	41 e0       	ldi	r20, 0x01	; 1
    2412:	65 e0       	ldi	r22, 0x05	; 5
    2414:	ce 01       	movw	r24, r28
    2416:	0e 94 75 08 	call	0x10ea	; 0x10ea <_ZN15IMessageHandler13printMenuItemEhh>
    241a:	42 e0       	ldi	r20, 0x02	; 2
    241c:	69 e0       	ldi	r22, 0x09	; 9
    241e:	ce 01       	movw	r24, r28
    2420:	0e 94 75 08 	call	0x10ea	; 0x10ea <_ZN15IMessageHandler13printMenuItemEhh>
    2424:	43 e0       	ldi	r20, 0x03	; 3
    2426:	6d e0       	ldi	r22, 0x0D	; 13
    2428:	ce 01       	movw	r24, r28
    242a:	0e 94 75 08 	call	0x10ea	; 0x10ea <_ZN15IMessageHandler13printMenuItemEhh>
    242e:	1c 86       	std	Y+12, r1	; 0x0c
    2430:	60 e0       	ldi	r22, 0x00	; 0
    2432:	70 e0       	ldi	r23, 0x00	; 0
    2434:	ce 01       	movw	r24, r28
    2436:	2c dd       	rcall	.-1448   	; 0x1e90 <_ZN12SetupHandler19updateDriveAmountUIEi>
    2438:	60 e0       	ldi	r22, 0x00	; 0
    243a:	70 e0       	ldi	r23, 0x00	; 0
    243c:	ce 01       	movw	r24, r28
    243e:	a8 dd       	rcall	.-1200   	; 0x1f90 <_ZN12SetupHandler14updateFramesUIEi>
    2440:	60 e0       	ldi	r22, 0x00	; 0
    2442:	70 e0       	ldi	r23, 0x00	; 0
    2444:	ce 01       	movw	r24, r28
    2446:	23 de       	rcall	.-954    	; 0x208e <_ZN12SetupHandler18updateFrameDelayUIEi>
    2448:	60 e0       	ldi	r22, 0x00	; 0
    244a:	70 e0       	ldi	r23, 0x00	; 0
    244c:	ce 01       	movw	r24, r28
    244e:	a1 de       	rcall	.-702    	; 0x2192 <_ZN12SetupHandler20updateRestoreFocusUIEi>
    2450:	1c 86       	std	Y+12, r1	; 0x0c
    2452:	61 e0       	ldi	r22, 0x01	; 1
    2454:	ce 01       	movw	r24, r28
    2456:	df 91       	pop	r29
    2458:	cf 91       	pop	r28
    245a:	0c 94 92 08 	jmp	0x1124	; 0x1124 <_ZN15IMessageHandler9showCaretEb>

0000245e <twi_init>:
    245e:	10 92 e9 03 	sts	0x03E9, r1
    2462:	81 e0       	ldi	r24, 0x01	; 1
    2464:	80 93 e7 03 	sts	0x03E7, r24
    2468:	10 92 e6 03 	sts	0x03E6, r1
    246c:	61 e0       	ldi	r22, 0x01	; 1
    246e:	82 e1       	ldi	r24, 0x12	; 18
    2470:	75 d7       	rcall	.+3818   	; 0x335c <digitalWrite>
    2472:	61 e0       	ldi	r22, 0x01	; 1
    2474:	83 e1       	ldi	r24, 0x13	; 19
    2476:	72 d7       	rcall	.+3812   	; 0x335c <digitalWrite>
    2478:	e9 eb       	ldi	r30, 0xB9	; 185
    247a:	f0 e0       	ldi	r31, 0x00	; 0
    247c:	80 81       	ld	r24, Z
    247e:	8e 7f       	andi	r24, 0xFE	; 254
    2480:	80 83       	st	Z, r24
    2482:	80 81       	ld	r24, Z
    2484:	8d 7f       	andi	r24, 0xFD	; 253
    2486:	80 83       	st	Z, r24
    2488:	88 e4       	ldi	r24, 0x48	; 72
    248a:	80 93 b8 00 	sts	0x00B8, r24
    248e:	85 e4       	ldi	r24, 0x45	; 69
    2490:	80 93 bc 00 	sts	0x00BC, r24
    2494:	08 95       	ret

00002496 <twi_readFrom>:
    2496:	41 32       	cpi	r20, 0x21	; 33
    2498:	08 f0       	brcs	.+2      	; 0x249c <twi_readFrom+0x6>
    249a:	3f c0       	rjmp	.+126    	; 0x251a <twi_readFrom+0x84>
    249c:	90 91 e9 03 	lds	r25, 0x03E9
    24a0:	91 11       	cpse	r25, r1
    24a2:	fc cf       	rjmp	.-8      	; 0x249c <twi_readFrom+0x6>
    24a4:	91 e0       	ldi	r25, 0x01	; 1
    24a6:	90 93 e9 03 	sts	0x03E9, r25
    24aa:	20 93 e7 03 	sts	0x03E7, r18
    24ae:	2f ef       	ldi	r18, 0xFF	; 255
    24b0:	20 93 7c 03 	sts	0x037C, r18
    24b4:	10 92 c1 03 	sts	0x03C1, r1
    24b8:	24 0f       	add	r18, r20
    24ba:	20 93 c0 03 	sts	0x03C0, r18
    24be:	90 93 e8 03 	sts	0x03E8, r25
    24c2:	90 91 e8 03 	lds	r25, 0x03E8
    24c6:	88 0f       	add	r24, r24
    24c8:	89 2b       	or	r24, r25
    24ca:	80 93 e8 03 	sts	0x03E8, r24
    24ce:	80 91 e6 03 	lds	r24, 0x03E6
    24d2:	81 30       	cpi	r24, 0x01	; 1
    24d4:	41 f4       	brne	.+16     	; 0x24e6 <twi_readFrom+0x50>
    24d6:	10 92 e6 03 	sts	0x03E6, r1
    24da:	80 91 e8 03 	lds	r24, 0x03E8
    24de:	80 93 bb 00 	sts	0x00BB, r24
    24e2:	85 ec       	ldi	r24, 0xC5	; 197
    24e4:	01 c0       	rjmp	.+2      	; 0x24e8 <twi_readFrom+0x52>
    24e6:	85 ee       	ldi	r24, 0xE5	; 229
    24e8:	80 93 bc 00 	sts	0x00BC, r24
    24ec:	80 91 e9 03 	lds	r24, 0x03E9
    24f0:	81 30       	cpi	r24, 0x01	; 1
    24f2:	e1 f3       	breq	.-8      	; 0x24ec <twi_readFrom+0x56>
    24f4:	80 91 c1 03 	lds	r24, 0x03C1
    24f8:	84 17       	cp	r24, r20
    24fa:	10 f4       	brcc	.+4      	; 0x2500 <twi_readFrom+0x6a>
    24fc:	40 91 c1 03 	lds	r20, 0x03C1
    2500:	22 ec       	ldi	r18, 0xC2	; 194
    2502:	33 e0       	ldi	r19, 0x03	; 3
    2504:	fb 01       	movw	r30, r22
    2506:	d9 01       	movw	r26, r18
    2508:	8a 2f       	mov	r24, r26
    250a:	82 1b       	sub	r24, r18
    250c:	84 17       	cp	r24, r20
    250e:	18 f4       	brcc	.+6      	; 0x2516 <twi_readFrom+0x80>
    2510:	8d 91       	ld	r24, X+
    2512:	81 93       	st	Z+, r24
    2514:	f9 cf       	rjmp	.-14     	; 0x2508 <twi_readFrom+0x72>
    2516:	84 2f       	mov	r24, r20
    2518:	08 95       	ret
    251a:	80 e0       	ldi	r24, 0x00	; 0
    251c:	08 95       	ret

0000251e <twi_writeTo>:
    251e:	0f 93       	push	r16
    2520:	41 32       	cpi	r20, 0x21	; 33
    2522:	08 f0       	brcs	.+2      	; 0x2526 <twi_writeTo+0x8>
    2524:	46 c0       	rjmp	.+140    	; 0x25b2 <twi_writeTo+0x94>
    2526:	90 91 e9 03 	lds	r25, 0x03E9
    252a:	91 11       	cpse	r25, r1
    252c:	fc cf       	rjmp	.-8      	; 0x2526 <twi_writeTo+0x8>
    252e:	92 e0       	ldi	r25, 0x02	; 2
    2530:	90 93 e9 03 	sts	0x03E9, r25
    2534:	00 93 e7 03 	sts	0x03E7, r16
    2538:	9f ef       	ldi	r25, 0xFF	; 255
    253a:	90 93 7c 03 	sts	0x037C, r25
    253e:	10 92 c1 03 	sts	0x03C1, r1
    2542:	40 93 c0 03 	sts	0x03C0, r20
    2546:	fb 01       	movw	r30, r22
    2548:	62 ec       	ldi	r22, 0xC2	; 194
    254a:	73 e0       	ldi	r23, 0x03	; 3
    254c:	db 01       	movw	r26, r22
    254e:	9a 2f       	mov	r25, r26
    2550:	96 1b       	sub	r25, r22
    2552:	94 17       	cp	r25, r20
    2554:	18 f4       	brcc	.+6      	; 0x255c <twi_writeTo+0x3e>
    2556:	91 91       	ld	r25, Z+
    2558:	9d 93       	st	X+, r25
    255a:	f9 cf       	rjmp	.-14     	; 0x254e <twi_writeTo+0x30>
    255c:	10 92 e8 03 	sts	0x03E8, r1
    2560:	90 91 e8 03 	lds	r25, 0x03E8
    2564:	88 0f       	add	r24, r24
    2566:	89 2b       	or	r24, r25
    2568:	80 93 e8 03 	sts	0x03E8, r24
    256c:	80 91 e6 03 	lds	r24, 0x03E6
    2570:	81 30       	cpi	r24, 0x01	; 1
    2572:	41 f4       	brne	.+16     	; 0x2584 <twi_writeTo+0x66>
    2574:	10 92 e6 03 	sts	0x03E6, r1
    2578:	80 91 e8 03 	lds	r24, 0x03E8
    257c:	80 93 bb 00 	sts	0x00BB, r24
    2580:	85 ec       	ldi	r24, 0xC5	; 197
    2582:	01 c0       	rjmp	.+2      	; 0x2586 <twi_writeTo+0x68>
    2584:	85 ee       	ldi	r24, 0xE5	; 229
    2586:	80 93 bc 00 	sts	0x00BC, r24
    258a:	22 23       	and	r18, r18
    258c:	21 f0       	breq	.+8      	; 0x2596 <twi_writeTo+0x78>
    258e:	80 91 e9 03 	lds	r24, 0x03E9
    2592:	82 30       	cpi	r24, 0x02	; 2
    2594:	e1 f3       	breq	.-8      	; 0x258e <twi_writeTo+0x70>
    2596:	80 91 7c 03 	lds	r24, 0x037C
    259a:	8f 3f       	cpi	r24, 0xFF	; 255
    259c:	61 f0       	breq	.+24     	; 0x25b6 <twi_writeTo+0x98>
    259e:	80 91 7c 03 	lds	r24, 0x037C
    25a2:	80 32       	cpi	r24, 0x20	; 32
    25a4:	51 f0       	breq	.+20     	; 0x25ba <twi_writeTo+0x9c>
    25a6:	80 91 7c 03 	lds	r24, 0x037C
    25aa:	80 33       	cpi	r24, 0x30	; 48
    25ac:	41 f4       	brne	.+16     	; 0x25be <twi_writeTo+0xa0>
    25ae:	83 e0       	ldi	r24, 0x03	; 3
    25b0:	07 c0       	rjmp	.+14     	; 0x25c0 <twi_writeTo+0xa2>
    25b2:	81 e0       	ldi	r24, 0x01	; 1
    25b4:	05 c0       	rjmp	.+10     	; 0x25c0 <twi_writeTo+0xa2>
    25b6:	80 e0       	ldi	r24, 0x00	; 0
    25b8:	03 c0       	rjmp	.+6      	; 0x25c0 <twi_writeTo+0xa2>
    25ba:	82 e0       	ldi	r24, 0x02	; 2
    25bc:	01 c0       	rjmp	.+2      	; 0x25c0 <twi_writeTo+0xa2>
    25be:	84 e0       	ldi	r24, 0x04	; 4
    25c0:	0f 91       	pop	r16
    25c2:	08 95       	ret

000025c4 <twi_transmit>:
    25c4:	61 32       	cpi	r22, 0x21	; 33
    25c6:	98 f4       	brcc	.+38     	; 0x25ee <twi_transmit+0x2a>
    25c8:	20 91 e9 03 	lds	r18, 0x03E9
    25cc:	24 30       	cpi	r18, 0x04	; 4
    25ce:	89 f4       	brne	.+34     	; 0x25f2 <twi_transmit+0x2e>
    25d0:	60 93 9e 03 	sts	0x039E, r22
    25d4:	fc 01       	movw	r30, r24
    25d6:	80 ea       	ldi	r24, 0xA0	; 160
    25d8:	93 e0       	ldi	r25, 0x03	; 3
    25da:	dc 01       	movw	r26, r24
    25dc:	2a 2f       	mov	r18, r26
    25de:	28 1b       	sub	r18, r24
    25e0:	26 17       	cp	r18, r22
    25e2:	18 f4       	brcc	.+6      	; 0x25ea <twi_transmit+0x26>
    25e4:	21 91       	ld	r18, Z+
    25e6:	2d 93       	st	X+, r18
    25e8:	f9 cf       	rjmp	.-14     	; 0x25dc <twi_transmit+0x18>
    25ea:	80 e0       	ldi	r24, 0x00	; 0
    25ec:	08 95       	ret
    25ee:	81 e0       	ldi	r24, 0x01	; 1
    25f0:	08 95       	ret
    25f2:	82 e0       	ldi	r24, 0x02	; 2
    25f4:	08 95       	ret

000025f6 <twi_stop>:
    25f6:	85 ed       	ldi	r24, 0xD5	; 213
    25f8:	80 93 bc 00 	sts	0x00BC, r24
    25fc:	80 91 bc 00 	lds	r24, 0x00BC
    2600:	84 fd       	sbrc	r24, 4
    2602:	fc cf       	rjmp	.-8      	; 0x25fc <twi_stop+0x6>
    2604:	10 92 e9 03 	sts	0x03E9, r1
    2608:	08 95       	ret

0000260a <twi_releaseBus>:
    260a:	85 ec       	ldi	r24, 0xC5	; 197
    260c:	80 93 bc 00 	sts	0x00BC, r24
    2610:	10 92 e9 03 	sts	0x03E9, r1
    2614:	08 95       	ret

00002616 <__vector_24>:
    2616:	1f 92       	push	r1
    2618:	0f 92       	push	r0
    261a:	0f b6       	in	r0, 0x3f	; 63
    261c:	0f 92       	push	r0
    261e:	11 24       	eor	r1, r1
    2620:	2f 93       	push	r18
    2622:	3f 93       	push	r19
    2624:	4f 93       	push	r20
    2626:	5f 93       	push	r21
    2628:	6f 93       	push	r22
    262a:	7f 93       	push	r23
    262c:	8f 93       	push	r24
    262e:	9f 93       	push	r25
    2630:	af 93       	push	r26
    2632:	bf 93       	push	r27
    2634:	ef 93       	push	r30
    2636:	ff 93       	push	r31
    2638:	80 91 b9 00 	lds	r24, 0x00B9
    263c:	88 7f       	andi	r24, 0xF8	; 248
    263e:	80 36       	cpi	r24, 0x60	; 96
    2640:	09 f4       	brne	.+2      	; 0x2644 <__vector_24+0x2e>
    2642:	9c c0       	rjmp	.+312    	; 0x277c <__vector_24+0x166>
    2644:	68 f5       	brcc	.+90     	; 0x26a0 <__vector_24+0x8a>
    2646:	88 32       	cpi	r24, 0x28	; 40
    2648:	09 f4       	brne	.+2      	; 0x264c <__vector_24+0x36>
    264a:	5b c0       	rjmp	.+182    	; 0x2702 <__vector_24+0xec>
    264c:	90 f4       	brcc	.+36     	; 0x2672 <__vector_24+0x5c>
    264e:	80 31       	cpi	r24, 0x10	; 16
    2650:	09 f4       	brne	.+2      	; 0x2654 <__vector_24+0x3e>
    2652:	54 c0       	rjmp	.+168    	; 0x26fc <__vector_24+0xe6>
    2654:	38 f4       	brcc	.+14     	; 0x2664 <__vector_24+0x4e>
    2656:	88 23       	and	r24, r24
    2658:	09 f4       	brne	.+2      	; 0x265c <__vector_24+0x46>
    265a:	f3 c0       	rjmp	.+486    	; 0x2842 <__vector_24+0x22c>
    265c:	88 30       	cpi	r24, 0x08	; 8
    265e:	09 f4       	brne	.+2      	; 0x2662 <__vector_24+0x4c>
    2660:	4d c0       	rjmp	.+154    	; 0x26fc <__vector_24+0xe6>
    2662:	f2 c0       	rjmp	.+484    	; 0x2848 <__vector_24+0x232>
    2664:	88 31       	cpi	r24, 0x18	; 24
    2666:	09 f4       	brne	.+2      	; 0x266a <__vector_24+0x54>
    2668:	4c c0       	rjmp	.+152    	; 0x2702 <__vector_24+0xec>
    266a:	80 32       	cpi	r24, 0x20	; 32
    266c:	09 f4       	brne	.+2      	; 0x2670 <__vector_24+0x5a>
    266e:	5d c0       	rjmp	.+186    	; 0x272a <__vector_24+0x114>
    2670:	eb c0       	rjmp	.+470    	; 0x2848 <__vector_24+0x232>
    2672:	80 34       	cpi	r24, 0x40	; 64
    2674:	09 f4       	brne	.+2      	; 0x2678 <__vector_24+0x62>
    2676:	68 c0       	rjmp	.+208    	; 0x2748 <__vector_24+0x132>
    2678:	48 f4       	brcc	.+18     	; 0x268c <__vector_24+0x76>
    267a:	80 33       	cpi	r24, 0x30	; 48
    267c:	09 f4       	brne	.+2      	; 0x2680 <__vector_24+0x6a>
    267e:	55 c0       	rjmp	.+170    	; 0x272a <__vector_24+0x114>
    2680:	88 33       	cpi	r24, 0x38	; 56
    2682:	09 f0       	breq	.+2      	; 0x2686 <__vector_24+0x70>
    2684:	e1 c0       	rjmp	.+450    	; 0x2848 <__vector_24+0x232>
    2686:	80 93 7c 03 	sts	0x037C, r24
    268a:	a7 c0       	rjmp	.+334    	; 0x27da <__vector_24+0x1c4>
    268c:	80 35       	cpi	r24, 0x50	; 80
    268e:	09 f4       	brne	.+2      	; 0x2692 <__vector_24+0x7c>
    2690:	4f c0       	rjmp	.+158    	; 0x2730 <__vector_24+0x11a>
    2692:	88 35       	cpi	r24, 0x58	; 88
    2694:	09 f4       	brne	.+2      	; 0x2698 <__vector_24+0x82>
    2696:	5d c0       	rjmp	.+186    	; 0x2752 <__vector_24+0x13c>
    2698:	88 34       	cpi	r24, 0x48	; 72
    269a:	09 f0       	breq	.+2      	; 0x269e <__vector_24+0x88>
    269c:	d5 c0       	rjmp	.+426    	; 0x2848 <__vector_24+0x232>
    269e:	d3 c0       	rjmp	.+422    	; 0x2846 <__vector_24+0x230>
    26a0:	88 39       	cpi	r24, 0x98	; 152
    26a2:	09 f4       	brne	.+2      	; 0x26a6 <__vector_24+0x90>
    26a4:	c4 c0       	rjmp	.+392    	; 0x282e <__vector_24+0x218>
    26a6:	a8 f4       	brcc	.+42     	; 0x26d2 <__vector_24+0xbc>
    26a8:	88 37       	cpi	r24, 0x78	; 120
    26aa:	09 f4       	brne	.+2      	; 0x26ae <__vector_24+0x98>
    26ac:	67 c0       	rjmp	.+206    	; 0x277c <__vector_24+0x166>
    26ae:	38 f4       	brcc	.+14     	; 0x26be <__vector_24+0xa8>
    26b0:	88 36       	cpi	r24, 0x68	; 104
    26b2:	09 f4       	brne	.+2      	; 0x26b6 <__vector_24+0xa0>
    26b4:	63 c0       	rjmp	.+198    	; 0x277c <__vector_24+0x166>
    26b6:	80 37       	cpi	r24, 0x70	; 112
    26b8:	09 f4       	brne	.+2      	; 0x26bc <__vector_24+0xa6>
    26ba:	60 c0       	rjmp	.+192    	; 0x277c <__vector_24+0x166>
    26bc:	c5 c0       	rjmp	.+394    	; 0x2848 <__vector_24+0x232>
    26be:	88 38       	cpi	r24, 0x88	; 136
    26c0:	09 f4       	brne	.+2      	; 0x26c4 <__vector_24+0xae>
    26c2:	b5 c0       	rjmp	.+362    	; 0x282e <__vector_24+0x218>
    26c4:	80 39       	cpi	r24, 0x90	; 144
    26c6:	09 f4       	brne	.+2      	; 0x26ca <__vector_24+0xb4>
    26c8:	5f c0       	rjmp	.+190    	; 0x2788 <__vector_24+0x172>
    26ca:	80 38       	cpi	r24, 0x80	; 128
    26cc:	09 f0       	breq	.+2      	; 0x26d0 <__vector_24+0xba>
    26ce:	bc c0       	rjmp	.+376    	; 0x2848 <__vector_24+0x232>
    26d0:	5b c0       	rjmp	.+182    	; 0x2788 <__vector_24+0x172>
    26d2:	80 3b       	cpi	r24, 0xB0	; 176
    26d4:	09 f4       	brne	.+2      	; 0x26d8 <__vector_24+0xc2>
    26d6:	83 c0       	rjmp	.+262    	; 0x27de <__vector_24+0x1c8>
    26d8:	38 f4       	brcc	.+14     	; 0x26e8 <__vector_24+0xd2>
    26da:	80 3a       	cpi	r24, 0xA0	; 160
    26dc:	09 f4       	brne	.+2      	; 0x26e0 <__vector_24+0xca>
    26de:	66 c0       	rjmp	.+204    	; 0x27ac <__vector_24+0x196>
    26e0:	88 3a       	cpi	r24, 0xA8	; 168
    26e2:	09 f4       	brne	.+2      	; 0x26e6 <__vector_24+0xd0>
    26e4:	7c c0       	rjmp	.+248    	; 0x27de <__vector_24+0x1c8>
    26e6:	b0 c0       	rjmp	.+352    	; 0x2848 <__vector_24+0x232>
    26e8:	80 3c       	cpi	r24, 0xC0	; 192
    26ea:	09 f4       	brne	.+2      	; 0x26ee <__vector_24+0xd8>
    26ec:	a4 c0       	rjmp	.+328    	; 0x2836 <__vector_24+0x220>
    26ee:	88 3c       	cpi	r24, 0xC8	; 200
    26f0:	09 f4       	brne	.+2      	; 0x26f4 <__vector_24+0xde>
    26f2:	a1 c0       	rjmp	.+322    	; 0x2836 <__vector_24+0x220>
    26f4:	88 3b       	cpi	r24, 0xB8	; 184
    26f6:	09 f4       	brne	.+2      	; 0x26fa <__vector_24+0xe4>
    26f8:	87 c0       	rjmp	.+270    	; 0x2808 <__vector_24+0x1f2>
    26fa:	a6 c0       	rjmp	.+332    	; 0x2848 <__vector_24+0x232>
    26fc:	80 91 e8 03 	lds	r24, 0x03E8
    2700:	10 c0       	rjmp	.+32     	; 0x2722 <__vector_24+0x10c>
    2702:	90 91 c1 03 	lds	r25, 0x03C1
    2706:	80 91 c0 03 	lds	r24, 0x03C0
    270a:	98 17       	cp	r25, r24
    270c:	70 f5       	brcc	.+92     	; 0x276a <__vector_24+0x154>
    270e:	e0 91 c1 03 	lds	r30, 0x03C1
    2712:	81 e0       	ldi	r24, 0x01	; 1
    2714:	8e 0f       	add	r24, r30
    2716:	80 93 c1 03 	sts	0x03C1, r24
    271a:	f0 e0       	ldi	r31, 0x00	; 0
    271c:	ee 53       	subi	r30, 0x3E	; 62
    271e:	fc 4f       	sbci	r31, 0xFC	; 252
    2720:	80 81       	ld	r24, Z
    2722:	80 93 bb 00 	sts	0x00BB, r24
    2726:	85 ec       	ldi	r24, 0xC5	; 197
    2728:	83 c0       	rjmp	.+262    	; 0x2830 <__vector_24+0x21a>
    272a:	80 93 7c 03 	sts	0x037C, r24
    272e:	8b c0       	rjmp	.+278    	; 0x2846 <__vector_24+0x230>
    2730:	e0 91 c1 03 	lds	r30, 0x03C1
    2734:	81 e0       	ldi	r24, 0x01	; 1
    2736:	8e 0f       	add	r24, r30
    2738:	80 93 c1 03 	sts	0x03C1, r24
    273c:	80 91 bb 00 	lds	r24, 0x00BB
    2740:	f0 e0       	ldi	r31, 0x00	; 0
    2742:	ee 53       	subi	r30, 0x3E	; 62
    2744:	fc 4f       	sbci	r31, 0xFC	; 252
    2746:	80 83       	st	Z, r24
    2748:	90 91 c1 03 	lds	r25, 0x03C1
    274c:	80 91 c0 03 	lds	r24, 0x03C0
    2750:	6b c0       	rjmp	.+214    	; 0x2828 <__vector_24+0x212>
    2752:	e0 91 c1 03 	lds	r30, 0x03C1
    2756:	81 e0       	ldi	r24, 0x01	; 1
    2758:	8e 0f       	add	r24, r30
    275a:	80 93 c1 03 	sts	0x03C1, r24
    275e:	80 91 bb 00 	lds	r24, 0x00BB
    2762:	f0 e0       	ldi	r31, 0x00	; 0
    2764:	ee 53       	subi	r30, 0x3E	; 62
    2766:	fc 4f       	sbci	r31, 0xFC	; 252
    2768:	80 83       	st	Z, r24
    276a:	80 91 e7 03 	lds	r24, 0x03E7
    276e:	81 11       	cpse	r24, r1
    2770:	6a c0       	rjmp	.+212    	; 0x2846 <__vector_24+0x230>
    2772:	81 e0       	ldi	r24, 0x01	; 1
    2774:	80 93 e6 03 	sts	0x03E6, r24
    2778:	84 ea       	ldi	r24, 0xA4	; 164
    277a:	5e c0       	rjmp	.+188    	; 0x2838 <__vector_24+0x222>
    277c:	83 e0       	ldi	r24, 0x03	; 3
    277e:	80 93 e9 03 	sts	0x03E9, r24
    2782:	10 92 7d 03 	sts	0x037D, r1
    2786:	cf cf       	rjmp	.-98     	; 0x2726 <__vector_24+0x110>
    2788:	80 91 7d 03 	lds	r24, 0x037D
    278c:	80 32       	cpi	r24, 0x20	; 32
    278e:	08 f0       	brcs	.+2      	; 0x2792 <__vector_24+0x17c>
    2790:	4e c0       	rjmp	.+156    	; 0x282e <__vector_24+0x218>
    2792:	e0 91 7d 03 	lds	r30, 0x037D
    2796:	81 e0       	ldi	r24, 0x01	; 1
    2798:	8e 0f       	add	r24, r30
    279a:	80 93 7d 03 	sts	0x037D, r24
    279e:	80 91 bb 00 	lds	r24, 0x00BB
    27a2:	f0 e0       	ldi	r31, 0x00	; 0
    27a4:	e2 58       	subi	r30, 0x82	; 130
    27a6:	fc 4f       	sbci	r31, 0xFC	; 252
    27a8:	80 83       	st	Z, r24
    27aa:	bd cf       	rjmp	.-134    	; 0x2726 <__vector_24+0x110>
    27ac:	80 91 7d 03 	lds	r24, 0x037D
    27b0:	80 32       	cpi	r24, 0x20	; 32
    27b2:	30 f4       	brcc	.+12     	; 0x27c0 <__vector_24+0x1aa>
    27b4:	e0 91 7d 03 	lds	r30, 0x037D
    27b8:	f0 e0       	ldi	r31, 0x00	; 0
    27ba:	e2 58       	subi	r30, 0x82	; 130
    27bc:	fc 4f       	sbci	r31, 0xFC	; 252
    27be:	10 82       	st	Z, r1
    27c0:	1a df       	rcall	.-460    	; 0x25f6 <twi_stop>
    27c2:	60 91 7d 03 	lds	r22, 0x037D
    27c6:	70 e0       	ldi	r23, 0x00	; 0
    27c8:	e0 91 e2 03 	lds	r30, 0x03E2
    27cc:	f0 91 e3 03 	lds	r31, 0x03E3
    27d0:	8e e7       	ldi	r24, 0x7E	; 126
    27d2:	93 e0       	ldi	r25, 0x03	; 3
    27d4:	09 95       	icall
    27d6:	10 92 7d 03 	sts	0x037D, r1
    27da:	17 df       	rcall	.-466    	; 0x260a <twi_releaseBus>
    27dc:	35 c0       	rjmp	.+106    	; 0x2848 <__vector_24+0x232>
    27de:	84 e0       	ldi	r24, 0x04	; 4
    27e0:	80 93 e9 03 	sts	0x03E9, r24
    27e4:	10 92 9f 03 	sts	0x039F, r1
    27e8:	10 92 9e 03 	sts	0x039E, r1
    27ec:	e0 91 e4 03 	lds	r30, 0x03E4
    27f0:	f0 91 e5 03 	lds	r31, 0x03E5
    27f4:	09 95       	icall
    27f6:	80 91 9e 03 	lds	r24, 0x039E
    27fa:	81 11       	cpse	r24, r1
    27fc:	05 c0       	rjmp	.+10     	; 0x2808 <__vector_24+0x1f2>
    27fe:	81 e0       	ldi	r24, 0x01	; 1
    2800:	80 93 9e 03 	sts	0x039E, r24
    2804:	10 92 a0 03 	sts	0x03A0, r1
    2808:	e0 91 9f 03 	lds	r30, 0x039F
    280c:	81 e0       	ldi	r24, 0x01	; 1
    280e:	8e 0f       	add	r24, r30
    2810:	80 93 9f 03 	sts	0x039F, r24
    2814:	f0 e0       	ldi	r31, 0x00	; 0
    2816:	e0 56       	subi	r30, 0x60	; 96
    2818:	fc 4f       	sbci	r31, 0xFC	; 252
    281a:	80 81       	ld	r24, Z
    281c:	80 93 bb 00 	sts	0x00BB, r24
    2820:	90 91 9f 03 	lds	r25, 0x039F
    2824:	80 91 9e 03 	lds	r24, 0x039E
    2828:	98 17       	cp	r25, r24
    282a:	08 f4       	brcc	.+2      	; 0x282e <__vector_24+0x218>
    282c:	7c cf       	rjmp	.-264    	; 0x2726 <__vector_24+0x110>
    282e:	85 e8       	ldi	r24, 0x85	; 133
    2830:	80 93 bc 00 	sts	0x00BC, r24
    2834:	09 c0       	rjmp	.+18     	; 0x2848 <__vector_24+0x232>
    2836:	85 ec       	ldi	r24, 0xC5	; 197
    2838:	80 93 bc 00 	sts	0x00BC, r24
    283c:	10 92 e9 03 	sts	0x03E9, r1
    2840:	03 c0       	rjmp	.+6      	; 0x2848 <__vector_24+0x232>
    2842:	10 92 7c 03 	sts	0x037C, r1
    2846:	d7 de       	rcall	.-594    	; 0x25f6 <twi_stop>
    2848:	ff 91       	pop	r31
    284a:	ef 91       	pop	r30
    284c:	bf 91       	pop	r27
    284e:	af 91       	pop	r26
    2850:	9f 91       	pop	r25
    2852:	8f 91       	pop	r24
    2854:	7f 91       	pop	r23
    2856:	6f 91       	pop	r22
    2858:	5f 91       	pop	r21
    285a:	4f 91       	pop	r20
    285c:	3f 91       	pop	r19
    285e:	2f 91       	pop	r18
    2860:	0f 90       	pop	r0
    2862:	0f be       	out	0x3f, r0	; 63
    2864:	0f 90       	pop	r0
    2866:	1f 90       	pop	r1
    2868:	18 95       	reti

0000286a <_ZN7TwoWire9availableEv>:
    286a:	80 91 1a 04 	lds	r24, 0x041A
    286e:	90 e0       	ldi	r25, 0x00	; 0
    2870:	20 91 1b 04 	lds	r18, 0x041B
    2874:	82 1b       	sub	r24, r18
    2876:	91 09       	sbc	r25, r1
    2878:	08 95       	ret

0000287a <_ZN7TwoWire4readEv>:
    287a:	20 91 1b 04 	lds	r18, 0x041B
    287e:	80 91 1a 04 	lds	r24, 0x041A
    2882:	28 17       	cp	r18, r24
    2884:	50 f4       	brcc	.+20     	; 0x289a <_ZN7TwoWire4readEv+0x20>
    2886:	e2 2f       	mov	r30, r18
    2888:	f0 e0       	ldi	r31, 0x00	; 0
    288a:	e4 5e       	subi	r30, 0xE4	; 228
    288c:	fb 4f       	sbci	r31, 0xFB	; 251
    288e:	80 81       	ld	r24, Z
    2890:	90 e0       	ldi	r25, 0x00	; 0
    2892:	2f 5f       	subi	r18, 0xFF	; 255
    2894:	20 93 1b 04 	sts	0x041B, r18
    2898:	08 95       	ret
    289a:	8f ef       	ldi	r24, 0xFF	; 255
    289c:	9f ef       	ldi	r25, 0xFF	; 255
    289e:	08 95       	ret

000028a0 <_ZN7TwoWire4peekEv>:
    28a0:	e0 91 1b 04 	lds	r30, 0x041B
    28a4:	80 91 1a 04 	lds	r24, 0x041A
    28a8:	e8 17       	cp	r30, r24
    28aa:	30 f4       	brcc	.+12     	; 0x28b8 <_ZN7TwoWire4peekEv+0x18>
    28ac:	f0 e0       	ldi	r31, 0x00	; 0
    28ae:	e4 5e       	subi	r30, 0xE4	; 228
    28b0:	fb 4f       	sbci	r31, 0xFB	; 251
    28b2:	80 81       	ld	r24, Z
    28b4:	90 e0       	ldi	r25, 0x00	; 0
    28b6:	08 95       	ret
    28b8:	8f ef       	ldi	r24, 0xFF	; 255
    28ba:	9f ef       	ldi	r25, 0xFF	; 255
    28bc:	08 95       	ret

000028be <_ZN7TwoWire5flushEv>:
    28be:	08 95       	ret

000028c0 <_ZN7TwoWire5writeEPKhj>:
    28c0:	cf 92       	push	r12
    28c2:	df 92       	push	r13
    28c4:	ef 92       	push	r14
    28c6:	ff 92       	push	r15
    28c8:	0f 93       	push	r16
    28ca:	1f 93       	push	r17
    28cc:	cf 93       	push	r28
    28ce:	df 93       	push	r29
    28d0:	7c 01       	movw	r14, r24
    28d2:	cb 01       	movw	r24, r22
    28d4:	8a 01       	movw	r16, r20
    28d6:	20 91 f6 03 	lds	r18, 0x03F6
    28da:	22 23       	and	r18, r18
    28dc:	89 f0       	breq	.+34     	; 0x2900 <_ZN7TwoWire5writeEPKhj+0x40>
    28de:	eb 01       	movw	r28, r22
    28e0:	6b 01       	movw	r12, r22
    28e2:	c4 0e       	add	r12, r20
    28e4:	d5 1e       	adc	r13, r21
    28e6:	cc 15       	cp	r28, r12
    28e8:	dd 05       	cpc	r29, r13
    28ea:	61 f0       	breq	.+24     	; 0x2904 <_ZN7TwoWire5writeEPKhj+0x44>
    28ec:	69 91       	ld	r22, Y+
    28ee:	d7 01       	movw	r26, r14
    28f0:	ed 91       	ld	r30, X+
    28f2:	fc 91       	ld	r31, X
    28f4:	01 90       	ld	r0, Z+
    28f6:	f0 81       	ld	r31, Z
    28f8:	e0 2d       	mov	r30, r0
    28fa:	c7 01       	movw	r24, r14
    28fc:	09 95       	icall
    28fe:	f3 cf       	rjmp	.-26     	; 0x28e6 <_ZN7TwoWire5writeEPKhj+0x26>
    2900:	64 2f       	mov	r22, r20
    2902:	60 de       	rcall	.-832    	; 0x25c4 <twi_transmit>
    2904:	c8 01       	movw	r24, r16
    2906:	df 91       	pop	r29
    2908:	cf 91       	pop	r28
    290a:	1f 91       	pop	r17
    290c:	0f 91       	pop	r16
    290e:	ff 90       	pop	r15
    2910:	ef 90       	pop	r14
    2912:	df 90       	pop	r13
    2914:	cf 90       	pop	r12
    2916:	08 95       	ret

00002918 <_ZN7TwoWire5writeEh>:
    2918:	cf 93       	push	r28
    291a:	df 93       	push	r29
    291c:	1f 92       	push	r1
    291e:	cd b7       	in	r28, 0x3d	; 61
    2920:	de b7       	in	r29, 0x3e	; 62
    2922:	69 83       	std	Y+1, r22	; 0x01
    2924:	20 91 f6 03 	lds	r18, 0x03F6
    2928:	22 23       	and	r18, r18
    292a:	d1 f0       	breq	.+52     	; 0x2960 <_ZN7TwoWire5writeEh+0x48>
    292c:	20 91 f7 03 	lds	r18, 0x03F7
    2930:	20 32       	cpi	r18, 0x20	; 32
    2932:	40 f0       	brcs	.+16     	; 0x2944 <_ZN7TwoWire5writeEh+0x2c>
    2934:	21 e0       	ldi	r18, 0x01	; 1
    2936:	30 e0       	ldi	r19, 0x00	; 0
    2938:	fc 01       	movw	r30, r24
    293a:	33 83       	std	Z+3, r19	; 0x03
    293c:	22 83       	std	Z+2, r18	; 0x02
    293e:	80 e0       	ldi	r24, 0x00	; 0
    2940:	90 e0       	ldi	r25, 0x00	; 0
    2942:	14 c0       	rjmp	.+40     	; 0x296c <_ZN7TwoWire5writeEh+0x54>
    2944:	80 91 f8 03 	lds	r24, 0x03F8
    2948:	e8 2f       	mov	r30, r24
    294a:	f0 e0       	ldi	r31, 0x00	; 0
    294c:	e7 50       	subi	r30, 0x07	; 7
    294e:	fc 4f       	sbci	r31, 0xFC	; 252
    2950:	99 81       	ldd	r25, Y+1	; 0x01
    2952:	90 83       	st	Z, r25
    2954:	8f 5f       	subi	r24, 0xFF	; 255
    2956:	80 93 f8 03 	sts	0x03F8, r24
    295a:	80 93 f7 03 	sts	0x03F7, r24
    295e:	04 c0       	rjmp	.+8      	; 0x2968 <_ZN7TwoWire5writeEh+0x50>
    2960:	61 e0       	ldi	r22, 0x01	; 1
    2962:	ce 01       	movw	r24, r28
    2964:	01 96       	adiw	r24, 0x01	; 1
    2966:	2e de       	rcall	.-932    	; 0x25c4 <twi_transmit>
    2968:	81 e0       	ldi	r24, 0x01	; 1
    296a:	90 e0       	ldi	r25, 0x00	; 0
    296c:	0f 90       	pop	r0
    296e:	df 91       	pop	r29
    2970:	cf 91       	pop	r28
    2972:	08 95       	ret

00002974 <_ZN7TwoWireC1Ev>:
    2974:	fc 01       	movw	r30, r24
    2976:	13 82       	std	Z+3, r1	; 0x03
    2978:	12 82       	std	Z+2, r1	; 0x02
    297a:	48 ee       	ldi	r20, 0xE8	; 232
    297c:	53 e0       	ldi	r21, 0x03	; 3
    297e:	60 e0       	ldi	r22, 0x00	; 0
    2980:	70 e0       	ldi	r23, 0x00	; 0
    2982:	44 83       	std	Z+4, r20	; 0x04
    2984:	55 83       	std	Z+5, r21	; 0x05
    2986:	66 83       	std	Z+6, r22	; 0x06
    2988:	77 83       	std	Z+7, r23	; 0x07
    298a:	80 ef       	ldi	r24, 0xF0	; 240
    298c:	91 e0       	ldi	r25, 0x01	; 1
    298e:	91 83       	std	Z+1, r25	; 0x01
    2990:	80 83       	st	Z, r24
    2992:	08 95       	ret

00002994 <_ZN7TwoWire5beginEv>:
    2994:	10 92 1b 04 	sts	0x041B, r1
    2998:	10 92 1a 04 	sts	0x041A, r1
    299c:	10 92 f8 03 	sts	0x03F8, r1
    29a0:	10 92 f7 03 	sts	0x03F7, r1
    29a4:	5c cd       	rjmp	.-1352   	; 0x245e <twi_init>

000029a6 <_ZN7TwoWire11requestFromEhhh>:
    29a6:	86 2f       	mov	r24, r22
    29a8:	41 32       	cpi	r20, 0x21	; 33
    29aa:	08 f0       	brcs	.+2      	; 0x29ae <_ZN7TwoWire11requestFromEhhh+0x8>
    29ac:	40 e2       	ldi	r20, 0x20	; 32
    29ae:	6c e1       	ldi	r22, 0x1C	; 28
    29b0:	74 e0       	ldi	r23, 0x04	; 4
    29b2:	71 dd       	rcall	.-1310   	; 0x2496 <twi_readFrom>
    29b4:	10 92 1b 04 	sts	0x041B, r1
    29b8:	80 93 1a 04 	sts	0x041A, r24
    29bc:	08 95       	ret

000029be <_ZN7TwoWire11requestFromEii>:
    29be:	21 e0       	ldi	r18, 0x01	; 1
    29c0:	f2 cf       	rjmp	.-28     	; 0x29a6 <_ZN7TwoWire11requestFromEhhh>

000029c2 <_ZN7TwoWire17beginTransmissionEh>:
    29c2:	81 e0       	ldi	r24, 0x01	; 1
    29c4:	80 93 f6 03 	sts	0x03F6, r24
    29c8:	60 93 19 04 	sts	0x0419, r22
    29cc:	10 92 f8 03 	sts	0x03F8, r1
    29d0:	10 92 f7 03 	sts	0x03F7, r1
    29d4:	08 95       	ret

000029d6 <_ZN7TwoWire17beginTransmissionEi>:
    29d6:	f5 cf       	rjmp	.-22     	; 0x29c2 <_ZN7TwoWire17beginTransmissionEh>

000029d8 <_ZN7TwoWire15endTransmissionEh>:
    29d8:	0f 93       	push	r16
    29da:	06 2f       	mov	r16, r22
    29dc:	21 e0       	ldi	r18, 0x01	; 1
    29de:	40 91 f7 03 	lds	r20, 0x03F7
    29e2:	69 ef       	ldi	r22, 0xF9	; 249
    29e4:	73 e0       	ldi	r23, 0x03	; 3
    29e6:	80 91 19 04 	lds	r24, 0x0419
    29ea:	99 dd       	rcall	.-1230   	; 0x251e <twi_writeTo>
    29ec:	10 92 f8 03 	sts	0x03F8, r1
    29f0:	10 92 f7 03 	sts	0x03F7, r1
    29f4:	10 92 f6 03 	sts	0x03F6, r1
    29f8:	0f 91       	pop	r16
    29fa:	08 95       	ret

000029fc <_ZN7TwoWire15endTransmissionEv>:
    29fc:	61 e0       	ldi	r22, 0x01	; 1
    29fe:	ec cf       	rjmp	.-40     	; 0x29d8 <_ZN7TwoWire15endTransmissionEh>

00002a00 <_GLOBAL__sub_I__ZN7TwoWire8rxBufferE>:
    2a00:	8a ee       	ldi	r24, 0xEA	; 234
    2a02:	93 e0       	ldi	r25, 0x03	; 3
    2a04:	b7 cf       	rjmp	.-146    	; 0x2974 <_ZN7TwoWireC1Ev>

00002a06 <_ZN14HardwareSerial9availableEv>:
    2a06:	fc 01       	movw	r30, r24
    2a08:	84 85       	ldd	r24, Z+12	; 0x0c
    2a0a:	95 85       	ldd	r25, Z+13	; 0x0d
    2a0c:	fc 01       	movw	r30, r24
    2a0e:	e0 5c       	subi	r30, 0xC0	; 192
    2a10:	ff 4f       	sbci	r31, 0xFF	; 255
    2a12:	20 81       	ld	r18, Z
    2a14:	31 81       	ldd	r19, Z+1	; 0x01
    2a16:	fc 01       	movw	r30, r24
    2a18:	ee 5b       	subi	r30, 0xBE	; 190
    2a1a:	ff 4f       	sbci	r31, 0xFF	; 255
    2a1c:	80 81       	ld	r24, Z
    2a1e:	91 81       	ldd	r25, Z+1	; 0x01
    2a20:	28 1b       	sub	r18, r24
    2a22:	39 0b       	sbc	r19, r25
    2a24:	2f 73       	andi	r18, 0x3F	; 63
    2a26:	33 27       	eor	r19, r19
    2a28:	c9 01       	movw	r24, r18
    2a2a:	08 95       	ret

00002a2c <_ZN14HardwareSerial4peekEv>:
    2a2c:	fc 01       	movw	r30, r24
    2a2e:	84 85       	ldd	r24, Z+12	; 0x0c
    2a30:	95 85       	ldd	r25, Z+13	; 0x0d
    2a32:	fc 01       	movw	r30, r24
    2a34:	e0 5c       	subi	r30, 0xC0	; 192
    2a36:	ff 4f       	sbci	r31, 0xFF	; 255
    2a38:	40 81       	ld	r20, Z
    2a3a:	51 81       	ldd	r21, Z+1	; 0x01
    2a3c:	fc 01       	movw	r30, r24
    2a3e:	ee 5b       	subi	r30, 0xBE	; 190
    2a40:	ff 4f       	sbci	r31, 0xFF	; 255
    2a42:	20 81       	ld	r18, Z
    2a44:	31 81       	ldd	r19, Z+1	; 0x01
    2a46:	42 17       	cp	r20, r18
    2a48:	53 07       	cpc	r21, r19
    2a4a:	41 f0       	breq	.+16     	; 0x2a5c <_ZN14HardwareSerial4peekEv+0x30>
    2a4c:	01 90       	ld	r0, Z+
    2a4e:	f0 81       	ld	r31, Z
    2a50:	e0 2d       	mov	r30, r0
    2a52:	e8 0f       	add	r30, r24
    2a54:	f9 1f       	adc	r31, r25
    2a56:	20 81       	ld	r18, Z
    2a58:	30 e0       	ldi	r19, 0x00	; 0
    2a5a:	02 c0       	rjmp	.+4      	; 0x2a60 <_ZN14HardwareSerial4peekEv+0x34>
    2a5c:	2f ef       	ldi	r18, 0xFF	; 255
    2a5e:	3f ef       	ldi	r19, 0xFF	; 255
    2a60:	c9 01       	movw	r24, r18
    2a62:	08 95       	ret

00002a64 <_ZN14HardwareSerial4readEv>:
    2a64:	fc 01       	movw	r30, r24
    2a66:	84 85       	ldd	r24, Z+12	; 0x0c
    2a68:	95 85       	ldd	r25, Z+13	; 0x0d
    2a6a:	fc 01       	movw	r30, r24
    2a6c:	e0 5c       	subi	r30, 0xC0	; 192
    2a6e:	ff 4f       	sbci	r31, 0xFF	; 255
    2a70:	40 81       	ld	r20, Z
    2a72:	51 81       	ldd	r21, Z+1	; 0x01
    2a74:	fc 01       	movw	r30, r24
    2a76:	ee 5b       	subi	r30, 0xBE	; 190
    2a78:	ff 4f       	sbci	r31, 0xFF	; 255
    2a7a:	20 81       	ld	r18, Z
    2a7c:	31 81       	ldd	r19, Z+1	; 0x01
    2a7e:	42 17       	cp	r20, r18
    2a80:	53 07       	cpc	r21, r19
    2a82:	81 f0       	breq	.+32     	; 0x2aa4 <_ZN14HardwareSerial4readEv+0x40>
    2a84:	a0 81       	ld	r26, Z
    2a86:	b1 81       	ldd	r27, Z+1	; 0x01
    2a88:	a8 0f       	add	r26, r24
    2a8a:	b9 1f       	adc	r27, r25
    2a8c:	8c 91       	ld	r24, X
    2a8e:	20 81       	ld	r18, Z
    2a90:	31 81       	ldd	r19, Z+1	; 0x01
    2a92:	2f 5f       	subi	r18, 0xFF	; 255
    2a94:	3f 4f       	sbci	r19, 0xFF	; 255
    2a96:	2f 73       	andi	r18, 0x3F	; 63
    2a98:	33 27       	eor	r19, r19
    2a9a:	31 83       	std	Z+1, r19	; 0x01
    2a9c:	20 83       	st	Z, r18
    2a9e:	28 2f       	mov	r18, r24
    2aa0:	30 e0       	ldi	r19, 0x00	; 0
    2aa2:	02 c0       	rjmp	.+4      	; 0x2aa8 <_ZN14HardwareSerial4readEv+0x44>
    2aa4:	2f ef       	ldi	r18, 0xFF	; 255
    2aa6:	3f ef       	ldi	r19, 0xFF	; 255
    2aa8:	c9 01       	movw	r24, r18
    2aaa:	08 95       	ret

00002aac <_ZN14HardwareSerial5flushEv>:
    2aac:	fc 01       	movw	r30, r24
    2aae:	81 a1       	ldd	r24, Z+33	; 0x21
    2ab0:	88 23       	and	r24, r24
    2ab2:	29 f0       	breq	.+10     	; 0x2abe <_ZN14HardwareSerial5flushEv+0x12>
    2ab4:	a4 89       	ldd	r26, Z+20	; 0x14
    2ab6:	b5 89       	ldd	r27, Z+21	; 0x15
    2ab8:	8c 91       	ld	r24, X
    2aba:	86 ff       	sbrs	r24, 6
    2abc:	fb cf       	rjmp	.-10     	; 0x2ab4 <_ZN14HardwareSerial5flushEv+0x8>
    2abe:	11 a2       	std	Z+33, r1	; 0x21
    2ac0:	08 95       	ret

00002ac2 <_ZN14HardwareSerial5writeEh>:
    2ac2:	cf 93       	push	r28
    2ac4:	df 93       	push	r29
    2ac6:	fc 01       	movw	r30, r24
    2ac8:	26 85       	ldd	r18, Z+14	; 0x0e
    2aca:	37 85       	ldd	r19, Z+15	; 0x0f
    2acc:	d9 01       	movw	r26, r18
    2ace:	a0 5c       	subi	r26, 0xC0	; 192
    2ad0:	bf 4f       	sbci	r27, 0xFF	; 255
    2ad2:	8d 91       	ld	r24, X+
    2ad4:	9c 91       	ld	r25, X
    2ad6:	11 97       	sbiw	r26, 0x01	; 1
    2ad8:	01 96       	adiw	r24, 0x01	; 1
    2ada:	8f 73       	andi	r24, 0x3F	; 63
    2adc:	99 27       	eor	r25, r25
    2ade:	e9 01       	movw	r28, r18
    2ae0:	ce 5b       	subi	r28, 0xBE	; 190
    2ae2:	df 4f       	sbci	r29, 0xFF	; 255
    2ae4:	48 81       	ld	r20, Y
    2ae6:	59 81       	ldd	r21, Y+1	; 0x01
    2ae8:	84 17       	cp	r24, r20
    2aea:	95 07       	cpc	r25, r21
    2aec:	d9 f3       	breq	.-10     	; 0x2ae4 <_ZN14HardwareSerial5writeEh+0x22>
    2aee:	0d 90       	ld	r0, X+
    2af0:	bc 91       	ld	r27, X
    2af2:	a0 2d       	mov	r26, r0
    2af4:	a2 0f       	add	r26, r18
    2af6:	b3 1f       	adc	r27, r19
    2af8:	6c 93       	st	X, r22
    2afa:	a6 85       	ldd	r26, Z+14	; 0x0e
    2afc:	b7 85       	ldd	r27, Z+15	; 0x0f
    2afe:	a0 5c       	subi	r26, 0xC0	; 192
    2b00:	bf 4f       	sbci	r27, 0xFF	; 255
    2b02:	11 96       	adiw	r26, 0x01	; 1
    2b04:	9c 93       	st	X, r25
    2b06:	8e 93       	st	-X, r24
    2b08:	a6 89       	ldd	r26, Z+22	; 0x16
    2b0a:	b7 89       	ldd	r27, Z+23	; 0x17
    2b0c:	2c 91       	ld	r18, X
    2b0e:	81 e0       	ldi	r24, 0x01	; 1
    2b10:	90 e0       	ldi	r25, 0x00	; 0
    2b12:	07 8c       	ldd	r0, Z+31	; 0x1f
    2b14:	02 c0       	rjmp	.+4      	; 0x2b1a <_ZN14HardwareSerial5writeEh+0x58>
    2b16:	88 0f       	add	r24, r24
    2b18:	99 1f       	adc	r25, r25
    2b1a:	0a 94       	dec	r0
    2b1c:	e2 f7       	brpl	.-8      	; 0x2b16 <_ZN14HardwareSerial5writeEh+0x54>
    2b1e:	28 2b       	or	r18, r24
    2b20:	2c 93       	st	X, r18
    2b22:	81 e0       	ldi	r24, 0x01	; 1
    2b24:	81 a3       	std	Z+33, r24	; 0x21
    2b26:	04 88       	ldd	r0, Z+20	; 0x14
    2b28:	f5 89       	ldd	r31, Z+21	; 0x15
    2b2a:	e0 2d       	mov	r30, r0
    2b2c:	80 81       	ld	r24, Z
    2b2e:	80 64       	ori	r24, 0x40	; 64
    2b30:	80 83       	st	Z, r24
    2b32:	81 e0       	ldi	r24, 0x01	; 1
    2b34:	90 e0       	ldi	r25, 0x00	; 0
    2b36:	df 91       	pop	r29
    2b38:	cf 91       	pop	r28
    2b3a:	08 95       	ret

00002b3c <_Z11serialEventv>:
    2b3c:	08 95       	ret

00002b3e <__vector_18>:
    2b3e:	1f 92       	push	r1
    2b40:	0f 92       	push	r0
    2b42:	0f b6       	in	r0, 0x3f	; 63
    2b44:	0f 92       	push	r0
    2b46:	11 24       	eor	r1, r1
    2b48:	2f 93       	push	r18
    2b4a:	3f 93       	push	r19
    2b4c:	4f 93       	push	r20
    2b4e:	8f 93       	push	r24
    2b50:	9f 93       	push	r25
    2b52:	ef 93       	push	r30
    2b54:	ff 93       	push	r31
    2b56:	80 91 c0 00 	lds	r24, 0x00C0
    2b5a:	82 fd       	sbrc	r24, 2
    2b5c:	1c c0       	rjmp	.+56     	; 0x2b96 <__vector_18+0x58>
    2b5e:	40 91 c6 00 	lds	r20, 0x00C6
    2b62:	80 91 e2 04 	lds	r24, 0x04E2
    2b66:	90 91 e3 04 	lds	r25, 0x04E3
    2b6a:	01 96       	adiw	r24, 0x01	; 1
    2b6c:	8f 73       	andi	r24, 0x3F	; 63
    2b6e:	99 27       	eor	r25, r25
    2b70:	20 91 e4 04 	lds	r18, 0x04E4
    2b74:	30 91 e5 04 	lds	r19, 0x04E5
    2b78:	82 17       	cp	r24, r18
    2b7a:	93 07       	cpc	r25, r19
    2b7c:	71 f0       	breq	.+28     	; 0x2b9a <__vector_18+0x5c>
    2b7e:	e0 91 e2 04 	lds	r30, 0x04E2
    2b82:	f0 91 e3 04 	lds	r31, 0x04E3
    2b86:	ee 55       	subi	r30, 0x5E	; 94
    2b88:	fb 4f       	sbci	r31, 0xFB	; 251
    2b8a:	40 83       	st	Z, r20
    2b8c:	90 93 e3 04 	sts	0x04E3, r25
    2b90:	80 93 e2 04 	sts	0x04E2, r24
    2b94:	02 c0       	rjmp	.+4      	; 0x2b9a <__vector_18+0x5c>
    2b96:	80 91 c6 00 	lds	r24, 0x00C6
    2b9a:	ff 91       	pop	r31
    2b9c:	ef 91       	pop	r30
    2b9e:	9f 91       	pop	r25
    2ba0:	8f 91       	pop	r24
    2ba2:	4f 91       	pop	r20
    2ba4:	3f 91       	pop	r19
    2ba6:	2f 91       	pop	r18
    2ba8:	0f 90       	pop	r0
    2baa:	0f be       	out	0x3f, r0	; 63
    2bac:	0f 90       	pop	r0
    2bae:	1f 90       	pop	r1
    2bb0:	18 95       	reti

00002bb2 <_Z14serialEventRunv>:
    2bb2:	8c e3       	ldi	r24, 0x3C	; 60
    2bb4:	94 e0       	ldi	r25, 0x04	; 4
    2bb6:	27 df       	rcall	.-434    	; 0x2a06 <_ZN14HardwareSerial9availableEv>
    2bb8:	89 2b       	or	r24, r25
    2bba:	09 f0       	breq	.+2      	; 0x2bbe <_Z14serialEventRunv+0xc>
    2bbc:	bf cf       	rjmp	.-130    	; 0x2b3c <_Z11serialEventv>
    2bbe:	08 95       	ret

00002bc0 <__vector_19>:
    2bc0:	1f 92       	push	r1
    2bc2:	0f 92       	push	r0
    2bc4:	0f b6       	in	r0, 0x3f	; 63
    2bc6:	0f 92       	push	r0
    2bc8:	11 24       	eor	r1, r1
    2bca:	2f 93       	push	r18
    2bcc:	3f 93       	push	r19
    2bce:	8f 93       	push	r24
    2bd0:	9f 93       	push	r25
    2bd2:	ef 93       	push	r30
    2bd4:	ff 93       	push	r31
    2bd6:	20 91 9e 04 	lds	r18, 0x049E
    2bda:	30 91 9f 04 	lds	r19, 0x049F
    2bde:	80 91 a0 04 	lds	r24, 0x04A0
    2be2:	90 91 a1 04 	lds	r25, 0x04A1
    2be6:	28 17       	cp	r18, r24
    2be8:	39 07       	cpc	r19, r25
    2bea:	31 f4       	brne	.+12     	; 0x2bf8 <__vector_19+0x38>
    2bec:	80 91 c1 00 	lds	r24, 0x00C1
    2bf0:	8f 7d       	andi	r24, 0xDF	; 223
    2bf2:	80 93 c1 00 	sts	0x00C1, r24
    2bf6:	14 c0       	rjmp	.+40     	; 0x2c20 <__vector_19+0x60>
    2bf8:	e0 91 a0 04 	lds	r30, 0x04A0
    2bfc:	f0 91 a1 04 	lds	r31, 0x04A1
    2c00:	e2 5a       	subi	r30, 0xA2	; 162
    2c02:	fb 4f       	sbci	r31, 0xFB	; 251
    2c04:	20 81       	ld	r18, Z
    2c06:	80 91 a0 04 	lds	r24, 0x04A0
    2c0a:	90 91 a1 04 	lds	r25, 0x04A1
    2c0e:	01 96       	adiw	r24, 0x01	; 1
    2c10:	8f 73       	andi	r24, 0x3F	; 63
    2c12:	99 27       	eor	r25, r25
    2c14:	90 93 a1 04 	sts	0x04A1, r25
    2c18:	80 93 a0 04 	sts	0x04A0, r24
    2c1c:	20 93 c6 00 	sts	0x00C6, r18
    2c20:	ff 91       	pop	r31
    2c22:	ef 91       	pop	r30
    2c24:	9f 91       	pop	r25
    2c26:	8f 91       	pop	r24
    2c28:	3f 91       	pop	r19
    2c2a:	2f 91       	pop	r18
    2c2c:	0f 90       	pop	r0
    2c2e:	0f be       	out	0x3f, r0	; 63
    2c30:	0f 90       	pop	r0
    2c32:	1f 90       	pop	r1
    2c34:	18 95       	reti

00002c36 <_ZN14HardwareSerial5beginEm>:
    2c36:	cf 92       	push	r12
    2c38:	df 92       	push	r13
    2c3a:	ef 92       	push	r14
    2c3c:	ff 92       	push	r15
    2c3e:	cf 93       	push	r28
    2c40:	df 93       	push	r29
    2c42:	ec 01       	movw	r28, r24
    2c44:	6a 01       	movw	r12, r20
    2c46:	7b 01       	movw	r14, r22
    2c48:	41 15       	cp	r20, r1
    2c4a:	81 ee       	ldi	r24, 0xE1	; 225
    2c4c:	58 07       	cpc	r21, r24
    2c4e:	61 05       	cpc	r22, r1
    2c50:	71 05       	cpc	r23, r1
    2c52:	f9 f0       	breq	.+62     	; 0x2c92 <_ZN14HardwareSerial5beginEm+0x5c>
    2c54:	ec 89       	ldd	r30, Y+20	; 0x14
    2c56:	fd 89       	ldd	r31, Y+21	; 0x15
    2c58:	81 e0       	ldi	r24, 0x01	; 1
    2c5a:	90 e0       	ldi	r25, 0x00	; 0
    2c5c:	08 a0       	ldd	r0, Y+32	; 0x20
    2c5e:	02 c0       	rjmp	.+4      	; 0x2c64 <_ZN14HardwareSerial5beginEm+0x2e>
    2c60:	88 0f       	add	r24, r24
    2c62:	99 1f       	adc	r25, r25
    2c64:	0a 94       	dec	r0
    2c66:	e2 f7       	brpl	.-8      	; 0x2c60 <_ZN14HardwareSerial5beginEm+0x2a>
    2c68:	80 83       	st	Z, r24
    2c6a:	60 e0       	ldi	r22, 0x00	; 0
    2c6c:	79 e0       	ldi	r23, 0x09	; 9
    2c6e:	8d e3       	ldi	r24, 0x3D	; 61
    2c70:	90 e0       	ldi	r25, 0x00	; 0
    2c72:	a7 01       	movw	r20, r14
    2c74:	96 01       	movw	r18, r12
    2c76:	0e 94 a4 2a 	call	0x5548	; 0x5548 <__udivmodsi4>
    2c7a:	21 50       	subi	r18, 0x01	; 1
    2c7c:	31 09       	sbc	r19, r1
    2c7e:	41 09       	sbc	r20, r1
    2c80:	51 09       	sbc	r21, r1
    2c82:	56 95       	lsr	r21
    2c84:	47 95       	ror	r20
    2c86:	37 95       	ror	r19
    2c88:	27 95       	ror	r18
    2c8a:	21 15       	cp	r18, r1
    2c8c:	80 e1       	ldi	r24, 0x10	; 16
    2c8e:	38 07       	cpc	r19, r24
    2c90:	98 f0       	brcs	.+38     	; 0x2cb8 <_ZN14HardwareSerial5beginEm+0x82>
    2c92:	ec 89       	ldd	r30, Y+20	; 0x14
    2c94:	fd 89       	ldd	r31, Y+21	; 0x15
    2c96:	10 82       	st	Z, r1
    2c98:	60 e8       	ldi	r22, 0x80	; 128
    2c9a:	74 e8       	ldi	r23, 0x84	; 132
    2c9c:	8e e1       	ldi	r24, 0x1E	; 30
    2c9e:	90 e0       	ldi	r25, 0x00	; 0
    2ca0:	a7 01       	movw	r20, r14
    2ca2:	96 01       	movw	r18, r12
    2ca4:	0e 94 a4 2a 	call	0x5548	; 0x5548 <__udivmodsi4>
    2ca8:	21 50       	subi	r18, 0x01	; 1
    2caa:	31 09       	sbc	r19, r1
    2cac:	41 09       	sbc	r20, r1
    2cae:	51 09       	sbc	r21, r1
    2cb0:	56 95       	lsr	r21
    2cb2:	47 95       	ror	r20
    2cb4:	37 95       	ror	r19
    2cb6:	27 95       	ror	r18
    2cb8:	e8 89       	ldd	r30, Y+16	; 0x10
    2cba:	f9 89       	ldd	r31, Y+17	; 0x11
    2cbc:	30 83       	st	Z, r19
    2cbe:	ea 89       	ldd	r30, Y+18	; 0x12
    2cc0:	fb 89       	ldd	r31, Y+19	; 0x13
    2cc2:	20 83       	st	Z, r18
    2cc4:	19 a2       	std	Y+33, r1	; 0x21
    2cc6:	ee 89       	ldd	r30, Y+22	; 0x16
    2cc8:	ff 89       	ldd	r31, Y+23	; 0x17
    2cca:	40 81       	ld	r20, Z
    2ccc:	81 e0       	ldi	r24, 0x01	; 1
    2cce:	90 e0       	ldi	r25, 0x00	; 0
    2cd0:	9c 01       	movw	r18, r24
    2cd2:	0c 8c       	ldd	r0, Y+28	; 0x1c
    2cd4:	02 c0       	rjmp	.+4      	; 0x2cda <_ZN14HardwareSerial5beginEm+0xa4>
    2cd6:	22 0f       	add	r18, r18
    2cd8:	33 1f       	adc	r19, r19
    2cda:	0a 94       	dec	r0
    2cdc:	e2 f7       	brpl	.-8      	; 0x2cd6 <_ZN14HardwareSerial5beginEm+0xa0>
    2cde:	42 2b       	or	r20, r18
    2ce0:	40 83       	st	Z, r20
    2ce2:	ee 89       	ldd	r30, Y+22	; 0x16
    2ce4:	ff 89       	ldd	r31, Y+23	; 0x17
    2ce6:	40 81       	ld	r20, Z
    2ce8:	9c 01       	movw	r18, r24
    2cea:	0d 8c       	ldd	r0, Y+29	; 0x1d
    2cec:	02 c0       	rjmp	.+4      	; 0x2cf2 <_ZN14HardwareSerial5beginEm+0xbc>
    2cee:	22 0f       	add	r18, r18
    2cf0:	33 1f       	adc	r19, r19
    2cf2:	0a 94       	dec	r0
    2cf4:	e2 f7       	brpl	.-8      	; 0x2cee <_ZN14HardwareSerial5beginEm+0xb8>
    2cf6:	42 2b       	or	r20, r18
    2cf8:	40 83       	st	Z, r20
    2cfa:	ee 89       	ldd	r30, Y+22	; 0x16
    2cfc:	ff 89       	ldd	r31, Y+23	; 0x17
    2cfe:	40 81       	ld	r20, Z
    2d00:	9c 01       	movw	r18, r24
    2d02:	0e 8c       	ldd	r0, Y+30	; 0x1e
    2d04:	02 c0       	rjmp	.+4      	; 0x2d0a <_ZN14HardwareSerial5beginEm+0xd4>
    2d06:	22 0f       	add	r18, r18
    2d08:	33 1f       	adc	r19, r19
    2d0a:	0a 94       	dec	r0
    2d0c:	e2 f7       	brpl	.-8      	; 0x2d06 <_ZN14HardwareSerial5beginEm+0xd0>
    2d0e:	42 2b       	or	r20, r18
    2d10:	40 83       	st	Z, r20
    2d12:	ee 89       	ldd	r30, Y+22	; 0x16
    2d14:	ff 89       	ldd	r31, Y+23	; 0x17
    2d16:	20 81       	ld	r18, Z
    2d18:	0f 8c       	ldd	r0, Y+31	; 0x1f
    2d1a:	02 c0       	rjmp	.+4      	; 0x2d20 <_ZN14HardwareSerial5beginEm+0xea>
    2d1c:	88 0f       	add	r24, r24
    2d1e:	99 1f       	adc	r25, r25
    2d20:	0a 94       	dec	r0
    2d22:	e2 f7       	brpl	.-8      	; 0x2d1c <_ZN14HardwareSerial5beginEm+0xe6>
    2d24:	80 95       	com	r24
    2d26:	82 23       	and	r24, r18
    2d28:	80 83       	st	Z, r24
    2d2a:	df 91       	pop	r29
    2d2c:	cf 91       	pop	r28
    2d2e:	ff 90       	pop	r15
    2d30:	ef 90       	pop	r14
    2d32:	df 90       	pop	r13
    2d34:	cf 90       	pop	r12
    2d36:	08 95       	ret

00002d38 <_GLOBAL__sub_I_rx_buffer>:
    2d38:	10 92 3f 04 	sts	0x043F, r1
    2d3c:	10 92 3e 04 	sts	0x043E, r1
    2d40:	88 ee       	ldi	r24, 0xE8	; 232
    2d42:	93 e0       	ldi	r25, 0x03	; 3
    2d44:	a0 e0       	ldi	r26, 0x00	; 0
    2d46:	b0 e0       	ldi	r27, 0x00	; 0
    2d48:	80 93 40 04 	sts	0x0440, r24
    2d4c:	90 93 41 04 	sts	0x0441, r25
    2d50:	a0 93 42 04 	sts	0x0442, r26
    2d54:	b0 93 43 04 	sts	0x0443, r27
    2d58:	80 e0       	ldi	r24, 0x00	; 0
    2d5a:	92 e0       	ldi	r25, 0x02	; 2
    2d5c:	90 93 3d 04 	sts	0x043D, r25
    2d60:	80 93 3c 04 	sts	0x043C, r24
    2d64:	82 ea       	ldi	r24, 0xA2	; 162
    2d66:	94 e0       	ldi	r25, 0x04	; 4
    2d68:	90 93 49 04 	sts	0x0449, r25
    2d6c:	80 93 48 04 	sts	0x0448, r24
    2d70:	8e e5       	ldi	r24, 0x5E	; 94
    2d72:	94 e0       	ldi	r25, 0x04	; 4
    2d74:	90 93 4b 04 	sts	0x044B, r25
    2d78:	80 93 4a 04 	sts	0x044A, r24
    2d7c:	85 ec       	ldi	r24, 0xC5	; 197
    2d7e:	90 e0       	ldi	r25, 0x00	; 0
    2d80:	90 93 4d 04 	sts	0x044D, r25
    2d84:	80 93 4c 04 	sts	0x044C, r24
    2d88:	84 ec       	ldi	r24, 0xC4	; 196
    2d8a:	90 e0       	ldi	r25, 0x00	; 0
    2d8c:	90 93 4f 04 	sts	0x044F, r25
    2d90:	80 93 4e 04 	sts	0x044E, r24
    2d94:	80 ec       	ldi	r24, 0xC0	; 192
    2d96:	90 e0       	ldi	r25, 0x00	; 0
    2d98:	90 93 51 04 	sts	0x0451, r25
    2d9c:	80 93 50 04 	sts	0x0450, r24
    2da0:	81 ec       	ldi	r24, 0xC1	; 193
    2da2:	90 e0       	ldi	r25, 0x00	; 0
    2da4:	90 93 53 04 	sts	0x0453, r25
    2da8:	80 93 52 04 	sts	0x0452, r24
    2dac:	82 ec       	ldi	r24, 0xC2	; 194
    2dae:	90 e0       	ldi	r25, 0x00	; 0
    2db0:	90 93 55 04 	sts	0x0455, r25
    2db4:	80 93 54 04 	sts	0x0454, r24
    2db8:	86 ec       	ldi	r24, 0xC6	; 198
    2dba:	90 e0       	ldi	r25, 0x00	; 0
    2dbc:	90 93 57 04 	sts	0x0457, r25
    2dc0:	80 93 56 04 	sts	0x0456, r24
    2dc4:	84 e0       	ldi	r24, 0x04	; 4
    2dc6:	80 93 58 04 	sts	0x0458, r24
    2dca:	83 e0       	ldi	r24, 0x03	; 3
    2dcc:	80 93 59 04 	sts	0x0459, r24
    2dd0:	87 e0       	ldi	r24, 0x07	; 7
    2dd2:	80 93 5a 04 	sts	0x045A, r24
    2dd6:	85 e0       	ldi	r24, 0x05	; 5
    2dd8:	80 93 5b 04 	sts	0x045B, r24
    2ddc:	81 e0       	ldi	r24, 0x01	; 1
    2dde:	80 93 5c 04 	sts	0x045C, r24
    2de2:	08 95       	ret

00002de4 <main>:
    2de4:	1e d2       	rcall	.+1084   	; 0x3222 <init>
    2de6:	0e 94 1f 07 	call	0xe3e	; 0xe3e <setup>
    2dea:	c9 ed       	ldi	r28, 0xD9	; 217
    2dec:	d5 e1       	ldi	r29, 0x15	; 21
    2dee:	0e 94 cd 05 	call	0xb9a	; 0xb9a <loop>
    2df2:	20 97       	sbiw	r28, 0x00	; 0
    2df4:	e1 f3       	breq	.-8      	; 0x2dee <main+0xa>
    2df6:	dd de       	rcall	.-582    	; 0x2bb2 <_Z14serialEventRunv>
    2df8:	fa cf       	rjmp	.-12     	; 0x2dee <main+0xa>

00002dfa <_ZdlPv>:
    2dfa:	e6 c2       	rjmp	.+1484   	; 0x33c8 <free>

00002dfc <__cxa_pure_virtual>:
    2dfc:	08 95       	ret

00002dfe <_ZN5Print5writeEPKhj>:
    2dfe:	cf 92       	push	r12
    2e00:	df 92       	push	r13
    2e02:	ef 92       	push	r14
    2e04:	ff 92       	push	r15
    2e06:	0f 93       	push	r16
    2e08:	1f 93       	push	r17
    2e0a:	cf 93       	push	r28
    2e0c:	df 93       	push	r29
    2e0e:	6c 01       	movw	r12, r24
    2e10:	eb 01       	movw	r28, r22
    2e12:	7a 01       	movw	r14, r20
    2e14:	e6 0e       	add	r14, r22
    2e16:	f7 1e       	adc	r15, r23
    2e18:	00 e0       	ldi	r16, 0x00	; 0
    2e1a:	10 e0       	ldi	r17, 0x00	; 0
    2e1c:	0b c0       	rjmp	.+22     	; 0x2e34 <_ZN5Print5writeEPKhj+0x36>
    2e1e:	69 91       	ld	r22, Y+
    2e20:	d6 01       	movw	r26, r12
    2e22:	ed 91       	ld	r30, X+
    2e24:	fc 91       	ld	r31, X
    2e26:	01 90       	ld	r0, Z+
    2e28:	f0 81       	ld	r31, Z
    2e2a:	e0 2d       	mov	r30, r0
    2e2c:	c6 01       	movw	r24, r12
    2e2e:	09 95       	icall
    2e30:	08 0f       	add	r16, r24
    2e32:	19 1f       	adc	r17, r25
    2e34:	ce 15       	cp	r28, r14
    2e36:	df 05       	cpc	r29, r15
    2e38:	91 f7       	brne	.-28     	; 0x2e1e <_ZN5Print5writeEPKhj+0x20>
    2e3a:	c8 01       	movw	r24, r16
    2e3c:	df 91       	pop	r29
    2e3e:	cf 91       	pop	r28
    2e40:	1f 91       	pop	r17
    2e42:	0f 91       	pop	r16
    2e44:	ff 90       	pop	r15
    2e46:	ef 90       	pop	r14
    2e48:	df 90       	pop	r13
    2e4a:	cf 90       	pop	r12
    2e4c:	08 95       	ret

00002e4e <_ZN5Print5writeEPKc>:
    2e4e:	61 15       	cp	r22, r1
    2e50:	71 05       	cpc	r23, r1
    2e52:	81 f0       	breq	.+32     	; 0x2e74 <_ZN5Print5writeEPKc+0x26>
    2e54:	db 01       	movw	r26, r22
    2e56:	0d 90       	ld	r0, X+
    2e58:	00 20       	and	r0, r0
    2e5a:	e9 f7       	brne	.-6      	; 0x2e56 <_ZN5Print5writeEPKc+0x8>
    2e5c:	ad 01       	movw	r20, r26
    2e5e:	41 50       	subi	r20, 0x01	; 1
    2e60:	51 09       	sbc	r21, r1
    2e62:	46 1b       	sub	r20, r22
    2e64:	57 0b       	sbc	r21, r23
    2e66:	dc 01       	movw	r26, r24
    2e68:	ed 91       	ld	r30, X+
    2e6a:	fc 91       	ld	r31, X
    2e6c:	02 80       	ldd	r0, Z+2	; 0x02
    2e6e:	f3 81       	ldd	r31, Z+3	; 0x03
    2e70:	e0 2d       	mov	r30, r0
    2e72:	09 94       	ijmp
    2e74:	80 e0       	ldi	r24, 0x00	; 0
    2e76:	90 e0       	ldi	r25, 0x00	; 0
    2e78:	08 95       	ret

00002e7a <_ZN5Print5printEPK19__FlashStringHelper>:
    2e7a:	ef 92       	push	r14
    2e7c:	ff 92       	push	r15
    2e7e:	0f 93       	push	r16
    2e80:	1f 93       	push	r17
    2e82:	cf 93       	push	r28
    2e84:	df 93       	push	r29
    2e86:	7c 01       	movw	r14, r24
    2e88:	eb 01       	movw	r28, r22
    2e8a:	00 e0       	ldi	r16, 0x00	; 0
    2e8c:	10 e0       	ldi	r17, 0x00	; 0
    2e8e:	fe 01       	movw	r30, r28
    2e90:	21 96       	adiw	r28, 0x01	; 1
    2e92:	64 91       	lpm	r22, Z
    2e94:	66 23       	and	r22, r22
    2e96:	51 f0       	breq	.+20     	; 0x2eac <_ZN5Print5printEPK19__FlashStringHelper+0x32>
    2e98:	f7 01       	movw	r30, r14
    2e9a:	a0 81       	ld	r26, Z
    2e9c:	b1 81       	ldd	r27, Z+1	; 0x01
    2e9e:	ed 91       	ld	r30, X+
    2ea0:	fc 91       	ld	r31, X
    2ea2:	c7 01       	movw	r24, r14
    2ea4:	09 95       	icall
    2ea6:	08 0f       	add	r16, r24
    2ea8:	19 1f       	adc	r17, r25
    2eaa:	f1 cf       	rjmp	.-30     	; 0x2e8e <_ZN5Print5printEPK19__FlashStringHelper+0x14>
    2eac:	c8 01       	movw	r24, r16
    2eae:	df 91       	pop	r29
    2eb0:	cf 91       	pop	r28
    2eb2:	1f 91       	pop	r17
    2eb4:	0f 91       	pop	r16
    2eb6:	ff 90       	pop	r15
    2eb8:	ef 90       	pop	r14
    2eba:	08 95       	ret

00002ebc <_ZN5Print5printEPKc>:
    2ebc:	c8 cf       	rjmp	.-112    	; 0x2e4e <_ZN5Print5writeEPKc>

00002ebe <_ZN5Print5printEc>:
    2ebe:	dc 01       	movw	r26, r24
    2ec0:	ed 91       	ld	r30, X+
    2ec2:	fc 91       	ld	r31, X
    2ec4:	01 90       	ld	r0, Z+
    2ec6:	f0 81       	ld	r31, Z
    2ec8:	e0 2d       	mov	r30, r0
    2eca:	09 94       	ijmp

00002ecc <_ZN5Print7printlnEv>:
    2ecc:	0f 93       	push	r16
    2ece:	1f 93       	push	r17
    2ed0:	cf 93       	push	r28
    2ed2:	df 93       	push	r29
    2ed4:	ec 01       	movw	r28, r24
    2ed6:	6d e0       	ldi	r22, 0x0D	; 13
    2ed8:	f2 df       	rcall	.-28     	; 0x2ebe <_ZN5Print5printEc>
    2eda:	8c 01       	movw	r16, r24
    2edc:	6a e0       	ldi	r22, 0x0A	; 10
    2ede:	ce 01       	movw	r24, r28
    2ee0:	ee df       	rcall	.-36     	; 0x2ebe <_ZN5Print5printEc>
    2ee2:	9c 01       	movw	r18, r24
    2ee4:	20 0f       	add	r18, r16
    2ee6:	31 1f       	adc	r19, r17
    2ee8:	c9 01       	movw	r24, r18
    2eea:	df 91       	pop	r29
    2eec:	cf 91       	pop	r28
    2eee:	1f 91       	pop	r17
    2ef0:	0f 91       	pop	r16
    2ef2:	08 95       	ret

00002ef4 <_ZN5Print7printlnEPKc>:
    2ef4:	0f 93       	push	r16
    2ef6:	1f 93       	push	r17
    2ef8:	cf 93       	push	r28
    2efa:	df 93       	push	r29
    2efc:	ec 01       	movw	r28, r24
    2efe:	a7 df       	rcall	.-178    	; 0x2e4e <_ZN5Print5writeEPKc>
    2f00:	8c 01       	movw	r16, r24
    2f02:	ce 01       	movw	r24, r28
    2f04:	e3 df       	rcall	.-58     	; 0x2ecc <_ZN5Print7printlnEv>
    2f06:	98 01       	movw	r18, r16
    2f08:	28 0f       	add	r18, r24
    2f0a:	39 1f       	adc	r19, r25
    2f0c:	c9 01       	movw	r24, r18
    2f0e:	df 91       	pop	r29
    2f10:	cf 91       	pop	r28
    2f12:	1f 91       	pop	r17
    2f14:	0f 91       	pop	r16
    2f16:	08 95       	ret

00002f18 <_ZN5Print11printNumberEmh>:
    2f18:	4f 92       	push	r4
    2f1a:	5f 92       	push	r5
    2f1c:	6f 92       	push	r6
    2f1e:	7f 92       	push	r7
    2f20:	9f 92       	push	r9
    2f22:	af 92       	push	r10
    2f24:	bf 92       	push	r11
    2f26:	cf 92       	push	r12
    2f28:	df 92       	push	r13
    2f2a:	ef 92       	push	r14
    2f2c:	ff 92       	push	r15
    2f2e:	0f 93       	push	r16
    2f30:	1f 93       	push	r17
    2f32:	cf 93       	push	r28
    2f34:	df 93       	push	r29
    2f36:	cd b7       	in	r28, 0x3d	; 61
    2f38:	de b7       	in	r29, 0x3e	; 62
    2f3a:	a1 97       	sbiw	r28, 0x21	; 33
    2f3c:	0f b6       	in	r0, 0x3f	; 63
    2f3e:	f8 94       	cli
    2f40:	de bf       	out	0x3e, r29	; 62
    2f42:	0f be       	out	0x3f, r0	; 63
    2f44:	cd bf       	out	0x3d, r28	; 61
    2f46:	5c 01       	movw	r10, r24
    2f48:	6a 01       	movw	r12, r20
    2f4a:	7b 01       	movw	r14, r22
    2f4c:	92 2e       	mov	r9, r18
    2f4e:	19 a2       	std	Y+33, r1	; 0x21
    2f50:	81 e0       	ldi	r24, 0x01	; 1
    2f52:	82 17       	cp	r24, r18
    2f54:	10 f0       	brcs	.+4      	; 0x2f5a <_ZN5Print11printNumberEmh+0x42>
    2f56:	8a e0       	ldi	r24, 0x0A	; 10
    2f58:	98 2e       	mov	r9, r24
    2f5a:	8e 01       	movw	r16, r28
    2f5c:	0f 5d       	subi	r16, 0xDF	; 223
    2f5e:	1f 4f       	sbci	r17, 0xFF	; 255
    2f60:	49 2c       	mov	r4, r9
    2f62:	51 2c       	mov	r5, r1
    2f64:	61 2c       	mov	r6, r1
    2f66:	71 2c       	mov	r7, r1
    2f68:	c7 01       	movw	r24, r14
    2f6a:	b6 01       	movw	r22, r12
    2f6c:	a3 01       	movw	r20, r6
    2f6e:	92 01       	movw	r18, r4
    2f70:	0e 94 a4 2a 	call	0x5548	; 0x5548 <__udivmodsi4>
    2f74:	8c 2d       	mov	r24, r12
    2f76:	92 9e       	mul	r9, r18
    2f78:	80 19       	sub	r24, r0
    2f7a:	11 24       	eor	r1, r1
    2f7c:	01 50       	subi	r16, 0x01	; 1
    2f7e:	11 09       	sbc	r17, r1
    2f80:	8a 30       	cpi	r24, 0x0A	; 10
    2f82:	10 f4       	brcc	.+4      	; 0x2f88 <_ZN5Print11printNumberEmh+0x70>
    2f84:	80 5d       	subi	r24, 0xD0	; 208
    2f86:	01 c0       	rjmp	.+2      	; 0x2f8a <_ZN5Print11printNumberEmh+0x72>
    2f88:	89 5c       	subi	r24, 0xC9	; 201
    2f8a:	f8 01       	movw	r30, r16
    2f8c:	80 83       	st	Z, r24
    2f8e:	69 01       	movw	r12, r18
    2f90:	7a 01       	movw	r14, r20
    2f92:	c1 14       	cp	r12, r1
    2f94:	d1 04       	cpc	r13, r1
    2f96:	e1 04       	cpc	r14, r1
    2f98:	f1 04       	cpc	r15, r1
    2f9a:	31 f7       	brne	.-52     	; 0x2f68 <_ZN5Print11printNumberEmh+0x50>
    2f9c:	b8 01       	movw	r22, r16
    2f9e:	c5 01       	movw	r24, r10
    2fa0:	56 df       	rcall	.-340    	; 0x2e4e <_ZN5Print5writeEPKc>
    2fa2:	a1 96       	adiw	r28, 0x21	; 33
    2fa4:	0f b6       	in	r0, 0x3f	; 63
    2fa6:	f8 94       	cli
    2fa8:	de bf       	out	0x3e, r29	; 62
    2faa:	0f be       	out	0x3f, r0	; 63
    2fac:	cd bf       	out	0x3d, r28	; 61
    2fae:	df 91       	pop	r29
    2fb0:	cf 91       	pop	r28
    2fb2:	1f 91       	pop	r17
    2fb4:	0f 91       	pop	r16
    2fb6:	ff 90       	pop	r15
    2fb8:	ef 90       	pop	r14
    2fba:	df 90       	pop	r13
    2fbc:	cf 90       	pop	r12
    2fbe:	bf 90       	pop	r11
    2fc0:	af 90       	pop	r10
    2fc2:	9f 90       	pop	r9
    2fc4:	7f 90       	pop	r7
    2fc6:	6f 90       	pop	r6
    2fc8:	5f 90       	pop	r5
    2fca:	4f 90       	pop	r4
    2fcc:	08 95       	ret

00002fce <_ZN5Print5printEmi>:
    2fce:	21 15       	cp	r18, r1
    2fd0:	31 05       	cpc	r19, r1
    2fd2:	41 f4       	brne	.+16     	; 0x2fe4 <_ZN5Print5printEmi+0x16>
    2fd4:	dc 01       	movw	r26, r24
    2fd6:	ed 91       	ld	r30, X+
    2fd8:	fc 91       	ld	r31, X
    2fda:	01 90       	ld	r0, Z+
    2fdc:	f0 81       	ld	r31, Z
    2fde:	e0 2d       	mov	r30, r0
    2fe0:	64 2f       	mov	r22, r20
    2fe2:	09 94       	ijmp
    2fe4:	99 cf       	rjmp	.-206    	; 0x2f18 <_ZN5Print11printNumberEmh>

00002fe6 <_ZN5Print5printEji>:
    2fe6:	9a 01       	movw	r18, r20
    2fe8:	ab 01       	movw	r20, r22
    2fea:	60 e0       	ldi	r22, 0x00	; 0
    2fec:	70 e0       	ldi	r23, 0x00	; 0
    2fee:	ef cf       	rjmp	.-34     	; 0x2fce <_ZN5Print5printEmi>

00002ff0 <_ZN5Print5printEhi>:
    2ff0:	9a 01       	movw	r18, r20
    2ff2:	46 2f       	mov	r20, r22
    2ff4:	50 e0       	ldi	r21, 0x00	; 0
    2ff6:	60 e0       	ldi	r22, 0x00	; 0
    2ff8:	70 e0       	ldi	r23, 0x00	; 0
    2ffa:	e9 cf       	rjmp	.-46     	; 0x2fce <_ZN5Print5printEmi>

00002ffc <_ZN5Print7printlnEhi>:
    2ffc:	0f 93       	push	r16
    2ffe:	1f 93       	push	r17
    3000:	cf 93       	push	r28
    3002:	df 93       	push	r29
    3004:	ec 01       	movw	r28, r24
    3006:	9a 01       	movw	r18, r20
    3008:	46 2f       	mov	r20, r22
    300a:	50 e0       	ldi	r21, 0x00	; 0
    300c:	60 e0       	ldi	r22, 0x00	; 0
    300e:	70 e0       	ldi	r23, 0x00	; 0
    3010:	de df       	rcall	.-68     	; 0x2fce <_ZN5Print5printEmi>
    3012:	8c 01       	movw	r16, r24
    3014:	ce 01       	movw	r24, r28
    3016:	5a df       	rcall	.-332    	; 0x2ecc <_ZN5Print7printlnEv>
    3018:	98 01       	movw	r18, r16
    301a:	28 0f       	add	r18, r24
    301c:	39 1f       	adc	r19, r25
    301e:	c9 01       	movw	r24, r18
    3020:	df 91       	pop	r29
    3022:	cf 91       	pop	r28
    3024:	1f 91       	pop	r17
    3026:	0f 91       	pop	r16
    3028:	08 95       	ret

0000302a <_ZN5Print5printEli>:
    302a:	cf 92       	push	r12
    302c:	df 92       	push	r13
    302e:	ef 92       	push	r14
    3030:	ff 92       	push	r15
    3032:	0f 93       	push	r16
    3034:	1f 93       	push	r17
    3036:	cf 93       	push	r28
    3038:	df 93       	push	r29
    303a:	ec 01       	movw	r28, r24
    303c:	6a 01       	movw	r12, r20
    303e:	7b 01       	movw	r14, r22
    3040:	21 15       	cp	r18, r1
    3042:	31 05       	cpc	r19, r1
    3044:	79 f4       	brne	.+30     	; 0x3064 <_ZN5Print5printEli+0x3a>
    3046:	e8 81       	ld	r30, Y
    3048:	f9 81       	ldd	r31, Y+1	; 0x01
    304a:	01 90       	ld	r0, Z+
    304c:	f0 81       	ld	r31, Z
    304e:	e0 2d       	mov	r30, r0
    3050:	64 2f       	mov	r22, r20
    3052:	df 91       	pop	r29
    3054:	cf 91       	pop	r28
    3056:	1f 91       	pop	r17
    3058:	0f 91       	pop	r16
    305a:	ff 90       	pop	r15
    305c:	ef 90       	pop	r14
    305e:	df 90       	pop	r13
    3060:	cf 90       	pop	r12
    3062:	09 94       	ijmp
    3064:	2a 30       	cpi	r18, 0x0A	; 10
    3066:	31 05       	cpc	r19, r1
    3068:	19 f4       	brne	.+6      	; 0x3070 <_ZN5Print5printEli+0x46>
    306a:	77 fd       	sbrc	r23, 7
    306c:	0d c0       	rjmp	.+26     	; 0x3088 <_ZN5Print5printEli+0x5e>
    306e:	2a e0       	ldi	r18, 0x0A	; 10
    3070:	b7 01       	movw	r22, r14
    3072:	a6 01       	movw	r20, r12
    3074:	ce 01       	movw	r24, r28
    3076:	df 91       	pop	r29
    3078:	cf 91       	pop	r28
    307a:	1f 91       	pop	r17
    307c:	0f 91       	pop	r16
    307e:	ff 90       	pop	r15
    3080:	ef 90       	pop	r14
    3082:	df 90       	pop	r13
    3084:	cf 90       	pop	r12
    3086:	48 cf       	rjmp	.-368    	; 0x2f18 <_ZN5Print11printNumberEmh>
    3088:	6d e2       	ldi	r22, 0x2D	; 45
    308a:	19 df       	rcall	.-462    	; 0x2ebe <_ZN5Print5printEc>
    308c:	8c 01       	movw	r16, r24
    308e:	44 27       	eor	r20, r20
    3090:	55 27       	eor	r21, r21
    3092:	ba 01       	movw	r22, r20
    3094:	4c 19       	sub	r20, r12
    3096:	5d 09       	sbc	r21, r13
    3098:	6e 09       	sbc	r22, r14
    309a:	7f 09       	sbc	r23, r15
    309c:	2a e0       	ldi	r18, 0x0A	; 10
    309e:	ce 01       	movw	r24, r28
    30a0:	3b df       	rcall	.-394    	; 0x2f18 <_ZN5Print11printNumberEmh>
    30a2:	08 0f       	add	r16, r24
    30a4:	19 1f       	adc	r17, r25
    30a6:	c8 01       	movw	r24, r16
    30a8:	df 91       	pop	r29
    30aa:	cf 91       	pop	r28
    30ac:	1f 91       	pop	r17
    30ae:	0f 91       	pop	r16
    30b0:	ff 90       	pop	r15
    30b2:	ef 90       	pop	r14
    30b4:	df 90       	pop	r13
    30b6:	cf 90       	pop	r12
    30b8:	08 95       	ret

000030ba <__vector_16>:
    30ba:	1f 92       	push	r1
    30bc:	0f 92       	push	r0
    30be:	0f b6       	in	r0, 0x3f	; 63
    30c0:	0f 92       	push	r0
    30c2:	11 24       	eor	r1, r1
    30c4:	2f 93       	push	r18
    30c6:	3f 93       	push	r19
    30c8:	8f 93       	push	r24
    30ca:	9f 93       	push	r25
    30cc:	af 93       	push	r26
    30ce:	bf 93       	push	r27
    30d0:	80 91 e6 04 	lds	r24, 0x04E6
    30d4:	90 91 e7 04 	lds	r25, 0x04E7
    30d8:	a0 91 e8 04 	lds	r26, 0x04E8
    30dc:	b0 91 e9 04 	lds	r27, 0x04E9
    30e0:	30 91 ee 04 	lds	r19, 0x04EE
    30e4:	23 2f       	mov	r18, r19
    30e6:	2d 5f       	subi	r18, 0xFD	; 253
    30e8:	2d 37       	cpi	r18, 0x7D	; 125
    30ea:	20 f4       	brcc	.+8      	; 0x30f4 <__vector_16+0x3a>
    30ec:	01 96       	adiw	r24, 0x01	; 1
    30ee:	a1 1d       	adc	r26, r1
    30f0:	b1 1d       	adc	r27, r1
    30f2:	05 c0       	rjmp	.+10     	; 0x30fe <__vector_16+0x44>
    30f4:	23 2f       	mov	r18, r19
    30f6:	2a 57       	subi	r18, 0x7A	; 122
    30f8:	02 96       	adiw	r24, 0x02	; 2
    30fa:	a1 1d       	adc	r26, r1
    30fc:	b1 1d       	adc	r27, r1
    30fe:	20 93 ee 04 	sts	0x04EE, r18
    3102:	80 93 e6 04 	sts	0x04E6, r24
    3106:	90 93 e7 04 	sts	0x04E7, r25
    310a:	a0 93 e8 04 	sts	0x04E8, r26
    310e:	b0 93 e9 04 	sts	0x04E9, r27
    3112:	80 91 ea 04 	lds	r24, 0x04EA
    3116:	90 91 eb 04 	lds	r25, 0x04EB
    311a:	a0 91 ec 04 	lds	r26, 0x04EC
    311e:	b0 91 ed 04 	lds	r27, 0x04ED
    3122:	01 96       	adiw	r24, 0x01	; 1
    3124:	a1 1d       	adc	r26, r1
    3126:	b1 1d       	adc	r27, r1
    3128:	80 93 ea 04 	sts	0x04EA, r24
    312c:	90 93 eb 04 	sts	0x04EB, r25
    3130:	a0 93 ec 04 	sts	0x04EC, r26
    3134:	b0 93 ed 04 	sts	0x04ED, r27
    3138:	bf 91       	pop	r27
    313a:	af 91       	pop	r26
    313c:	9f 91       	pop	r25
    313e:	8f 91       	pop	r24
    3140:	3f 91       	pop	r19
    3142:	2f 91       	pop	r18
    3144:	0f 90       	pop	r0
    3146:	0f be       	out	0x3f, r0	; 63
    3148:	0f 90       	pop	r0
    314a:	1f 90       	pop	r1
    314c:	18 95       	reti

0000314e <millis>:
    314e:	0f 93       	push	r16
    3150:	1f 93       	push	r17
    3152:	8f b7       	in	r24, 0x3f	; 63
    3154:	f8 94       	cli
    3156:	00 91 e6 04 	lds	r16, 0x04E6
    315a:	10 91 e7 04 	lds	r17, 0x04E7
    315e:	20 91 e8 04 	lds	r18, 0x04E8
    3162:	30 91 e9 04 	lds	r19, 0x04E9
    3166:	8f bf       	out	0x3f, r24	; 63
    3168:	b8 01       	movw	r22, r16
    316a:	c9 01       	movw	r24, r18
    316c:	1f 91       	pop	r17
    316e:	0f 91       	pop	r16
    3170:	08 95       	ret

00003172 <micros>:
    3172:	0f 93       	push	r16
    3174:	1f 93       	push	r17
    3176:	9f b7       	in	r25, 0x3f	; 63
    3178:	f8 94       	cli
    317a:	00 91 ea 04 	lds	r16, 0x04EA
    317e:	10 91 eb 04 	lds	r17, 0x04EB
    3182:	20 91 ec 04 	lds	r18, 0x04EC
    3186:	30 91 ed 04 	lds	r19, 0x04ED
    318a:	86 b5       	in	r24, 0x26	; 38
    318c:	a8 9b       	sbis	0x15, 0	; 21
    318e:	06 c0       	rjmp	.+12     	; 0x319c <micros+0x2a>
    3190:	8f 3f       	cpi	r24, 0xFF	; 255
    3192:	21 f0       	breq	.+8      	; 0x319c <micros+0x2a>
    3194:	0f 5f       	subi	r16, 0xFF	; 255
    3196:	1f 4f       	sbci	r17, 0xFF	; 255
    3198:	2f 4f       	sbci	r18, 0xFF	; 255
    319a:	3f 4f       	sbci	r19, 0xFF	; 255
    319c:	9f bf       	out	0x3f, r25	; 63
    319e:	32 2f       	mov	r19, r18
    31a0:	21 2f       	mov	r18, r17
    31a2:	10 2f       	mov	r17, r16
    31a4:	00 27       	eor	r16, r16
    31a6:	08 0f       	add	r16, r24
    31a8:	11 1d       	adc	r17, r1
    31aa:	21 1d       	adc	r18, r1
    31ac:	31 1d       	adc	r19, r1
    31ae:	42 e0       	ldi	r20, 0x02	; 2
    31b0:	00 0f       	add	r16, r16
    31b2:	11 1f       	adc	r17, r17
    31b4:	22 1f       	adc	r18, r18
    31b6:	33 1f       	adc	r19, r19
    31b8:	4a 95       	dec	r20
    31ba:	d1 f7       	brne	.-12     	; 0x31b0 <micros+0x3e>
    31bc:	b8 01       	movw	r22, r16
    31be:	c9 01       	movw	r24, r18
    31c0:	1f 91       	pop	r17
    31c2:	0f 91       	pop	r16
    31c4:	08 95       	ret

000031c6 <delay>:
    31c6:	cf 92       	push	r12
    31c8:	df 92       	push	r13
    31ca:	ef 92       	push	r14
    31cc:	ff 92       	push	r15
    31ce:	cf 93       	push	r28
    31d0:	df 93       	push	r29
    31d2:	6b 01       	movw	r12, r22
    31d4:	7c 01       	movw	r14, r24
    31d6:	cd df       	rcall	.-102    	; 0x3172 <micros>
    31d8:	eb 01       	movw	r28, r22
    31da:	0d c0       	rjmp	.+26     	; 0x31f6 <delay+0x30>
    31dc:	ca df       	rcall	.-108    	; 0x3172 <micros>
    31de:	6c 1b       	sub	r22, r28
    31e0:	7d 0b       	sbc	r23, r29
    31e2:	68 3e       	cpi	r22, 0xE8	; 232
    31e4:	73 40       	sbci	r23, 0x03	; 3
    31e6:	38 f0       	brcs	.+14     	; 0x31f6 <delay+0x30>
    31e8:	81 e0       	ldi	r24, 0x01	; 1
    31ea:	c8 1a       	sub	r12, r24
    31ec:	d1 08       	sbc	r13, r1
    31ee:	e1 08       	sbc	r14, r1
    31f0:	f1 08       	sbc	r15, r1
    31f2:	c8 51       	subi	r28, 0x18	; 24
    31f4:	dc 4f       	sbci	r29, 0xFC	; 252
    31f6:	c1 14       	cp	r12, r1
    31f8:	d1 04       	cpc	r13, r1
    31fa:	e1 04       	cpc	r14, r1
    31fc:	f1 04       	cpc	r15, r1
    31fe:	71 f7       	brne	.-36     	; 0x31dc <delay+0x16>
    3200:	df 91       	pop	r29
    3202:	cf 91       	pop	r28
    3204:	ff 90       	pop	r15
    3206:	ef 90       	pop	r14
    3208:	df 90       	pop	r13
    320a:	cf 90       	pop	r12
    320c:	08 95       	ret

0000320e <delayMicroseconds>:
    320e:	01 97       	sbiw	r24, 0x01	; 1
    3210:	39 f0       	breq	.+14     	; 0x3220 <delayMicroseconds+0x12>
    3212:	88 0f       	add	r24, r24
    3214:	99 1f       	adc	r25, r25
    3216:	88 0f       	add	r24, r24
    3218:	99 1f       	adc	r25, r25
    321a:	02 97       	sbiw	r24, 0x02	; 2
    321c:	01 97       	sbiw	r24, 0x01	; 1
    321e:	f1 f7       	brne	.-4      	; 0x321c <delayMicroseconds+0xe>
    3220:	08 95       	ret

00003222 <init>:
    3222:	78 94       	sei
    3224:	84 b5       	in	r24, 0x24	; 36
    3226:	82 60       	ori	r24, 0x02	; 2
    3228:	84 bd       	out	0x24, r24	; 36
    322a:	84 b5       	in	r24, 0x24	; 36
    322c:	81 60       	ori	r24, 0x01	; 1
    322e:	84 bd       	out	0x24, r24	; 36
    3230:	85 b5       	in	r24, 0x25	; 37
    3232:	82 60       	ori	r24, 0x02	; 2
    3234:	85 bd       	out	0x25, r24	; 37
    3236:	85 b5       	in	r24, 0x25	; 37
    3238:	81 60       	ori	r24, 0x01	; 1
    323a:	85 bd       	out	0x25, r24	; 37
    323c:	ee e6       	ldi	r30, 0x6E	; 110
    323e:	f0 e0       	ldi	r31, 0x00	; 0
    3240:	80 81       	ld	r24, Z
    3242:	81 60       	ori	r24, 0x01	; 1
    3244:	80 83       	st	Z, r24
    3246:	e1 e8       	ldi	r30, 0x81	; 129
    3248:	f0 e0       	ldi	r31, 0x00	; 0
    324a:	10 82       	st	Z, r1
    324c:	80 81       	ld	r24, Z
    324e:	82 60       	ori	r24, 0x02	; 2
    3250:	80 83       	st	Z, r24
    3252:	80 81       	ld	r24, Z
    3254:	81 60       	ori	r24, 0x01	; 1
    3256:	80 83       	st	Z, r24
    3258:	e0 e8       	ldi	r30, 0x80	; 128
    325a:	f0 e0       	ldi	r31, 0x00	; 0
    325c:	80 81       	ld	r24, Z
    325e:	81 60       	ori	r24, 0x01	; 1
    3260:	80 83       	st	Z, r24
    3262:	e1 eb       	ldi	r30, 0xB1	; 177
    3264:	f0 e0       	ldi	r31, 0x00	; 0
    3266:	80 81       	ld	r24, Z
    3268:	84 60       	ori	r24, 0x04	; 4
    326a:	80 83       	st	Z, r24
    326c:	e0 eb       	ldi	r30, 0xB0	; 176
    326e:	f0 e0       	ldi	r31, 0x00	; 0
    3270:	80 81       	ld	r24, Z
    3272:	81 60       	ori	r24, 0x01	; 1
    3274:	80 83       	st	Z, r24
    3276:	ea e7       	ldi	r30, 0x7A	; 122
    3278:	f0 e0       	ldi	r31, 0x00	; 0
    327a:	80 81       	ld	r24, Z
    327c:	84 60       	ori	r24, 0x04	; 4
    327e:	80 83       	st	Z, r24
    3280:	80 81       	ld	r24, Z
    3282:	82 60       	ori	r24, 0x02	; 2
    3284:	80 83       	st	Z, r24
    3286:	80 81       	ld	r24, Z
    3288:	81 60       	ori	r24, 0x01	; 1
    328a:	80 83       	st	Z, r24
    328c:	80 81       	ld	r24, Z
    328e:	80 68       	ori	r24, 0x80	; 128
    3290:	80 83       	st	Z, r24
    3292:	10 92 c1 00 	sts	0x00C1, r1
    3296:	08 95       	ret

00003298 <turnOffPWM>:
    3298:	83 30       	cpi	r24, 0x03	; 3
    329a:	69 f0       	breq	.+26     	; 0x32b6 <turnOffPWM+0x1e>
    329c:	28 f4       	brcc	.+10     	; 0x32a8 <turnOffPWM+0x10>
    329e:	81 30       	cpi	r24, 0x01	; 1
    32a0:	a1 f0       	breq	.+40     	; 0x32ca <turnOffPWM+0x32>
    32a2:	82 30       	cpi	r24, 0x02	; 2
    32a4:	11 f5       	brne	.+68     	; 0x32ea <turnOffPWM+0x52>
    32a6:	14 c0       	rjmp	.+40     	; 0x32d0 <turnOffPWM+0x38>
    32a8:	86 30       	cpi	r24, 0x06	; 6
    32aa:	b1 f0       	breq	.+44     	; 0x32d8 <turnOffPWM+0x40>
    32ac:	87 30       	cpi	r24, 0x07	; 7
    32ae:	c1 f0       	breq	.+48     	; 0x32e0 <turnOffPWM+0x48>
    32b0:	84 30       	cpi	r24, 0x04	; 4
    32b2:	d9 f4       	brne	.+54     	; 0x32ea <turnOffPWM+0x52>
    32b4:	04 c0       	rjmp	.+8      	; 0x32be <turnOffPWM+0x26>
    32b6:	80 91 80 00 	lds	r24, 0x0080
    32ba:	8f 77       	andi	r24, 0x7F	; 127
    32bc:	03 c0       	rjmp	.+6      	; 0x32c4 <turnOffPWM+0x2c>
    32be:	80 91 80 00 	lds	r24, 0x0080
    32c2:	8f 7d       	andi	r24, 0xDF	; 223
    32c4:	80 93 80 00 	sts	0x0080, r24
    32c8:	08 95       	ret
    32ca:	84 b5       	in	r24, 0x24	; 36
    32cc:	8f 77       	andi	r24, 0x7F	; 127
    32ce:	02 c0       	rjmp	.+4      	; 0x32d4 <turnOffPWM+0x3c>
    32d0:	84 b5       	in	r24, 0x24	; 36
    32d2:	8f 7d       	andi	r24, 0xDF	; 223
    32d4:	84 bd       	out	0x24, r24	; 36
    32d6:	08 95       	ret
    32d8:	80 91 b0 00 	lds	r24, 0x00B0
    32dc:	8f 77       	andi	r24, 0x7F	; 127
    32de:	03 c0       	rjmp	.+6      	; 0x32e6 <turnOffPWM+0x4e>
    32e0:	80 91 b0 00 	lds	r24, 0x00B0
    32e4:	8f 7d       	andi	r24, 0xDF	; 223
    32e6:	80 93 b0 00 	sts	0x00B0, r24
    32ea:	08 95       	ret

000032ec <pinMode>:
    32ec:	cf 93       	push	r28
    32ee:	df 93       	push	r29
    32f0:	90 e0       	ldi	r25, 0x00	; 0
    32f2:	fc 01       	movw	r30, r24
    32f4:	ee 5f       	subi	r30, 0xFE	; 254
    32f6:	fe 4f       	sbci	r31, 0xFE	; 254
    32f8:	44 91       	lpm	r20, Z
    32fa:	fc 01       	movw	r30, r24
    32fc:	ea 5e       	subi	r30, 0xEA	; 234
    32fe:	fe 4f       	sbci	r31, 0xFE	; 254
    3300:	84 91       	lpm	r24, Z
    3302:	88 23       	and	r24, r24
    3304:	41 f1       	breq	.+80     	; 0x3356 <pinMode+0x6a>
    3306:	90 e0       	ldi	r25, 0x00	; 0
    3308:	88 0f       	add	r24, r24
    330a:	99 1f       	adc	r25, r25
    330c:	fc 01       	movw	r30, r24
    330e:	ec 5c       	subi	r30, 0xCC	; 204
    3310:	fe 4f       	sbci	r31, 0xFE	; 254
    3312:	25 91       	lpm	r18, Z+
    3314:	34 91       	lpm	r19, Z
    3316:	d9 01       	movw	r26, r18
    3318:	86 5d       	subi	r24, 0xD6	; 214
    331a:	9e 4f       	sbci	r25, 0xFE	; 254
    331c:	fc 01       	movw	r30, r24
    331e:	85 91       	lpm	r24, Z+
    3320:	94 91       	lpm	r25, Z
    3322:	c8 2f       	mov	r28, r24
    3324:	d9 2f       	mov	r29, r25
    3326:	9f b7       	in	r25, 0x3f	; 63
    3328:	f8 94       	cli
    332a:	8c 91       	ld	r24, X
    332c:	61 11       	cpse	r22, r1
    332e:	06 c0       	rjmp	.+12     	; 0x333c <pinMode+0x50>
    3330:	40 95       	com	r20
    3332:	84 23       	and	r24, r20
    3334:	8c 93       	st	X, r24
    3336:	88 81       	ld	r24, Y
    3338:	84 23       	and	r24, r20
    333a:	08 c0       	rjmp	.+16     	; 0x334c <pinMode+0x60>
    333c:	62 30       	cpi	r22, 0x02	; 2
    333e:	41 f4       	brne	.+16     	; 0x3350 <pinMode+0x64>
    3340:	24 2f       	mov	r18, r20
    3342:	20 95       	com	r18
    3344:	82 23       	and	r24, r18
    3346:	8c 93       	st	X, r24
    3348:	88 81       	ld	r24, Y
    334a:	84 2b       	or	r24, r20
    334c:	88 83       	st	Y, r24
    334e:	02 c0       	rjmp	.+4      	; 0x3354 <pinMode+0x68>
    3350:	84 2b       	or	r24, r20
    3352:	8c 93       	st	X, r24
    3354:	9f bf       	out	0x3f, r25	; 63
    3356:	df 91       	pop	r29
    3358:	cf 91       	pop	r28
    335a:	08 95       	ret

0000335c <digitalWrite>:
    335c:	0f 93       	push	r16
    335e:	1f 93       	push	r17
    3360:	cf 93       	push	r28
    3362:	df 93       	push	r29
    3364:	1f 92       	push	r1
    3366:	cd b7       	in	r28, 0x3d	; 61
    3368:	de b7       	in	r29, 0x3e	; 62
    336a:	28 2f       	mov	r18, r24
    336c:	30 e0       	ldi	r19, 0x00	; 0
    336e:	f9 01       	movw	r30, r18
    3370:	e2 51       	subi	r30, 0x12	; 18
    3372:	ff 4f       	sbci	r31, 0xFF	; 255
    3374:	84 91       	lpm	r24, Z
    3376:	f9 01       	movw	r30, r18
    3378:	ee 5f       	subi	r30, 0xFE	; 254
    337a:	fe 4f       	sbci	r31, 0xFE	; 254
    337c:	14 91       	lpm	r17, Z
    337e:	f9 01       	movw	r30, r18
    3380:	ea 5e       	subi	r30, 0xEA	; 234
    3382:	fe 4f       	sbci	r31, 0xFE	; 254
    3384:	04 91       	lpm	r16, Z
    3386:	00 23       	and	r16, r16
    3388:	c9 f0       	breq	.+50     	; 0x33bc <digitalWrite+0x60>
    338a:	88 23       	and	r24, r24
    338c:	19 f0       	breq	.+6      	; 0x3394 <digitalWrite+0x38>
    338e:	69 83       	std	Y+1, r22	; 0x01
    3390:	83 df       	rcall	.-250    	; 0x3298 <turnOffPWM>
    3392:	69 81       	ldd	r22, Y+1	; 0x01
    3394:	e0 2f       	mov	r30, r16
    3396:	f0 e0       	ldi	r31, 0x00	; 0
    3398:	ee 0f       	add	r30, r30
    339a:	ff 1f       	adc	r31, r31
    339c:	e6 5d       	subi	r30, 0xD6	; 214
    339e:	fe 4f       	sbci	r31, 0xFE	; 254
    33a0:	85 91       	lpm	r24, Z+
    33a2:	94 91       	lpm	r25, Z
    33a4:	dc 01       	movw	r26, r24
    33a6:	9f b7       	in	r25, 0x3f	; 63
    33a8:	f8 94       	cli
    33aa:	8c 91       	ld	r24, X
    33ac:	61 11       	cpse	r22, r1
    33ae:	03 c0       	rjmp	.+6      	; 0x33b6 <digitalWrite+0x5a>
    33b0:	10 95       	com	r17
    33b2:	81 23       	and	r24, r17
    33b4:	01 c0       	rjmp	.+2      	; 0x33b8 <digitalWrite+0x5c>
    33b6:	81 2b       	or	r24, r17
    33b8:	8c 93       	st	X, r24
    33ba:	9f bf       	out	0x3f, r25	; 63
    33bc:	0f 90       	pop	r0
    33be:	df 91       	pop	r29
    33c0:	cf 91       	pop	r28
    33c2:	1f 91       	pop	r17
    33c4:	0f 91       	pop	r16
    33c6:	08 95       	ret

000033c8 <free>:
    33c8:	ef 92       	push	r14
    33ca:	ff 92       	push	r15
    33cc:	0f 93       	push	r16
    33ce:	1f 93       	push	r17
    33d0:	cf 93       	push	r28
    33d2:	df 93       	push	r29
    33d4:	00 97       	sbiw	r24, 0x00	; 0
    33d6:	09 f4       	brne	.+2      	; 0x33da <free+0x12>
    33d8:	8f c0       	rjmp	.+286    	; 0x34f8 <free+0x130>
    33da:	dc 01       	movw	r26, r24
    33dc:	12 97       	sbiw	r26, 0x02	; 2
    33de:	13 96       	adiw	r26, 0x03	; 3
    33e0:	1c 92       	st	X, r1
    33e2:	1e 92       	st	-X, r1
    33e4:	12 97       	sbiw	r26, 0x02	; 2
    33e6:	e0 90 f5 04 	lds	r14, 0x04F5
    33ea:	f0 90 f6 04 	lds	r15, 0x04F6
    33ee:	e1 14       	cp	r14, r1
    33f0:	f1 04       	cpc	r15, r1
    33f2:	89 f4       	brne	.+34     	; 0x3416 <free+0x4e>
    33f4:	2d 91       	ld	r18, X+
    33f6:	3c 91       	ld	r19, X
    33f8:	11 97       	sbiw	r26, 0x01	; 1
    33fa:	28 0f       	add	r18, r24
    33fc:	39 1f       	adc	r19, r25
    33fe:	80 91 16 01 	lds	r24, 0x0116
    3402:	90 91 17 01 	lds	r25, 0x0117
    3406:	82 17       	cp	r24, r18
    3408:	93 07       	cpc	r25, r19
    340a:	89 f5       	brne	.+98     	; 0x346e <free+0xa6>
    340c:	b0 93 17 01 	sts	0x0117, r27
    3410:	a0 93 16 01 	sts	0x0116, r26
    3414:	71 c0       	rjmp	.+226    	; 0x34f8 <free+0x130>
    3416:	e7 01       	movw	r28, r14
    3418:	20 e0       	ldi	r18, 0x00	; 0
    341a:	30 e0       	ldi	r19, 0x00	; 0
    341c:	01 c0       	rjmp	.+2      	; 0x3420 <free+0x58>
    341e:	ea 01       	movw	r28, r20
    3420:	ca 17       	cp	r28, r26
    3422:	db 07       	cpc	r29, r27
    3424:	38 f4       	brcc	.+14     	; 0x3434 <free+0x6c>
    3426:	4a 81       	ldd	r20, Y+2	; 0x02
    3428:	5b 81       	ldd	r21, Y+3	; 0x03
    342a:	9e 01       	movw	r18, r28
    342c:	41 15       	cp	r20, r1
    342e:	51 05       	cpc	r21, r1
    3430:	b1 f7       	brne	.-20     	; 0x341e <free+0x56>
    3432:	22 c0       	rjmp	.+68     	; 0x3478 <free+0xb0>
    3434:	bc 01       	movw	r22, r24
    3436:	62 50       	subi	r22, 0x02	; 2
    3438:	71 09       	sbc	r23, r1
    343a:	fb 01       	movw	r30, r22
    343c:	d3 83       	std	Z+3, r29	; 0x03
    343e:	c2 83       	std	Z+2, r28	; 0x02
    3440:	00 81       	ld	r16, Z
    3442:	11 81       	ldd	r17, Z+1	; 0x01
    3444:	ac 01       	movw	r20, r24
    3446:	40 0f       	add	r20, r16
    3448:	51 1f       	adc	r21, r17
    344a:	4c 17       	cp	r20, r28
    344c:	5d 07       	cpc	r21, r29
    344e:	61 f4       	brne	.+24     	; 0x3468 <free+0xa0>
    3450:	48 81       	ld	r20, Y
    3452:	59 81       	ldd	r21, Y+1	; 0x01
    3454:	40 0f       	add	r20, r16
    3456:	51 1f       	adc	r21, r17
    3458:	4e 5f       	subi	r20, 0xFE	; 254
    345a:	5f 4f       	sbci	r21, 0xFF	; 255
    345c:	51 83       	std	Z+1, r21	; 0x01
    345e:	40 83       	st	Z, r20
    3460:	4a 81       	ldd	r20, Y+2	; 0x02
    3462:	5b 81       	ldd	r21, Y+3	; 0x03
    3464:	53 83       	std	Z+3, r21	; 0x03
    3466:	42 83       	std	Z+2, r20	; 0x02
    3468:	21 15       	cp	r18, r1
    346a:	31 05       	cpc	r19, r1
    346c:	29 f4       	brne	.+10     	; 0x3478 <free+0xb0>
    346e:	b0 93 f6 04 	sts	0x04F6, r27
    3472:	a0 93 f5 04 	sts	0x04F5, r26
    3476:	40 c0       	rjmp	.+128    	; 0x34f8 <free+0x130>
    3478:	f9 01       	movw	r30, r18
    347a:	b3 83       	std	Z+3, r27	; 0x03
    347c:	a2 83       	std	Z+2, r26	; 0x02
    347e:	e9 01       	movw	r28, r18
    3480:	69 91       	ld	r22, Y+
    3482:	79 91       	ld	r23, Y+
    3484:	c6 0f       	add	r28, r22
    3486:	d7 1f       	adc	r29, r23
    3488:	ac 17       	cp	r26, r28
    348a:	bd 07       	cpc	r27, r29
    348c:	79 f4       	brne	.+30     	; 0x34ac <free+0xe4>
    348e:	dc 01       	movw	r26, r24
    3490:	5e 91       	ld	r21, -X
    3492:	4e 91       	ld	r20, -X
    3494:	46 0f       	add	r20, r22
    3496:	57 1f       	adc	r21, r23
    3498:	4e 5f       	subi	r20, 0xFE	; 254
    349a:	5f 4f       	sbci	r21, 0xFF	; 255
    349c:	51 83       	std	Z+1, r21	; 0x01
    349e:	40 83       	st	Z, r20
    34a0:	12 96       	adiw	r26, 0x02	; 2
    34a2:	8d 91       	ld	r24, X+
    34a4:	9c 91       	ld	r25, X
    34a6:	13 97       	sbiw	r26, 0x03	; 3
    34a8:	93 83       	std	Z+3, r25	; 0x03
    34aa:	82 83       	std	Z+2, r24	; 0x02
    34ac:	a0 e0       	ldi	r26, 0x00	; 0
    34ae:	b0 e0       	ldi	r27, 0x00	; 0
    34b0:	02 c0       	rjmp	.+4      	; 0x34b6 <free+0xee>
    34b2:	d7 01       	movw	r26, r14
    34b4:	7c 01       	movw	r14, r24
    34b6:	f7 01       	movw	r30, r14
    34b8:	82 81       	ldd	r24, Z+2	; 0x02
    34ba:	93 81       	ldd	r25, Z+3	; 0x03
    34bc:	00 97       	sbiw	r24, 0x00	; 0
    34be:	c9 f7       	brne	.-14     	; 0x34b2 <free+0xea>
    34c0:	c7 01       	movw	r24, r14
    34c2:	02 96       	adiw	r24, 0x02	; 2
    34c4:	20 81       	ld	r18, Z
    34c6:	31 81       	ldd	r19, Z+1	; 0x01
    34c8:	82 0f       	add	r24, r18
    34ca:	93 1f       	adc	r25, r19
    34cc:	20 91 16 01 	lds	r18, 0x0116
    34d0:	30 91 17 01 	lds	r19, 0x0117
    34d4:	28 17       	cp	r18, r24
    34d6:	39 07       	cpc	r19, r25
    34d8:	79 f4       	brne	.+30     	; 0x34f8 <free+0x130>
    34da:	10 97       	sbiw	r26, 0x00	; 0
    34dc:	29 f4       	brne	.+10     	; 0x34e8 <free+0x120>
    34de:	10 92 f6 04 	sts	0x04F6, r1
    34e2:	10 92 f5 04 	sts	0x04F5, r1
    34e6:	04 c0       	rjmp	.+8      	; 0x34f0 <free+0x128>
    34e8:	13 96       	adiw	r26, 0x03	; 3
    34ea:	1c 92       	st	X, r1
    34ec:	1e 92       	st	-X, r1
    34ee:	12 97       	sbiw	r26, 0x02	; 2
    34f0:	f0 92 17 01 	sts	0x0117, r15
    34f4:	e0 92 16 01 	sts	0x0116, r14
    34f8:	df 91       	pop	r29
    34fa:	cf 91       	pop	r28
    34fc:	1f 91       	pop	r17
    34fe:	0f 91       	pop	r16
    3500:	ff 90       	pop	r15
    3502:	ef 90       	pop	r14
    3504:	08 95       	ret

00003506 <_ZN13NKEventParser5ParseEjPKhRKm>:
    3506:	cf 92       	push	r12
    3508:	df 92       	push	r13
    350a:	ef 92       	push	r14
    350c:	ff 92       	push	r15
    350e:	0f 93       	push	r16
    3510:	1f 93       	push	r17
    3512:	cf 93       	push	r28
    3514:	df 93       	push	r29
    3516:	00 d0       	rcall	.+0      	; 0x3518 <_ZN13NKEventParser5ParseEjPKhRKm+0x12>
    3518:	00 d0       	rcall	.+0      	; 0x351a <_ZN13NKEventParser5ParseEjPKhRKm+0x14>
    351a:	cd b7       	in	r28, 0x3d	; 61
    351c:	de b7       	in	r29, 0x3e	; 62
    351e:	8c 01       	movw	r16, r24
    3520:	5c 83       	std	Y+4, r21	; 0x04
    3522:	4b 83       	std	Y+3, r20	; 0x03
    3524:	7a 83       	std	Y+2, r23	; 0x02
    3526:	69 83       	std	Y+1, r22	; 0x01
    3528:	dc 01       	movw	r26, r24
    352a:	17 96       	adiw	r26, 0x07	; 7
    352c:	8c 91       	ld	r24, X
    352e:	82 30       	cpi	r24, 0x02	; 2
    3530:	e9 f0       	breq	.+58     	; 0x356c <_ZN13NKEventParser5ParseEjPKhRKm+0x66>
    3532:	28 f4       	brcc	.+10     	; 0x353e <_ZN13NKEventParser5ParseEjPKhRKm+0x38>
    3534:	88 23       	and	r24, r24
    3536:	41 f0       	breq	.+16     	; 0x3548 <_ZN13NKEventParser5ParseEjPKhRKm+0x42>
    3538:	81 30       	cpi	r24, 0x01	; 1
    353a:	71 f0       	breq	.+28     	; 0x3558 <_ZN13NKEventParser5ParseEjPKhRKm+0x52>
    353c:	65 c0       	rjmp	.+202    	; 0x3608 <_ZN13NKEventParser5ParseEjPKhRKm+0x102>
    353e:	83 30       	cpi	r24, 0x03	; 3
    3540:	51 f1       	breq	.+84     	; 0x3596 <_ZN13NKEventParser5ParseEjPKhRKm+0x90>
    3542:	84 30       	cpi	r24, 0x04	; 4
    3544:	99 f1       	breq	.+102    	; 0x35ac <_ZN13NKEventParser5ParseEjPKhRKm+0xa6>
    3546:	60 c0       	rjmp	.+192    	; 0x3608 <_ZN13NKEventParser5ParseEjPKhRKm+0x102>
    3548:	44 5f       	subi	r20, 0xF4	; 244
    354a:	5f 4f       	sbci	r21, 0xFF	; 255
    354c:	5c 83       	std	Y+4, r21	; 0x04
    354e:	4b 83       	std	Y+3, r20	; 0x03
    3550:	6c 50       	subi	r22, 0x0C	; 12
    3552:	71 09       	sbc	r23, r1
    3554:	7a 83       	std	Y+2, r23	; 0x02
    3556:	69 83       	std	Y+1, r22	; 0x01
    3558:	22 e0       	ldi	r18, 0x02	; 2
    355a:	f8 01       	movw	r30, r16
    355c:	24 87       	std	Z+12, r18	; 0x0c
    355e:	85 85       	ldd	r24, Z+13	; 0x0d
    3560:	96 85       	ldd	r25, Z+14	; 0x0e
    3562:	96 8b       	std	Z+22, r25	; 0x16
    3564:	85 8b       	std	Z+21, r24	; 0x15
    3566:	20 8f       	std	Z+24, r18	; 0x18
    3568:	27 8b       	std	Z+23, r18	; 0x17
    356a:	27 83       	std	Z+7, r18	; 0x07
    356c:	ae 01       	movw	r20, r28
    356e:	4f 5f       	subi	r20, 0xFF	; 255
    3570:	5f 4f       	sbci	r21, 0xFF	; 255
    3572:	be 01       	movw	r22, r28
    3574:	6d 5f       	subi	r22, 0xFD	; 253
    3576:	7f 4f       	sbci	r23, 0xFF	; 255
    3578:	c8 01       	movw	r24, r16
    357a:	45 96       	adiw	r24, 0x15	; 21
    357c:	38 d6       	rcall	.+3184   	; 0x41ee <_ZN20MultiByteValueParser5ParseEPPhPj>
    357e:	88 23       	and	r24, r24
    3580:	09 f4       	brne	.+2      	; 0x3584 <_ZN13NKEventParser5ParseEjPKhRKm+0x7e>
    3582:	42 c0       	rjmp	.+132    	; 0x3608 <_ZN13NKEventParser5ParseEjPKhRKm+0x102>
    3584:	c8 01       	movw	r24, r16
    3586:	0f 96       	adiw	r24, 0x0f	; 15
    3588:	d8 01       	movw	r26, r16
    358a:	1a 96       	adiw	r26, 0x0a	; 10
    358c:	9c 93       	st	X, r25
    358e:	8e 93       	st	-X, r24
    3590:	19 97       	sbiw	r26, 0x09	; 9
    3592:	1b 96       	adiw	r26, 0x0b	; 11
    3594:	8c 93       	st	X, r24
    3596:	26 e0       	ldi	r18, 0x06	; 6
    3598:	f8 01       	movw	r30, r16
    359a:	24 87       	std	Z+12, r18	; 0x0c
    359c:	85 85       	ldd	r24, Z+13	; 0x0d
    359e:	96 85       	ldd	r25, Z+14	; 0x0e
    35a0:	96 8b       	std	Z+22, r25	; 0x16
    35a2:	85 8b       	std	Z+21, r24	; 0x15
    35a4:	20 8f       	std	Z+24, r18	; 0x18
    35a6:	27 8b       	std	Z+23, r18	; 0x17
    35a8:	84 e0       	ldi	r24, 0x04	; 4
    35aa:	87 83       	std	Z+7, r24	; 0x07
    35ac:	78 01       	movw	r14, r16
    35ae:	f5 e1       	ldi	r31, 0x15	; 21
    35b0:	ef 0e       	add	r14, r31
    35b2:	f1 1c       	adc	r15, r1
    35b4:	68 01       	movw	r12, r16
    35b6:	8f e0       	ldi	r24, 0x0F	; 15
    35b8:	c8 0e       	add	r12, r24
    35ba:	d1 1c       	adc	r13, r1
    35bc:	d8 01       	movw	r26, r16
    35be:	1b 96       	adiw	r26, 0x0b	; 11
    35c0:	8c 91       	ld	r24, X
    35c2:	1b 97       	sbiw	r26, 0x0b	; 11
    35c4:	88 23       	and	r24, r24
    35c6:	f1 f0       	breq	.+60     	; 0x3604 <_ZN13NKEventParser5ParseEjPKhRKm+0xfe>
    35c8:	ae 01       	movw	r20, r28
    35ca:	4f 5f       	subi	r20, 0xFF	; 255
    35cc:	5f 4f       	sbci	r21, 0xFF	; 255
    35ce:	be 01       	movw	r22, r28
    35d0:	6d 5f       	subi	r22, 0xFD	; 253
    35d2:	7f 4f       	sbci	r23, 0xFF	; 255
    35d4:	c7 01       	movw	r24, r14
    35d6:	0b d6       	rcall	.+3094   	; 0x41ee <_ZN20MultiByteValueParser5ParseEPPhPj>
    35d8:	88 23       	and	r24, r24
    35da:	b1 f0       	breq	.+44     	; 0x3608 <_ZN13NKEventParser5ParseEjPKhRKm+0x102>
    35dc:	d8 01       	movw	r26, r16
    35de:	14 96       	adiw	r26, 0x04	; 4
    35e0:	8d 91       	ld	r24, X+
    35e2:	9c 91       	ld	r25, X
    35e4:	15 97       	sbiw	r26, 0x05	; 5
    35e6:	00 97       	sbiw	r24, 0x00	; 0
    35e8:	41 f0       	breq	.+16     	; 0x35fa <_ZN13NKEventParser5ParseEjPKhRKm+0xf4>
    35ea:	dc 01       	movw	r26, r24
    35ec:	ed 91       	ld	r30, X+
    35ee:	fc 91       	ld	r31, X
    35f0:	01 90       	ld	r0, Z+
    35f2:	f0 81       	ld	r31, Z
    35f4:	e0 2d       	mov	r30, r0
    35f6:	b6 01       	movw	r22, r12
    35f8:	09 95       	icall
    35fa:	f8 01       	movw	r30, r16
    35fc:	83 85       	ldd	r24, Z+11	; 0x0b
    35fe:	81 50       	subi	r24, 0x01	; 1
    3600:	83 87       	std	Z+11, r24	; 0x0b
    3602:	dc cf       	rjmp	.-72     	; 0x35bc <_ZN13NKEventParser5ParseEjPKhRKm+0xb6>
    3604:	17 96       	adiw	r26, 0x07	; 7
    3606:	1c 92       	st	X, r1
    3608:	0f 90       	pop	r0
    360a:	0f 90       	pop	r0
    360c:	0f 90       	pop	r0
    360e:	0f 90       	pop	r0
    3610:	df 91       	pop	r29
    3612:	cf 91       	pop	r28
    3614:	1f 91       	pop	r17
    3616:	0f 91       	pop	r16
    3618:	ff 90       	pop	r15
    361a:	ef 90       	pop	r14
    361c:	df 90       	pop	r13
    361e:	cf 90       	pop	r12
    3620:	08 95       	ret

00003622 <_ZN16PTPStateHandlers20OnSessionOpenedStateEP3PTP>:
    3622:	84 e0       	ldi	r24, 0x04	; 4
    3624:	fb 01       	movw	r30, r22
    3626:	82 83       	std	Z+2, r24	; 0x02
    3628:	08 95       	ret

0000362a <_ZN16PTPStateHandlers26OnDeviceNotRespondingStateEP3PTP>:
    362a:	08 95       	ret

0000362c <_ZN16PTPStateHandlers17OnDeviceBusyStateEP3PTP>:
    362c:	08 95       	ret

0000362e <_ZN3PTP7ReleaseEv>:
    362e:	cf 93       	push	r28
    3630:	df 93       	push	r29
    3632:	ec 01       	movw	r28, r24
    3634:	8c 85       	ldd	r24, Y+12	; 0x0c
    3636:	9d 85       	ldd	r25, Y+13	; 0x0d
    3638:	dc 01       	movw	r26, r24
    363a:	ed 91       	ld	r30, X+
    363c:	fc 91       	ld	r31, X
    363e:	04 80       	ldd	r0, Z+4	; 0x04
    3640:	f5 81       	ldd	r31, Z+5	; 0x05
    3642:	e0 2d       	mov	r30, r0
    3644:	6a 85       	ldd	r22, Y+10	; 0x0a
    3646:	09 95       	icall
    3648:	81 e0       	ldi	r24, 0x01	; 1
    364a:	8a 83       	std	Y+2, r24	; 0x02
    364c:	8f 81       	ldd	r24, Y+7	; 0x07
    364e:	98 85       	ldd	r25, Y+8	; 0x08
    3650:	dc 01       	movw	r26, r24
    3652:	ed 91       	ld	r30, X+
    3654:	fc 91       	ld	r31, X
    3656:	01 90       	ld	r0, Z+
    3658:	f0 81       	ld	r31, Z
    365a:	e0 2d       	mov	r30, r0
    365c:	be 01       	movw	r22, r28
    365e:	09 95       	icall
    3660:	1a 86       	std	Y+10, r1	; 0x0a
    3662:	1e 82       	std	Y+6, r1	; 0x06
    3664:	1d 82       	std	Y+5, r1	; 0x05
    3666:	8f ef       	ldi	r24, 0xFF	; 255
    3668:	9f ef       	ldi	r25, 0xFF	; 255
    366a:	9c 83       	std	Y+4, r25	; 0x04
    366c:	8b 83       	std	Y+3, r24	; 0x03
    366e:	80 e0       	ldi	r24, 0x00	; 0
    3670:	df 91       	pop	r29
    3672:	cf 91       	pop	r28
    3674:	08 95       	ret

00003676 <_ZN3PTP10EventCheckEP13PTPReadParser>:
    3676:	0f 93       	push	r16
    3678:	1f 93       	push	r17
    367a:	cf 93       	push	r28
    367c:	df 93       	push	r29
    367e:	cd b7       	in	r28, 0x3d	; 61
    3680:	de b7       	in	r29, 0x3e	; 62
    3682:	2a 97       	sbiw	r28, 0x0a	; 10
    3684:	0f b6       	in	r0, 0x3f	; 63
    3686:	f8 94       	cli
    3688:	de bf       	out	0x3e, r29	; 62
    368a:	0f be       	out	0x3f, r0	; 63
    368c:	cd bf       	out	0x3d, r28	; 61
    368e:	fc 01       	movw	r30, r24
    3690:	19 82       	std	Y+1, r1	; 0x01
    3692:	1a 82       	std	Y+2, r1	; 0x02
    3694:	1b 82       	std	Y+3, r1	; 0x03
    3696:	1c 82       	std	Y+4, r1	; 0x04
    3698:	1d 82       	std	Y+5, r1	; 0x05
    369a:	1e 82       	std	Y+6, r1	; 0x06
    369c:	1f 82       	std	Y+7, r1	; 0x07
    369e:	18 86       	std	Y+8, r1	; 0x08
    36a0:	88 e0       	ldi	r24, 0x08	; 8
    36a2:	90 e0       	ldi	r25, 0x00	; 0
    36a4:	9a 87       	std	Y+10, r25	; 0x0a
    36a6:	89 87       	std	Y+9, r24	; 0x09
    36a8:	8e 01       	movw	r16, r28
    36aa:	0f 5f       	subi	r16, 0xFF	; 255
    36ac:	1f 4f       	sbci	r17, 0xFF	; 255
    36ae:	9e 01       	movw	r18, r28
    36b0:	27 5f       	subi	r18, 0xF7	; 247
    36b2:	3f 4f       	sbci	r19, 0xFF	; 255
    36b4:	47 89       	ldd	r20, Z+23	; 0x17
    36b6:	62 85       	ldd	r22, Z+10	; 0x0a
    36b8:	84 85       	ldd	r24, Z+12	; 0x0c
    36ba:	95 85       	ldd	r25, Z+13	; 0x0d
    36bc:	0e 94 6f 27 	call	0x4ede	; 0x4ede <_ZN3USB10inTransferEhhPjPh>
    36c0:	8f 3f       	cpi	r24, 0xFF	; 255
    36c2:	41 f0       	breq	.+16     	; 0x36d4 <_ZN3PTP10EventCheckEP13PTPReadParser+0x5e>
    36c4:	61 e0       	ldi	r22, 0x01	; 1
    36c6:	70 e0       	ldi	r23, 0x00	; 0
    36c8:	80 e0       	ldi	r24, 0x00	; 0
    36ca:	90 e0       	ldi	r25, 0x00	; 0
    36cc:	7c dd       	rcall	.-1288   	; 0x31c6 <delay>
    36ce:	82 e0       	ldi	r24, 0x02	; 2
    36d0:	90 e2       	ldi	r25, 0x20	; 32
    36d2:	02 c0       	rjmp	.+4      	; 0x36d8 <_ZN3PTP10EventCheckEP13PTPReadParser+0x62>
    36d4:	80 e0       	ldi	r24, 0x00	; 0
    36d6:	90 e4       	ldi	r25, 0x40	; 64
    36d8:	2a 96       	adiw	r28, 0x0a	; 10
    36da:	0f b6       	in	r0, 0x3f	; 63
    36dc:	f8 94       	cli
    36de:	de bf       	out	0x3e, r29	; 62
    36e0:	0f be       	out	0x3f, r0	; 63
    36e2:	cd bf       	out	0x3d, r28	; 61
    36e4:	df 91       	pop	r29
    36e6:	cf 91       	pop	r28
    36e8:	1f 91       	pop	r17
    36ea:	0f 91       	pop	r16
    36ec:	08 95       	ret

000036ee <_ZN3PTPC1EP3USBP16PTPStateHandlers>:
    36ee:	cf 93       	push	r28
    36f0:	df 93       	push	r29
    36f2:	fc 01       	movw	r30, r24
    36f4:	86 e1       	ldi	r24, 0x16	; 22
    36f6:	92 e0       	ldi	r25, 0x02	; 2
    36f8:	91 83       	std	Z+1, r25	; 0x01
    36fa:	80 83       	st	Z, r24
    36fc:	12 82       	std	Z+2, r1	; 0x02
    36fe:	8f ef       	ldi	r24, 0xFF	; 255
    3700:	9f ef       	ldi	r25, 0xFF	; 255
    3702:	94 83       	std	Z+4, r25	; 0x04
    3704:	83 83       	std	Z+3, r24	; 0x03
    3706:	16 82       	std	Z+6, r1	; 0x06
    3708:	15 82       	std	Z+5, r1	; 0x05
    370a:	50 87       	std	Z+8, r21	; 0x08
    370c:	47 83       	std	Z+7, r20	; 0x07
    370e:	12 86       	std	Z+10, r1	; 0x0a
    3710:	13 86       	std	Z+11, r1	; 0x0b
    3712:	75 87       	std	Z+13, r23	; 0x0d
    3714:	64 87       	std	Z+12, r22	; 0x0c
    3716:	16 86       	std	Z+14, r1	; 0x0e
    3718:	88 e0       	ldi	r24, 0x08	; 8
    371a:	87 87       	std	Z+15, r24	; 0x0f
    371c:	9c e3       	ldi	r25, 0x3C	; 60
    371e:	90 8b       	std	Z+16, r25	; 0x10
    3720:	11 8a       	std	Z+17, r1	; 0x11
    3722:	82 8b       	std	Z+18, r24	; 0x12
    3724:	13 8a       	std	Z+19, r1	; 0x13
    3726:	14 8a       	std	Z+20, r1	; 0x14
    3728:	85 8b       	std	Z+21, r24	; 0x15
    372a:	16 8a       	std	Z+22, r1	; 0x16
    372c:	17 8a       	std	Z+23, r1	; 0x17
    372e:	80 8f       	std	Z+24, r24	; 0x18
    3730:	11 8e       	std	Z+25, r1	; 0x19
    3732:	61 15       	cp	r22, r1
    3734:	71 05       	cpc	r23, r1
    3736:	b9 f0       	breq	.+46     	; 0x3766 <_ZN3PTPC1EP3USBP16PTPStateHandlers+0x78>
    3738:	cb 01       	movw	r24, r22
    373a:	a0 e0       	ldi	r26, 0x00	; 0
    373c:	b0 e0       	ldi	r27, 0x00	; 0
    373e:	ec 01       	movw	r28, r24
    3740:	ca 5a       	subi	r28, 0xAA	; 170
    3742:	df 4f       	sbci	r29, 0xFF	; 255
    3744:	28 81       	ld	r18, Y
    3746:	39 81       	ldd	r19, Y+1	; 0x01
    3748:	23 2b       	or	r18, r19
    374a:	41 f4       	brne	.+16     	; 0x375c <_ZN3PTPC1EP3USBP16PTPStateHandlers+0x6e>
    374c:	9b 96       	adiw	r26, 0x2b	; 43
    374e:	aa 0f       	add	r26, r26
    3750:	bb 1f       	adc	r27, r27
    3752:	a6 0f       	add	r26, r22
    3754:	b7 1f       	adc	r27, r23
    3756:	ed 93       	st	X+, r30
    3758:	fc 93       	st	X, r31
    375a:	05 c0       	rjmp	.+10     	; 0x3766 <_ZN3PTPC1EP3USBP16PTPStateHandlers+0x78>
    375c:	11 96       	adiw	r26, 0x01	; 1
    375e:	02 96       	adiw	r24, 0x02	; 2
    3760:	a0 31       	cpi	r26, 0x10	; 16
    3762:	b1 05       	cpc	r27, r1
    3764:	61 f7       	brne	.-40     	; 0x373e <_ZN3PTPC1EP3USBP16PTPStateHandlers+0x50>
    3766:	df 91       	pop	r29
    3768:	cf 91       	pop	r28
    376a:	08 95       	ret

0000376c <_ZN3PTP13FillEPRecordsEP23USB_ENDPOINT_DESCRIPTOR>:
    376c:	0f 93       	push	r16
    376e:	1f 93       	push	r17
    3770:	cf 93       	push	r28
    3772:	df 93       	push	r29
    3774:	20 e0       	ldi	r18, 0x00	; 0
    3776:	30 e0       	ldi	r19, 0x00	; 0
    3778:	db 01       	movw	r26, r22
    377a:	a2 0f       	add	r26, r18
    377c:	b3 1f       	adc	r27, r19
    377e:	13 96       	adiw	r26, 0x03	; 3
    3780:	4c 91       	ld	r20, X
    3782:	13 97       	sbiw	r26, 0x03	; 3
    3784:	43 70       	andi	r20, 0x03	; 3
    3786:	12 96       	adiw	r26, 0x02	; 2
    3788:	0c 91       	ld	r16, X
    378a:	12 97       	sbiw	r26, 0x02	; 2
    378c:	43 30       	cpi	r20, 0x03	; 3
    378e:	49 f0       	breq	.+18     	; 0x37a2 <_ZN3PTP13FillEPRecordsEP23USB_ENDPOINT_DESCRIPTOR+0x36>
    3790:	42 30       	cpi	r20, 0x02	; 2
    3792:	49 f4       	brne	.+18     	; 0x37a6 <_ZN3PTP13FillEPRecordsEP23USB_ENDPOINT_DESCRIPTOR+0x3a>
    3794:	10 2f       	mov	r17, r16
    3796:	10 95       	com	r17
    3798:	11 1f       	adc	r17, r17
    379a:	11 27       	eor	r17, r17
    379c:	11 1f       	adc	r17, r17
    379e:	1f 5f       	subi	r17, 0xFF	; 255
    37a0:	03 c0       	rjmp	.+6      	; 0x37a8 <_ZN3PTP13FillEPRecordsEP23USB_ENDPOINT_DESCRIPTOR+0x3c>
    37a2:	13 e0       	ldi	r17, 0x03	; 3
    37a4:	01 c0       	rjmp	.+2      	; 0x37a8 <_ZN3PTP13FillEPRecordsEP23USB_ENDPOINT_DESCRIPTOR+0x3c>
    37a6:	12 e0       	ldi	r17, 0x02	; 2
    37a8:	41 2f       	mov	r20, r17
    37aa:	50 e0       	ldi	r21, 0x00	; 0
    37ac:	ea 01       	movw	r28, r20
    37ae:	cc 0f       	add	r28, r28
    37b0:	dd 1f       	adc	r29, r29
    37b2:	fe 01       	movw	r30, r28
    37b4:	e4 0f       	add	r30, r20
    37b6:	f5 1f       	adc	r31, r21
    37b8:	e8 0f       	add	r30, r24
    37ba:	f9 1f       	adc	r31, r25
    37bc:	0f 70       	andi	r16, 0x0F	; 15
    37be:	06 87       	std	Z+14, r16	; 0x0e
    37c0:	14 96       	adiw	r26, 0x04	; 4
    37c2:	ac 91       	ld	r26, X
    37c4:	a7 87       	std	Z+15, r26	; 0x0f
    37c6:	10 8a       	std	Z+16, r1	; 0x10
    37c8:	13 30       	cpi	r17, 0x03	; 3
    37ca:	11 f4       	brne	.+4      	; 0x37d0 <_ZN3PTP13FillEPRecordsEP23USB_ENDPOINT_DESCRIPTOR+0x64>
    37cc:	a0 e0       	ldi	r26, 0x00	; 0
    37ce:	01 c0       	rjmp	.+2      	; 0x37d2 <_ZN3PTP13FillEPRecordsEP23USB_ENDPOINT_DESCRIPTOR+0x66>
    37d0:	af e0       	ldi	r26, 0x0F	; 15
    37d2:	fe 01       	movw	r30, r28
    37d4:	e4 0f       	add	r30, r20
    37d6:	f5 1f       	adc	r31, r21
    37d8:	e8 0f       	add	r30, r24
    37da:	f9 1f       	adc	r31, r25
    37dc:	aa 0f       	add	r26, r26
    37de:	aa 0f       	add	r26, r26
    37e0:	40 89       	ldd	r20, Z+16	; 0x10
    37e2:	43 70       	andi	r20, 0x03	; 3
    37e4:	4a 2b       	or	r20, r26
    37e6:	40 8b       	std	Z+16, r20	; 0x10
    37e8:	29 5f       	subi	r18, 0xF9	; 249
    37ea:	3f 4f       	sbci	r19, 0xFF	; 255
    37ec:	25 31       	cpi	r18, 0x15	; 21
    37ee:	31 05       	cpc	r19, r1
    37f0:	19 f6       	brne	.-122    	; 0x3778 <_ZN3PTP13FillEPRecordsEP23USB_ENDPOINT_DESCRIPTOR+0xc>
    37f2:	df 91       	pop	r29
    37f4:	cf 91       	pop	r28
    37f6:	1f 91       	pop	r17
    37f8:	0f 91       	pop	r16
    37fa:	08 95       	ret

000037fc <_ZN3PTP4InitEhhb>:
    37fc:	4f 92       	push	r4
    37fe:	5f 92       	push	r5
    3800:	6f 92       	push	r6
    3802:	7f 92       	push	r7
    3804:	8f 92       	push	r8
    3806:	9f 92       	push	r9
    3808:	af 92       	push	r10
    380a:	bf 92       	push	r11
    380c:	cf 92       	push	r12
    380e:	df 92       	push	r13
    3810:	ef 92       	push	r14
    3812:	ff 92       	push	r15
    3814:	0f 93       	push	r16
    3816:	1f 93       	push	r17
    3818:	cf 93       	push	r28
    381a:	df 93       	push	r29
    381c:	cd b7       	in	r28, 0x3d	; 61
    381e:	de b7       	in	r29, 0x3e	; 62
    3820:	a7 97       	sbiw	r28, 0x27	; 39
    3822:	0f b6       	in	r0, 0x3f	; 63
    3824:	f8 94       	cli
    3826:	de bf       	out	0x3e, r29	; 62
    3828:	0f be       	out	0x3f, r0	; 63
    382a:	cd bf       	out	0x3d, r28	; 61
    382c:	6c 01       	movw	r12, r24
    382e:	56 2e       	mov	r5, r22
    3830:	44 2e       	mov	r4, r20
    3832:	dc 01       	movw	r26, r24
    3834:	1c 96       	adiw	r26, 0x0c	; 12
    3836:	ad 90       	ld	r10, X+
    3838:	bc 90       	ld	r11, X
    383a:	1d 97       	sbiw	r26, 0x0d	; 13
    383c:	1a 96       	adiw	r26, 0x0a	; 10
    383e:	8c 91       	ld	r24, X
    3840:	81 11       	cpse	r24, r1
    3842:	0b c1       	rjmp	.+534    	; 0x3a5a <_ZN3PTP4InitEhhb+0x25e>
    3844:	d5 01       	movw	r26, r10
    3846:	ed 91       	ld	r30, X+
    3848:	fc 91       	ld	r31, X
    384a:	01 90       	ld	r0, Z+
    384c:	f0 81       	ld	r31, Z
    384e:	e0 2d       	mov	r30, r0
    3850:	60 e0       	ldi	r22, 0x00	; 0
    3852:	c5 01       	movw	r24, r10
    3854:	09 95       	icall
    3856:	7c 01       	movw	r14, r24
    3858:	00 97       	sbiw	r24, 0x00	; 0
    385a:	09 f4       	brne	.+2      	; 0x385e <_ZN3PTP4InitEhhb+0x62>
    385c:	00 c1       	rjmp	.+512    	; 0x3a5e <_ZN3PTP4InitEhhb+0x262>
    385e:	fc 01       	movw	r30, r24
    3860:	80 80       	ld	r8, Z
    3862:	91 80       	ldd	r9, Z+1	; 0x01
    3864:	81 14       	cp	r8, r1
    3866:	91 04       	cpc	r9, r1
    3868:	09 f4       	brne	.+2      	; 0x386c <_ZN3PTP4InitEhhb+0x70>
    386a:	fb c0       	rjmp	.+502    	; 0x3a62 <_ZN3PTP4InitEhhb+0x266>
    386c:	36 01       	movw	r6, r12
    386e:	fe e0       	ldi	r31, 0x0E	; 14
    3870:	6f 0e       	add	r6, r31
    3872:	71 1c       	adc	r7, r1
    3874:	dc 01       	movw	r26, r24
    3876:	6d 92       	st	X+, r6
    3878:	7c 92       	st	X, r7
    387a:	8e 01       	movw	r16, r28
    387c:	0f 5f       	subi	r16, 0xFF	; 255
    387e:	1f 4f       	sbci	r17, 0xFF	; 255
    3880:	28 e0       	ldi	r18, 0x08	; 8
    3882:	30 e0       	ldi	r19, 0x00	; 0
    3884:	40 e0       	ldi	r20, 0x00	; 0
    3886:	60 e0       	ldi	r22, 0x00	; 0
    3888:	f6 01       	movw	r30, r12
    388a:	84 85       	ldd	r24, Z+12	; 0x0c
    388c:	95 85       	ldd	r25, Z+13	; 0x0d
    388e:	0e 94 b1 26 	call	0x4d62	; 0x4d62 <_ZN3USB11getDevDescrEhhjPh>
    3892:	81 11       	cpse	r24, r1
    3894:	ea c0       	rjmp	.+468    	; 0x3a6a <_ZN3PTP4InitEhhb+0x26e>
    3896:	19 81       	ldd	r17, Y+1	; 0x01
    3898:	8d 81       	ldd	r24, Y+5	; 0x05
    389a:	88 23       	and	r24, r24
    389c:	51 f0       	breq	.+20     	; 0x38b2 <_ZN3PTP4InitEhhb+0xb6>
    389e:	86 30       	cpi	r24, 0x06	; 6
    38a0:	41 f0       	breq	.+16     	; 0x38b2 <_ZN3PTP4InitEhhb+0xb6>
    38a2:	8e 81       	ldd	r24, Y+6	; 0x06
    38a4:	81 30       	cpi	r24, 0x01	; 1
    38a6:	29 f0       	breq	.+10     	; 0x38b2 <_ZN3PTP4InitEhhb+0xb6>
    38a8:	8f 81       	ldd	r24, Y+7	; 0x07
    38aa:	81 30       	cpi	r24, 0x01	; 1
    38ac:	11 f0       	breq	.+4      	; 0x38b2 <_ZN3PTP4InitEhhb+0xb6>
    38ae:	81 ed       	ldi	r24, 0xD1	; 209
    38b0:	df c0       	rjmp	.+446    	; 0x3a70 <_ZN3PTP4InitEhhb+0x274>
    38b2:	d5 01       	movw	r26, r10
    38b4:	ed 91       	ld	r30, X+
    38b6:	fc 91       	ld	r31, X
    38b8:	02 80       	ldd	r0, Z+2	; 0x02
    38ba:	f3 81       	ldd	r31, Z+3	; 0x03
    38bc:	e0 2d       	mov	r30, r0
    38be:	24 2d       	mov	r18, r4
    38c0:	40 e0       	ldi	r20, 0x00	; 0
    38c2:	65 2d       	mov	r22, r5
    38c4:	c5 01       	movw	r24, r10
    38c6:	09 95       	icall
    38c8:	f6 01       	movw	r30, r12
    38ca:	82 87       	std	Z+10, r24	; 0x0a
    38cc:	88 23       	and	r24, r24
    38ce:	09 f4       	brne	.+2      	; 0x38d2 <_ZN3PTP4InitEhhb+0xd6>
    38d0:	ca c0       	rjmp	.+404    	; 0x3a66 <_ZN3PTP4InitEhhb+0x26a>
    38d2:	98 85       	ldd	r25, Y+8	; 0x08
    38d4:	97 87       	std	Z+15, r25	; 0x0f
    38d6:	28 2f       	mov	r18, r24
    38d8:	40 e0       	ldi	r20, 0x00	; 0
    38da:	60 e0       	ldi	r22, 0x00	; 0
    38dc:	84 85       	ldd	r24, Z+12	; 0x0c
    38de:	95 85       	ldd	r25, Z+13	; 0x0d
    38e0:	0e 94 fd 26 	call	0x4dfa	; 0x4dfa <_ZN3USB7setAddrEhhh>
    38e4:	58 2e       	mov	r5, r24
    38e6:	88 23       	and	r24, r24
    38e8:	b9 f0       	breq	.+46     	; 0x3918 <_ZN3PTP4InitEhhb+0x11c>
    38ea:	d7 01       	movw	r26, r14
    38ec:	8d 92       	st	X+, r8
    38ee:	9c 92       	st	X, r9
    38f0:	d5 01       	movw	r26, r10
    38f2:	ed 91       	ld	r30, X+
    38f4:	fc 91       	ld	r31, X
    38f6:	04 80       	ldd	r0, Z+4	; 0x04
    38f8:	f5 81       	ldd	r31, Z+5	; 0x05
    38fa:	e0 2d       	mov	r30, r0
    38fc:	d6 01       	movw	r26, r12
    38fe:	1a 96       	adiw	r26, 0x0a	; 10
    3900:	6c 91       	ld	r22, X
    3902:	c5 01       	movw	r24, r10
    3904:	09 95       	icall
    3906:	f6 01       	movw	r30, r12
    3908:	12 86       	std	Z+10, r1	; 0x0a
    390a:	61 e0       	ldi	r22, 0x01	; 1
    390c:	70 e0       	ldi	r23, 0x00	; 0
    390e:	80 e0       	ldi	r24, 0x00	; 0
    3910:	90 e0       	ldi	r25, 0x00	; 0
    3912:	59 dc       	rcall	.-1870   	; 0x31c6 <delay>
    3914:	85 2d       	mov	r24, r5
    3916:	ac c0       	rjmp	.+344    	; 0x3a70 <_ZN3PTP4InitEhhb+0x274>
    3918:	11 32       	cpi	r17, 0x21	; 33
    391a:	08 f0       	brcs	.+2      	; 0x391e <_ZN3PTP4InitEhhb+0x122>
    391c:	10 e2       	ldi	r17, 0x20	; 32
    391e:	61 e0       	ldi	r22, 0x01	; 1
    3920:	70 e0       	ldi	r23, 0x00	; 0
    3922:	80 e0       	ldi	r24, 0x00	; 0
    3924:	90 e0       	ldi	r25, 0x00	; 0
    3926:	4f dc       	rcall	.-1890   	; 0x31c6 <delay>
    3928:	d7 01       	movw	r26, r14
    392a:	8d 92       	st	X+, r8
    392c:	9c 92       	st	X, r9
    392e:	11 11       	cpse	r17, r1
    3930:	0d c0       	rjmp	.+26     	; 0x394c <_ZN3PTP4InitEhhb+0x150>
    3932:	aa 88       	ldd	r10, Y+18	; 0x12
    3934:	93 01       	movw	r18, r6
    3936:	44 e0       	ldi	r20, 0x04	; 4
    3938:	f6 01       	movw	r30, r12
    393a:	62 85       	ldd	r22, Z+10	; 0x0a
    393c:	84 85       	ldd	r24, Z+12	; 0x0c
    393e:	95 85       	ldd	r25, Z+13	; 0x0d
    3940:	83 d5       	rcall	.+2822   	; 0x4448 <_ZN3USB14setEpInfoEntryEhhP6EpInfo>
    3942:	18 2f       	mov	r17, r24
    3944:	81 11       	cpse	r24, r1
    3946:	81 c0       	rjmp	.+258    	; 0x3a4a <_ZN3PTP4InitEhhb+0x24e>
    3948:	b1 2c       	mov	r11, r1
    394a:	4a c0       	rjmp	.+148    	; 0x39e0 <_ZN3PTP4InitEhhb+0x1e4>
    394c:	21 2f       	mov	r18, r17
    394e:	30 e0       	ldi	r19, 0x00	; 0
    3950:	8e 01       	movw	r16, r28
    3952:	0f 5f       	subi	r16, 0xFF	; 255
    3954:	1f 4f       	sbci	r17, 0xFF	; 255
    3956:	40 e0       	ldi	r20, 0x00	; 0
    3958:	d6 01       	movw	r26, r12
    395a:	1a 96       	adiw	r26, 0x0a	; 10
    395c:	6c 91       	ld	r22, X
    395e:	1a 97       	sbiw	r26, 0x0a	; 10
    3960:	1c 96       	adiw	r26, 0x0c	; 12
    3962:	8d 91       	ld	r24, X+
    3964:	9c 91       	ld	r25, X
    3966:	1d 97       	sbiw	r26, 0x0d	; 13
    3968:	0e 94 b1 26 	call	0x4d62	; 0x4d62 <_ZN3USB11getDevDescrEhhjPh>
    396c:	18 2f       	mov	r17, r24
    396e:	81 11       	cpse	r24, r1
    3970:	6c c0       	rjmp	.+216    	; 0x3a4a <_ZN3PTP4InitEhhb+0x24e>
    3972:	df cf       	rjmp	.-66     	; 0x3932 <_ZN3PTP4InitEhhb+0x136>
    3974:	fe 01       	movw	r30, r28
    3976:	31 96       	adiw	r30, 0x01	; 1
    3978:	7f 01       	movw	r14, r30
    397a:	0b 2d       	mov	r16, r11
    397c:	28 e0       	ldi	r18, 0x08	; 8
    397e:	30 e0       	ldi	r19, 0x00	; 0
    3980:	40 e0       	ldi	r20, 0x00	; 0
    3982:	d6 01       	movw	r26, r12
    3984:	1a 96       	adiw	r26, 0x0a	; 10
    3986:	6c 91       	ld	r22, X
    3988:	1a 97       	sbiw	r26, 0x0a	; 10
    398a:	1c 96       	adiw	r26, 0x0c	; 12
    398c:	8d 91       	ld	r24, X+
    398e:	9c 91       	ld	r25, X
    3990:	1d 97       	sbiw	r26, 0x0d	; 13
    3992:	0e 94 d7 26 	call	0x4dae	; 0x4dae <_ZN3USB12getConfDescrEhhjhPh>
    3996:	18 2f       	mov	r17, r24
    3998:	81 11       	cpse	r24, r1
    399a:	57 c0       	rjmp	.+174    	; 0x3a4a <_ZN3PTP4InitEhhb+0x24e>
    399c:	2b 81       	ldd	r18, Y+3	; 0x03
    399e:	3c 81       	ldd	r19, Y+4	; 0x04
    39a0:	28 32       	cpi	r18, 0x28	; 40
    39a2:	31 05       	cpc	r19, r1
    39a4:	10 f0       	brcs	.+4      	; 0x39aa <_ZN3PTP4InitEhhb+0x1ae>
    39a6:	27 e2       	ldi	r18, 0x27	; 39
    39a8:	30 e0       	ldi	r19, 0x00	; 0
    39aa:	fe 01       	movw	r30, r28
    39ac:	31 96       	adiw	r30, 0x01	; 1
    39ae:	7f 01       	movw	r14, r30
    39b0:	0b 2d       	mov	r16, r11
    39b2:	40 e0       	ldi	r20, 0x00	; 0
    39b4:	d6 01       	movw	r26, r12
    39b6:	1a 96       	adiw	r26, 0x0a	; 10
    39b8:	6c 91       	ld	r22, X
    39ba:	1a 97       	sbiw	r26, 0x0a	; 10
    39bc:	1c 96       	adiw	r26, 0x0c	; 12
    39be:	8d 91       	ld	r24, X+
    39c0:	9c 91       	ld	r25, X
    39c2:	1d 97       	sbiw	r26, 0x0d	; 13
    39c4:	0e 94 d7 26 	call	0x4dae	; 0x4dae <_ZN3USB12getConfDescrEhhjhPh>
    39c8:	18 2f       	mov	r17, r24
    39ca:	81 11       	cpse	r24, r1
    39cc:	3e c0       	rjmp	.+124    	; 0x3a4a <_ZN3PTP4InitEhhb+0x24e>
    39ce:	61 e0       	ldi	r22, 0x01	; 1
    39d0:	70 e0       	ldi	r23, 0x00	; 0
    39d2:	80 e0       	ldi	r24, 0x00	; 0
    39d4:	90 e0       	ldi	r25, 0x00	; 0
    39d6:	f7 db       	rcall	.-2066   	; 0x31c6 <delay>
    39d8:	8d 81       	ldd	r24, Y+5	; 0x05
    39da:	81 11       	cpse	r24, r1
    39dc:	04 c0       	rjmp	.+8      	; 0x39e6 <_ZN3PTP4InitEhhb+0x1ea>
    39de:	b3 94       	inc	r11
    39e0:	ba 10       	cpse	r11, r10
    39e2:	c8 cf       	rjmp	.-112    	; 0x3974 <_ZN3PTP4InitEhhb+0x178>
    39e4:	11 c0       	rjmp	.+34     	; 0x3a08 <_ZN3PTP4InitEhhb+0x20c>
    39e6:	8f 85       	ldd	r24, Y+15	; 0x0f
    39e8:	86 30       	cpi	r24, 0x06	; 6
    39ea:	c9 f7       	brne	.-14     	; 0x39de <_ZN3PTP4InitEhhb+0x1e2>
    39ec:	88 89       	ldd	r24, Y+16	; 0x10
    39ee:	81 30       	cpi	r24, 0x01	; 1
    39f0:	b1 f7       	brne	.-20     	; 0x39de <_ZN3PTP4InitEhhb+0x1e2>
    39f2:	89 89       	ldd	r24, Y+17	; 0x11
    39f4:	81 30       	cpi	r24, 0x01	; 1
    39f6:	99 f7       	brne	.-26     	; 0x39de <_ZN3PTP4InitEhhb+0x1e2>
    39f8:	be 01       	movw	r22, r28
    39fa:	6d 5e       	subi	r22, 0xED	; 237
    39fc:	7f 4f       	sbci	r23, 0xFF	; 255
    39fe:	c6 01       	movw	r24, r12
    3a00:	b5 de       	rcall	.-662    	; 0x376c <_ZN3PTP13FillEPRecordsEP23USB_ENDPOINT_DESCRIPTOR>
    3a02:	8e 81       	ldd	r24, Y+6	; 0x06
    3a04:	f6 01       	movw	r30, r12
    3a06:	83 87       	std	Z+11, r24	; 0x0b
    3a08:	d6 01       	movw	r26, r12
    3a0a:	1b 96       	adiw	r26, 0x0b	; 11
    3a0c:	2c 91       	ld	r18, X
    3a0e:	1b 97       	sbiw	r26, 0x0b	; 11
    3a10:	22 23       	and	r18, r18
    3a12:	09 f4       	brne	.+2      	; 0x3a16 <_ZN3PTP4InitEhhb+0x21a>
    3a14:	4c cf       	rjmp	.-360    	; 0x38ae <_ZN3PTP4InitEhhb+0xb2>
    3a16:	40 e0       	ldi	r20, 0x00	; 0
    3a18:	1a 96       	adiw	r26, 0x0a	; 10
    3a1a:	6c 91       	ld	r22, X
    3a1c:	1a 97       	sbiw	r26, 0x0a	; 10
    3a1e:	1c 96       	adiw	r26, 0x0c	; 12
    3a20:	8d 91       	ld	r24, X+
    3a22:	9c 91       	ld	r25, X
    3a24:	1d 97       	sbiw	r26, 0x0d	; 13
    3a26:	0e 94 2b 27 	call	0x4e56	; 0x4e56 <_ZN3USB7setConfEhhh>
    3a2a:	18 2f       	mov	r17, r24
    3a2c:	81 11       	cpse	r24, r1
    3a2e:	0d c0       	rjmp	.+26     	; 0x3a4a <_ZN3PTP4InitEhhb+0x24e>
    3a30:	f6 01       	movw	r30, r12
    3a32:	16 82       	std	Z+6, r1	; 0x06
    3a34:	15 82       	std	Z+5, r1	; 0x05
    3a36:	8f ef       	ldi	r24, 0xFF	; 255
    3a38:	9f ef       	ldi	r25, 0xFF	; 255
    3a3a:	94 83       	std	Z+4, r25	; 0x04
    3a3c:	83 83       	std	Z+3, r24	; 0x03
    3a3e:	82 e0       	ldi	r24, 0x02	; 2
    3a40:	82 83       	std	Z+2, r24	; 0x02
    3a42:	81 e0       	ldi	r24, 0x01	; 1
    3a44:	81 87       	std	Z+9, r24	; 0x09
    3a46:	80 e0       	ldi	r24, 0x00	; 0
    3a48:	13 c0       	rjmp	.+38     	; 0x3a70 <_ZN3PTP4InitEhhb+0x274>
    3a4a:	40 e1       	ldi	r20, 0x10	; 16
    3a4c:	50 e0       	ldi	r21, 0x00	; 0
    3a4e:	61 2f       	mov	r22, r17
    3a50:	8c e3       	ldi	r24, 0x3C	; 60
    3a52:	94 e0       	ldi	r25, 0x04	; 4
    3a54:	d3 da       	rcall	.-2650   	; 0x2ffc <_ZN5Print7printlnEhi>
    3a56:	81 2f       	mov	r24, r17
    3a58:	0b c0       	rjmp	.+22     	; 0x3a70 <_ZN3PTP4InitEhhb+0x274>
    3a5a:	89 ed       	ldi	r24, 0xD9	; 217
    3a5c:	09 c0       	rjmp	.+18     	; 0x3a70 <_ZN3PTP4InitEhhb+0x274>
    3a5e:	86 ed       	ldi	r24, 0xD6	; 214
    3a60:	07 c0       	rjmp	.+14     	; 0x3a70 <_ZN3PTP4InitEhhb+0x274>
    3a62:	87 ed       	ldi	r24, 0xD7	; 215
    3a64:	05 c0       	rjmp	.+10     	; 0x3a70 <_ZN3PTP4InitEhhb+0x274>
    3a66:	84 ed       	ldi	r24, 0xD4	; 212
    3a68:	03 c0       	rjmp	.+6      	; 0x3a70 <_ZN3PTP4InitEhhb+0x274>
    3a6a:	d7 01       	movw	r26, r14
    3a6c:	8d 92       	st	X+, r8
    3a6e:	9c 92       	st	X, r9
    3a70:	a7 96       	adiw	r28, 0x27	; 39
    3a72:	0f b6       	in	r0, 0x3f	; 63
    3a74:	f8 94       	cli
    3a76:	de bf       	out	0x3e, r29	; 62
    3a78:	0f be       	out	0x3f, r0	; 63
    3a7a:	cd bf       	out	0x3d, r28	; 61
    3a7c:	df 91       	pop	r29
    3a7e:	cf 91       	pop	r28
    3a80:	1f 91       	pop	r17
    3a82:	0f 91       	pop	r16
    3a84:	ff 90       	pop	r15
    3a86:	ef 90       	pop	r14
    3a88:	df 90       	pop	r13
    3a8a:	cf 90       	pop	r12
    3a8c:	bf 90       	pop	r11
    3a8e:	af 90       	pop	r10
    3a90:	9f 90       	pop	r9
    3a92:	8f 90       	pop	r8
    3a94:	7f 90       	pop	r7
    3a96:	6f 90       	pop	r6
    3a98:	5f 90       	pop	r5
    3a9a:	4f 90       	pop	r4
    3a9c:	08 95       	ret

00003a9e <_ZN3PTP4TaskEv>:
    3a9e:	bc 01       	movw	r22, r24
    3aa0:	dc 01       	movw	r26, r24
    3aa2:	12 96       	adiw	r26, 0x02	; 2
    3aa4:	8c 91       	ld	r24, X
    3aa6:	84 30       	cpi	r24, 0x04	; 4
    3aa8:	19 f1       	breq	.+70     	; 0x3af0 <_ZN3PTP4TaskEv+0x52>
    3aaa:	28 f4       	brcc	.+10     	; 0x3ab6 <_ZN3PTP4TaskEv+0x18>
    3aac:	82 30       	cpi	r24, 0x02	; 2
    3aae:	41 f0       	breq	.+16     	; 0x3ac0 <_ZN3PTP4TaskEv+0x22>
    3ab0:	83 30       	cpi	r24, 0x03	; 3
    3ab2:	91 f0       	breq	.+36     	; 0x3ad8 <_ZN3PTP4TaskEv+0x3a>
    3ab4:	08 95       	ret
    3ab6:	85 30       	cpi	r24, 0x05	; 5
    3ab8:	39 f1       	breq	.+78     	; 0x3b08 <_ZN3PTP4TaskEv+0x6a>
    3aba:	86 30       	cpi	r24, 0x06	; 6
    3abc:	89 f1       	breq	.+98     	; 0x3b20 <_ZN3PTP4TaskEv+0x82>
    3abe:	08 95       	ret
    3ac0:	fb 01       	movw	r30, r22
    3ac2:	87 81       	ldd	r24, Z+7	; 0x07
    3ac4:	90 85       	ldd	r25, Z+8	; 0x08
    3ac6:	00 97       	sbiw	r24, 0x00	; 0
    3ac8:	b9 f1       	breq	.+110    	; 0x3b38 <_ZN3PTP4TaskEv+0x9a>
    3aca:	dc 01       	movw	r26, r24
    3acc:	ed 91       	ld	r30, X+
    3ace:	fc 91       	ld	r31, X
    3ad0:	02 80       	ldd	r0, Z+2	; 0x02
    3ad2:	f3 81       	ldd	r31, Z+3	; 0x03
    3ad4:	e0 2d       	mov	r30, r0
    3ad6:	2f c0       	rjmp	.+94     	; 0x3b36 <_ZN3PTP4TaskEv+0x98>
    3ad8:	fb 01       	movw	r30, r22
    3ada:	87 81       	ldd	r24, Z+7	; 0x07
    3adc:	90 85       	ldd	r25, Z+8	; 0x08
    3ade:	00 97       	sbiw	r24, 0x00	; 0
    3ae0:	59 f1       	breq	.+86     	; 0x3b38 <_ZN3PTP4TaskEv+0x9a>
    3ae2:	dc 01       	movw	r26, r24
    3ae4:	ed 91       	ld	r30, X+
    3ae6:	fc 91       	ld	r31, X
    3ae8:	04 80       	ldd	r0, Z+4	; 0x04
    3aea:	f5 81       	ldd	r31, Z+5	; 0x05
    3aec:	e0 2d       	mov	r30, r0
    3aee:	23 c0       	rjmp	.+70     	; 0x3b36 <_ZN3PTP4TaskEv+0x98>
    3af0:	fb 01       	movw	r30, r22
    3af2:	87 81       	ldd	r24, Z+7	; 0x07
    3af4:	90 85       	ldd	r25, Z+8	; 0x08
    3af6:	00 97       	sbiw	r24, 0x00	; 0
    3af8:	f9 f0       	breq	.+62     	; 0x3b38 <_ZN3PTP4TaskEv+0x9a>
    3afa:	dc 01       	movw	r26, r24
    3afc:	ed 91       	ld	r30, X+
    3afe:	fc 91       	ld	r31, X
    3b00:	06 80       	ldd	r0, Z+6	; 0x06
    3b02:	f7 81       	ldd	r31, Z+7	; 0x07
    3b04:	e0 2d       	mov	r30, r0
    3b06:	17 c0       	rjmp	.+46     	; 0x3b36 <_ZN3PTP4TaskEv+0x98>
    3b08:	fb 01       	movw	r30, r22
    3b0a:	87 81       	ldd	r24, Z+7	; 0x07
    3b0c:	90 85       	ldd	r25, Z+8	; 0x08
    3b0e:	00 97       	sbiw	r24, 0x00	; 0
    3b10:	99 f0       	breq	.+38     	; 0x3b38 <_ZN3PTP4TaskEv+0x9a>
    3b12:	dc 01       	movw	r26, r24
    3b14:	ed 91       	ld	r30, X+
    3b16:	fc 91       	ld	r31, X
    3b18:	00 84       	ldd	r0, Z+8	; 0x08
    3b1a:	f1 85       	ldd	r31, Z+9	; 0x09
    3b1c:	e0 2d       	mov	r30, r0
    3b1e:	0b c0       	rjmp	.+22     	; 0x3b36 <_ZN3PTP4TaskEv+0x98>
    3b20:	fb 01       	movw	r30, r22
    3b22:	87 81       	ldd	r24, Z+7	; 0x07
    3b24:	90 85       	ldd	r25, Z+8	; 0x08
    3b26:	00 97       	sbiw	r24, 0x00	; 0
    3b28:	39 f0       	breq	.+14     	; 0x3b38 <_ZN3PTP4TaskEv+0x9a>
    3b2a:	dc 01       	movw	r26, r24
    3b2c:	ed 91       	ld	r30, X+
    3b2e:	fc 91       	ld	r31, X
    3b30:	02 84       	ldd	r0, Z+10	; 0x0a
    3b32:	f3 85       	ldd	r31, Z+11	; 0x0b
    3b34:	e0 2d       	mov	r30, r0
    3b36:	09 94       	ijmp
    3b38:	08 95       	ret

00003b3a <_ZN3PTP4PollEv>:
    3b3a:	fc 01       	movw	r30, r24
    3b3c:	21 85       	ldd	r18, Z+9	; 0x09
    3b3e:	21 11       	cpse	r18, r1
    3b40:	ae df       	rcall	.-164    	; 0x3a9e <_ZN3PTP4TaskEv>
    3b42:	80 e0       	ldi	r24, 0x00	; 0
    3b44:	08 95       	ret

00003b46 <_ZN3PTP11TransactionEjPNS_9OperFlagsEPmPv>:
    3b46:	2f 92       	push	r2
    3b48:	3f 92       	push	r3
    3b4a:	4f 92       	push	r4
    3b4c:	5f 92       	push	r5
    3b4e:	6f 92       	push	r6
    3b50:	7f 92       	push	r7
    3b52:	8f 92       	push	r8
    3b54:	9f 92       	push	r9
    3b56:	af 92       	push	r10
    3b58:	bf 92       	push	r11
    3b5a:	cf 92       	push	r12
    3b5c:	df 92       	push	r13
    3b5e:	ef 92       	push	r14
    3b60:	ff 92       	push	r15
    3b62:	0f 93       	push	r16
    3b64:	1f 93       	push	r17
    3b66:	cf 93       	push	r28
    3b68:	df 93       	push	r29
    3b6a:	cd b7       	in	r28, 0x3d	; 61
    3b6c:	de b7       	in	r29, 0x3e	; 62
    3b6e:	c0 56       	subi	r28, 0x60	; 96
    3b70:	d1 09       	sbc	r29, r1
    3b72:	0f b6       	in	r0, 0x3f	; 63
    3b74:	f8 94       	cli
    3b76:	de bf       	out	0x3e, r29	; 62
    3b78:	0f be       	out	0x3f, r0	; 63
    3b7a:	cd bf       	out	0x3d, r28	; 61
    3b7c:	6c 01       	movw	r12, r24
    3b7e:	4b 01       	movw	r8, r22
    3b80:	2d 96       	adiw	r28, 0x0d	; 13
    3b82:	5f af       	std	Y+63, r21	; 0x3f
    3b84:	4e af       	std	Y+62, r20	; 0x3e
    3b86:	2d 97       	sbiw	r28, 0x0d	; 13
    3b88:	2f 96       	adiw	r28, 0x0f	; 15
    3b8a:	3f af       	std	Y+63, r19	; 0x3f
    3b8c:	2e af       	std	Y+62, r18	; 0x3e
    3b8e:	2f 97       	sbiw	r28, 0x0f	; 15
    3b90:	78 01       	movw	r14, r16
    3b92:	dc 01       	movw	r26, r24
    3b94:	13 96       	adiw	r26, 0x03	; 3
    3b96:	8d 91       	ld	r24, X+
    3b98:	9c 91       	ld	r25, X
    3b9a:	14 97       	sbiw	r26, 0x04	; 4
    3b9c:	01 96       	adiw	r24, 0x01	; 1
    3b9e:	14 96       	adiw	r26, 0x04	; 4
    3ba0:	9c 93       	st	X, r25
    3ba2:	8e 93       	st	-X, r24
    3ba4:	13 97       	sbiw	r26, 0x03	; 3
    3ba6:	21 e0       	ldi	r18, 0x01	; 1
    3ba8:	30 e0       	ldi	r19, 0x00	; 0
    3baa:	3e 83       	std	Y+6, r19	; 0x06
    3bac:	2d 83       	std	Y+5, r18	; 0x05
    3bae:	78 87       	std	Y+8, r23	; 0x08
    3bb0:	6f 83       	std	Y+7, r22	; 0x07
    3bb2:	a0 e0       	ldi	r26, 0x00	; 0
    3bb4:	b0 e0       	ldi	r27, 0x00	; 0
    3bb6:	89 87       	std	Y+9, r24	; 0x09
    3bb8:	9a 87       	std	Y+10, r25	; 0x0a
    3bba:	ab 87       	std	Y+11, r26	; 0x0b
    3bbc:	bc 87       	std	Y+12, r27	; 0x0c
    3bbe:	1d 86       	std	Y+13, r1	; 0x0d
    3bc0:	1e 86       	std	Y+14, r1	; 0x0e
    3bc2:	1f 86       	std	Y+15, r1	; 0x0f
    3bc4:	18 8a       	std	Y+16, r1	; 0x10
    3bc6:	19 8a       	std	Y+17, r1	; 0x11
    3bc8:	1a 8a       	std	Y+18, r1	; 0x12
    3bca:	1b 8a       	std	Y+19, r1	; 0x13
    3bcc:	1c 8a       	std	Y+20, r1	; 0x14
    3bce:	1d 8a       	std	Y+21, r1	; 0x15
    3bd0:	1e 8a       	std	Y+22, r1	; 0x16
    3bd2:	1f 8a       	std	Y+23, r1	; 0x17
    3bd4:	18 8e       	std	Y+24, r1	; 0x18
    3bd6:	fa 01       	movw	r30, r20
    3bd8:	20 81       	ld	r18, Z
    3bda:	27 70       	andi	r18, 0x07	; 7
    3bdc:	30 e0       	ldi	r19, 0x00	; 0
    3bde:	22 30       	cpi	r18, 0x02	; 2
    3be0:	31 05       	cpc	r19, r1
    3be2:	99 f0       	breq	.+38     	; 0x3c0a <_ZN3PTP11TransactionEjPNS_9OperFlagsEPmPv+0xc4>
    3be4:	23 30       	cpi	r18, 0x03	; 3
    3be6:	31 05       	cpc	r19, r1
    3be8:	21 f0       	breq	.+8      	; 0x3bf2 <_ZN3PTP11TransactionEjPNS_9OperFlagsEPmPv+0xac>
    3bea:	21 30       	cpi	r18, 0x01	; 1
    3bec:	31 05       	cpc	r19, r1
    3bee:	29 f5       	brne	.+74     	; 0x3c3a <_ZN3PTP11TransactionEjPNS_9OperFlagsEPmPv+0xf4>
    3bf0:	18 c0       	rjmp	.+48     	; 0x3c22 <_ZN3PTP11TransactionEjPNS_9OperFlagsEPmPv+0xdc>
    3bf2:	2f 96       	adiw	r28, 0x0f	; 15
    3bf4:	ee ad       	ldd	r30, Y+62	; 0x3e
    3bf6:	ff ad       	ldd	r31, Y+63	; 0x3f
    3bf8:	2f 97       	sbiw	r28, 0x0f	; 15
    3bfa:	80 85       	ldd	r24, Z+8	; 0x08
    3bfc:	91 85       	ldd	r25, Z+9	; 0x09
    3bfe:	a2 85       	ldd	r26, Z+10	; 0x0a
    3c00:	b3 85       	ldd	r27, Z+11	; 0x0b
    3c02:	8d 8b       	std	Y+21, r24	; 0x15
    3c04:	9e 8b       	std	Y+22, r25	; 0x16
    3c06:	af 8b       	std	Y+23, r26	; 0x17
    3c08:	b8 8f       	std	Y+24, r27	; 0x18
    3c0a:	2f 96       	adiw	r28, 0x0f	; 15
    3c0c:	ee ad       	ldd	r30, Y+62	; 0x3e
    3c0e:	ff ad       	ldd	r31, Y+63	; 0x3f
    3c10:	2f 97       	sbiw	r28, 0x0f	; 15
    3c12:	84 81       	ldd	r24, Z+4	; 0x04
    3c14:	95 81       	ldd	r25, Z+5	; 0x05
    3c16:	a6 81       	ldd	r26, Z+6	; 0x06
    3c18:	b7 81       	ldd	r27, Z+7	; 0x07
    3c1a:	89 8b       	std	Y+17, r24	; 0x11
    3c1c:	9a 8b       	std	Y+18, r25	; 0x12
    3c1e:	ab 8b       	std	Y+19, r26	; 0x13
    3c20:	bc 8b       	std	Y+20, r27	; 0x14
    3c22:	2f 96       	adiw	r28, 0x0f	; 15
    3c24:	ee ad       	ldd	r30, Y+62	; 0x3e
    3c26:	ff ad       	ldd	r31, Y+63	; 0x3f
    3c28:	2f 97       	sbiw	r28, 0x0f	; 15
    3c2a:	80 81       	ld	r24, Z
    3c2c:	91 81       	ldd	r25, Z+1	; 0x01
    3c2e:	a2 81       	ldd	r26, Z+2	; 0x02
    3c30:	b3 81       	ldd	r27, Z+3	; 0x03
    3c32:	8d 87       	std	Y+13, r24	; 0x0d
    3c34:	9e 87       	std	Y+14, r25	; 0x0e
    3c36:	af 87       	std	Y+15, r26	; 0x0f
    3c38:	b8 8b       	std	Y+16, r27	; 0x10
    3c3a:	22 0f       	add	r18, r18
    3c3c:	33 1f       	adc	r19, r19
    3c3e:	22 0f       	add	r18, r18
    3c40:	33 1f       	adc	r19, r19
    3c42:	24 5f       	subi	r18, 0xF4	; 244
    3c44:	3f 4f       	sbci	r19, 0xFF	; 255
    3c46:	c9 01       	movw	r24, r18
    3c48:	a0 e0       	ldi	r26, 0x00	; 0
    3c4a:	b0 e0       	ldi	r27, 0x00	; 0
    3c4c:	89 83       	std	Y+1, r24	; 0x01
    3c4e:	9a 83       	std	Y+2, r25	; 0x02
    3c50:	ab 83       	std	Y+3, r26	; 0x03
    3c52:	bc 83       	std	Y+4, r27	; 0x04
    3c54:	8e 01       	movw	r16, r28
    3c56:	0f 5f       	subi	r16, 0xFF	; 255
    3c58:	1f 4f       	sbci	r17, 0xFF	; 255
    3c5a:	58 01       	movw	r10, r16
    3c5c:	d6 01       	movw	r26, r12
    3c5e:	54 96       	adiw	r26, 0x14	; 20
    3c60:	4c 91       	ld	r20, X
    3c62:	54 97       	sbiw	r26, 0x14	; 20
    3c64:	1a 96       	adiw	r26, 0x0a	; 10
    3c66:	6c 91       	ld	r22, X
    3c68:	1a 97       	sbiw	r26, 0x0a	; 10
    3c6a:	1c 96       	adiw	r26, 0x0c	; 12
    3c6c:	8d 91       	ld	r24, X+
    3c6e:	9c 91       	ld	r25, X
    3c70:	1d 97       	sbiw	r26, 0x0d	; 13
    3c72:	ae d6       	rcall	.+3420   	; 0x49d0 <_ZN3USB11outTransferEhhjPh>
    3c74:	81 11       	cpse	r24, r1
    3c76:	dc c0       	rjmp	.+440    	; 0x3e30 <_ZN3PTP11TransactionEjPNS_9OperFlagsEPmPv+0x2ea>
    3c78:	2d 96       	adiw	r28, 0x0d	; 13
    3c7a:	ee ad       	ldd	r30, Y+62	; 0x3e
    3c7c:	ff ad       	ldd	r31, Y+63	; 0x3f
    3c7e:	2d 97       	sbiw	r28, 0x0d	; 13
    3c80:	80 81       	ld	r24, Z
    3c82:	86 ff       	sbrs	r24, 6
    3c84:	9c c0       	rjmp	.+312    	; 0x3dbe <_ZN3PTP11TransactionEjPNS_9OperFlagsEPmPv+0x278>
    3c86:	41 81       	ldd	r20, Z+1	; 0x01
    3c88:	84 2f       	mov	r24, r20
    3c8a:	83 70       	andi	r24, 0x03	; 3
    3c8c:	21 f0       	breq	.+8      	; 0x3c96 <_ZN3PTP11TransactionEjPNS_9OperFlagsEPmPv+0x150>
    3c8e:	e1 14       	cp	r14, r1
    3c90:	f1 04       	cpc	r15, r1
    3c92:	09 f4       	brne	.+2      	; 0x3c96 <_ZN3PTP11TransactionEjPNS_9OperFlagsEPmPv+0x150>
    3c94:	d2 c0       	rjmp	.+420    	; 0x3e3a <_ZN3PTP11TransactionEjPNS_9OperFlagsEPmPv+0x2f4>
    3c96:	d6 01       	movw	r26, r12
    3c98:	13 96       	adiw	r26, 0x03	; 3
    3c9a:	8d 91       	ld	r24, X+
    3c9c:	9c 91       	ld	r25, X
    3c9e:	14 97       	sbiw	r26, 0x04	; 4
    3ca0:	a0 e0       	ldi	r26, 0x00	; 0
    3ca2:	b0 e0       	ldi	r27, 0x00	; 0
    3ca4:	19 82       	std	Y+1, r1	; 0x01
    3ca6:	1a 82       	std	Y+2, r1	; 0x02
    3ca8:	1b 82       	std	Y+3, r1	; 0x03
    3caa:	1c 82       	std	Y+4, r1	; 0x04
    3cac:	22 e0       	ldi	r18, 0x02	; 2
    3cae:	30 e0       	ldi	r19, 0x00	; 0
    3cb0:	3e 83       	std	Y+6, r19	; 0x06
    3cb2:	2d 83       	std	Y+5, r18	; 0x05
    3cb4:	98 86       	std	Y+8, r9	; 0x08
    3cb6:	8f 82       	std	Y+7, r8	; 0x07
    3cb8:	89 87       	std	Y+9, r24	; 0x09
    3cba:	9a 87       	std	Y+10, r25	; 0x0a
    3cbc:	ab 87       	std	Y+11, r26	; 0x0b
    3cbe:	bc 87       	std	Y+12, r27	; 0x0c
    3cc0:	84 2f       	mov	r24, r20
    3cc2:	83 70       	andi	r24, 0x03	; 3
    3cc4:	90 e0       	ldi	r25, 0x00	; 0
    3cc6:	81 30       	cpi	r24, 0x01	; 1
    3cc8:	91 05       	cpc	r25, r1
    3cca:	91 f0       	breq	.+36     	; 0x3cf0 <_ZN3PTP11TransactionEjPNS_9OperFlagsEPmPv+0x1aa>
    3ccc:	03 97       	sbiw	r24, 0x03	; 3
    3cce:	61 f5       	brne	.+88     	; 0x3d28 <_ZN3PTP11TransactionEjPNS_9OperFlagsEPmPv+0x1e2>
    3cd0:	46 95       	lsr	r20
    3cd2:	46 95       	lsr	r20
    3cd4:	50 e0       	ldi	r21, 0x00	; 0
    3cd6:	4a 01       	movw	r8, r20
    3cd8:	fc e0       	ldi	r31, 0x0C	; 12
    3cda:	8f 0e       	add	r8, r31
    3cdc:	91 1c       	adc	r9, r1
    3cde:	24 01       	movw	r4, r8
    3ce0:	61 2c       	mov	r6, r1
    3ce2:	71 2c       	mov	r7, r1
    3ce4:	b7 01       	movw	r22, r14
    3ce6:	ce 01       	movw	r24, r28
    3ce8:	0d 96       	adiw	r24, 0x0d	; 13
    3cea:	0e 94 f9 2a 	call	0x55f2	; 0x55f2 <memcpy>
    3cee:	24 c0       	rjmp	.+72     	; 0x3d38 <_ZN3PTP11TransactionEjPNS_9OperFlagsEPmPv+0x1f2>
    3cf0:	d7 01       	movw	r26, r14
    3cf2:	ed 91       	ld	r30, X+
    3cf4:	fc 91       	ld	r31, X
    3cf6:	01 90       	ld	r0, Z+
    3cf8:	f0 81       	ld	r31, Z
    3cfa:	e0 2d       	mov	r30, r0
    3cfc:	c7 01       	movw	r24, r14
    3cfe:	09 95       	icall
    3d00:	2b 01       	movw	r4, r22
    3d02:	3c 01       	movw	r6, r24
    3d04:	bc e0       	ldi	r27, 0x0C	; 12
    3d06:	4b 0e       	add	r4, r27
    3d08:	51 1c       	adc	r5, r1
    3d0a:	61 1c       	adc	r6, r1
    3d0c:	71 1c       	adc	r7, r1
    3d0e:	94 2d       	mov	r25, r4
    3d10:	85 2d       	mov	r24, r5
    3d12:	e1 e4       	ldi	r30, 0x41	; 65
    3d14:	4e 16       	cp	r4, r30
    3d16:	51 04       	cpc	r5, r1
    3d18:	61 04       	cpc	r6, r1
    3d1a:	71 04       	cpc	r7, r1
    3d1c:	10 f0       	brcs	.+4      	; 0x3d22 <_ZN3PTP11TransactionEjPNS_9OperFlagsEPmPv+0x1dc>
    3d1e:	90 e4       	ldi	r25, 0x40	; 64
    3d20:	80 e0       	ldi	r24, 0x00	; 0
    3d22:	89 2e       	mov	r8, r25
    3d24:	98 2e       	mov	r9, r24
    3d26:	08 c0       	rjmp	.+16     	; 0x3d38 <_ZN3PTP11TransactionEjPNS_9OperFlagsEPmPv+0x1f2>
    3d28:	ac e0       	ldi	r26, 0x0C	; 12
    3d2a:	8a 2e       	mov	r8, r26
    3d2c:	91 2c       	mov	r9, r1
    3d2e:	bc e0       	ldi	r27, 0x0C	; 12
    3d30:	4b 2e       	mov	r4, r27
    3d32:	51 2c       	mov	r5, r1
    3d34:	61 2c       	mov	r6, r1
    3d36:	71 2c       	mov	r7, r1
    3d38:	49 82       	std	Y+1, r4	; 0x01
    3d3a:	5a 82       	std	Y+2, r5	; 0x02
    3d3c:	6b 82       	std	Y+3, r6	; 0x03
    3d3e:	7c 82       	std	Y+4, r7	; 0x04
    3d40:	91 e0       	ldi	r25, 0x01	; 1
    3d42:	1e 01       	movw	r2, r28
    3d44:	0d e0       	ldi	r16, 0x0D	; 13
    3d46:	20 0e       	add	r2, r16
    3d48:	31 1c       	adc	r3, r1
    3d4a:	41 14       	cp	r4, r1
    3d4c:	51 04       	cpc	r5, r1
    3d4e:	61 04       	cpc	r6, r1
    3d50:	71 04       	cpc	r7, r1
    3d52:	a9 f1       	breq	.+106    	; 0x3dbe <_ZN3PTP11TransactionEjPNS_9OperFlagsEPmPv+0x278>
    3d54:	2d 96       	adiw	r28, 0x0d	; 13
    3d56:	ae ad       	ldd	r26, Y+62	; 0x3e
    3d58:	bf ad       	ldd	r27, Y+63	; 0x3f
    3d5a:	2d 97       	sbiw	r28, 0x0d	; 13
    3d5c:	11 96       	adiw	r26, 0x01	; 1
    3d5e:	8c 91       	ld	r24, X
    3d60:	83 70       	andi	r24, 0x03	; 3
    3d62:	81 30       	cpi	r24, 0x01	; 1
    3d64:	81 f4       	brne	.+32     	; 0x3d86 <_ZN3PTP11TransactionEjPNS_9OperFlagsEPmPv+0x240>
    3d66:	b4 01       	movw	r22, r8
    3d68:	99 23       	and	r25, r25
    3d6a:	21 f0       	breq	.+8      	; 0x3d74 <_ZN3PTP11TransactionEjPNS_9OperFlagsEPmPv+0x22e>
    3d6c:	6c 50       	subi	r22, 0x0C	; 12
    3d6e:	71 09       	sbc	r23, r1
    3d70:	a1 01       	movw	r20, r2
    3d72:	01 c0       	rjmp	.+2      	; 0x3d76 <_ZN3PTP11TransactionEjPNS_9OperFlagsEPmPv+0x230>
    3d74:	a5 01       	movw	r20, r10
    3d76:	d7 01       	movw	r26, r14
    3d78:	ed 91       	ld	r30, X+
    3d7a:	fc 91       	ld	r31, X
    3d7c:	02 80       	ldd	r0, Z+2	; 0x02
    3d7e:	f3 81       	ldd	r31, Z+3	; 0x03
    3d80:	e0 2d       	mov	r30, r0
    3d82:	c7 01       	movw	r24, r14
    3d84:	09 95       	icall
    3d86:	85 01       	movw	r16, r10
    3d88:	94 01       	movw	r18, r8
    3d8a:	f6 01       	movw	r30, r12
    3d8c:	44 89       	ldd	r20, Z+20	; 0x14
    3d8e:	62 85       	ldd	r22, Z+10	; 0x0a
    3d90:	84 85       	ldd	r24, Z+12	; 0x0c
    3d92:	95 85       	ldd	r25, Z+13	; 0x0d
    3d94:	1d d6       	rcall	.+3130   	; 0x49d0 <_ZN3USB11outTransferEhhjPh>
    3d96:	81 11       	cpse	r24, r1
    3d98:	4b c0       	rjmp	.+150    	; 0x3e30 <_ZN3PTP11TransactionEjPNS_9OperFlagsEPmPv+0x2ea>
    3d9a:	48 18       	sub	r4, r8
    3d9c:	59 08       	sbc	r5, r9
    3d9e:	61 08       	sbc	r6, r1
    3da0:	71 08       	sbc	r7, r1
    3da2:	94 2d       	mov	r25, r4
    3da4:	85 2d       	mov	r24, r5
    3da6:	f1 e4       	ldi	r31, 0x41	; 65
    3da8:	4f 16       	cp	r4, r31
    3daa:	51 04       	cpc	r5, r1
    3dac:	61 04       	cpc	r6, r1
    3dae:	71 04       	cpc	r7, r1
    3db0:	10 f0       	brcs	.+4      	; 0x3db6 <_ZN3PTP11TransactionEjPNS_9OperFlagsEPmPv+0x270>
    3db2:	90 e4       	ldi	r25, 0x40	; 64
    3db4:	80 e0       	ldi	r24, 0x00	; 0
    3db6:	89 2e       	mov	r8, r25
    3db8:	98 2e       	mov	r9, r24
    3dba:	90 e0       	ldi	r25, 0x00	; 0
    3dbc:	c6 cf       	rjmp	.-116    	; 0x3d4a <_ZN3PTP11TransactionEjPNS_9OperFlagsEPmPv+0x204>
    3dbe:	1e 01       	movw	r2, r28
    3dc0:	05 e4       	ldi	r16, 0x45	; 69
    3dc2:	20 0e       	add	r2, r16
    3dc4:	31 1c       	adc	r3, r1
    3dc6:	d1 01       	movw	r26, r2
    3dc8:	1d 92       	st	X+, r1
    3dca:	1d 92       	st	X+, r1
    3dcc:	1d 92       	st	X+, r1
    3dce:	1c 92       	st	X, r1
    3dd0:	13 97       	sbiw	r26, 0x03	; 3
    3dd2:	19 82       	std	Y+1, r1	; 0x01
    3dd4:	1a 82       	std	Y+2, r1	; 0x02
    3dd6:	1b 82       	std	Y+3, r1	; 0x03
    3dd8:	1c 82       	std	Y+4, r1	; 0x04
    3dda:	1e 82       	std	Y+6, r1	; 0x06
    3ddc:	1d 82       	std	Y+5, r1	; 0x05
    3dde:	82 e0       	ldi	r24, 0x02	; 2
    3de0:	90 e2       	ldi	r25, 0x20	; 32
    3de2:	98 87       	std	Y+8, r25	; 0x08
    3de4:	8f 83       	std	Y+7, r24	; 0x07
    3de6:	19 86       	std	Y+9, r1	; 0x09
    3de8:	1a 86       	std	Y+10, r1	; 0x0a
    3dea:	1b 86       	std	Y+11, r1	; 0x0b
    3dec:	1c 86       	std	Y+12, r1	; 0x0c
    3dee:	81 2c       	mov	r8, r1
    3df0:	91 2c       	mov	r9, r1
    3df2:	a1 96       	adiw	r28, 0x21	; 33
    3df4:	1c ae       	std	Y+60, r1	; 0x3c
    3df6:	1d ae       	std	Y+61, r1	; 0x3d
    3df8:	1e ae       	std	Y+62, r1	; 0x3e
    3dfa:	1f ae       	std	Y+63, r1	; 0x3f
    3dfc:	a1 97       	sbiw	r28, 0x21	; 33
    3dfe:	e0 e4       	ldi	r30, 0x40	; 64
    3e00:	f0 e0       	ldi	r31, 0x00	; 0
    3e02:	2b 96       	adiw	r28, 0x0b	; 11
    3e04:	ff af       	std	Y+63, r31	; 0x3f
    3e06:	ee af       	std	Y+62, r30	; 0x3e
    3e08:	2b 97       	sbiw	r28, 0x0b	; 11
    3e0a:	85 01       	movw	r16, r10
    3e0c:	9e 01       	movw	r18, r28
    3e0e:	27 5b       	subi	r18, 0xB7	; 183
    3e10:	3f 4f       	sbci	r19, 0xFF	; 255
    3e12:	d6 01       	movw	r26, r12
    3e14:	51 96       	adiw	r26, 0x11	; 17
    3e16:	4c 91       	ld	r20, X
    3e18:	51 97       	sbiw	r26, 0x11	; 17
    3e1a:	1a 96       	adiw	r26, 0x0a	; 10
    3e1c:	6c 91       	ld	r22, X
    3e1e:	1a 97       	sbiw	r26, 0x0a	; 10
    3e20:	1c 96       	adiw	r26, 0x0c	; 12
    3e22:	8d 91       	ld	r24, X+
    3e24:	9c 91       	ld	r25, X
    3e26:	1d 97       	sbiw	r26, 0x0d	; 13
    3e28:	0e 94 6f 27 	call	0x4ede	; 0x4ede <_ZN3USB10inTransferEhhPjPh>
    3e2c:	88 23       	and	r24, r24
    3e2e:	41 f0       	breq	.+16     	; 0x3e40 <_ZN3PTP11TransactionEjPNS_9OperFlagsEPmPv+0x2fa>
    3e30:	61 e0       	ldi	r22, 0x01	; 1
    3e32:	70 e0       	ldi	r23, 0x00	; 0
    3e34:	80 e0       	ldi	r24, 0x00	; 0
    3e36:	90 e0       	ldi	r25, 0x00	; 0
    3e38:	c6 d9       	rcall	.-3188   	; 0x31c6 <delay>
    3e3a:	82 e0       	ldi	r24, 0x02	; 2
    3e3c:	90 e2       	ldi	r25, 0x20	; 32
    3e3e:	2a c1       	rjmp	.+596    	; 0x4094 <_ZN3PTP11TransactionEjPNS_9OperFlagsEPmPv+0x54e>
    3e40:	81 14       	cp	r8, r1
    3e42:	91 04       	cpc	r9, r1
    3e44:	91 f0       	breq	.+36     	; 0x3e6a <_ZN3PTP11TransactionEjPNS_9OperFlagsEPmPv+0x324>
    3e46:	29 96       	adiw	r28, 0x09	; 9
    3e48:	8c ad       	ldd	r24, Y+60	; 0x3c
    3e4a:	9d ad       	ldd	r25, Y+61	; 0x3d
    3e4c:	ae ad       	ldd	r26, Y+62	; 0x3e
    3e4e:	bf ad       	ldd	r27, Y+63	; 0x3f
    3e50:	29 97       	sbiw	r28, 0x09	; 9
    3e52:	a1 96       	adiw	r28, 0x21	; 33
    3e54:	4c ac       	ldd	r4, Y+60	; 0x3c
    3e56:	5d ac       	ldd	r5, Y+61	; 0x3d
    3e58:	6e ac       	ldd	r6, Y+62	; 0x3e
    3e5a:	7f ac       	ldd	r7, Y+63	; 0x3f
    3e5c:	a1 97       	sbiw	r28, 0x21	; 33
    3e5e:	48 16       	cp	r4, r24
    3e60:	59 06       	cpc	r5, r25
    3e62:	6a 06       	cpc	r6, r26
    3e64:	7b 06       	cpc	r7, r27
    3e66:	09 f0       	breq	.+2      	; 0x3e6a <_ZN3PTP11TransactionEjPNS_9OperFlagsEPmPv+0x324>
    3e68:	74 c0       	rjmp	.+232    	; 0x3f52 <_ZN3PTP11TransactionEjPNS_9OperFlagsEPmPv+0x40c>
    3e6a:	8d 81       	ldd	r24, Y+5	; 0x05
    3e6c:	9e 81       	ldd	r25, Y+6	; 0x06
    3e6e:	03 97       	sbiw	r24, 0x03	; 3
    3e70:	09 f0       	breq	.+2      	; 0x3e74 <_ZN3PTP11TransactionEjPNS_9OperFlagsEPmPv+0x32e>
    3e72:	57 c0       	rjmp	.+174    	; 0x3f22 <_ZN3PTP11TransactionEjPNS_9OperFlagsEPmPv+0x3dc>
    3e74:	8f 81       	ldd	r24, Y+7	; 0x07
    3e76:	98 85       	ldd	r25, Y+8	; 0x08
    3e78:	81 30       	cpi	r24, 0x01	; 1
    3e7a:	90 42       	sbci	r25, 0x20	; 32
    3e7c:	09 f0       	breq	.+2      	; 0x3e80 <_ZN3PTP11TransactionEjPNS_9OperFlagsEPmPv+0x33a>
    3e7e:	4e c0       	rjmp	.+156    	; 0x3f1c <_ZN3PTP11TransactionEjPNS_9OperFlagsEPmPv+0x3d6>
    3e80:	69 81       	ldd	r22, Y+1	; 0x01
    3e82:	7a 81       	ldd	r23, Y+2	; 0x02
    3e84:	8b 81       	ldd	r24, Y+3	; 0x03
    3e86:	9c 81       	ldd	r25, Y+4	; 0x04
    3e88:	6c 30       	cpi	r22, 0x0C	; 12
    3e8a:	71 05       	cpc	r23, r1
    3e8c:	81 05       	cpc	r24, r1
    3e8e:	91 05       	cpc	r25, r1
    3e90:	08 f4       	brcc	.+2      	; 0x3e94 <_ZN3PTP11TransactionEjPNS_9OperFlagsEPmPv+0x34e>
    3e92:	44 c0       	rjmp	.+136    	; 0x3f1c <_ZN3PTP11TransactionEjPNS_9OperFlagsEPmPv+0x3d6>
    3e94:	8b 01       	movw	r16, r22
    3e96:	9c 01       	movw	r18, r24
    3e98:	0c 50       	subi	r16, 0x0C	; 12
    3e9a:	11 09       	sbc	r17, r1
    3e9c:	21 09       	sbc	r18, r1
    3e9e:	31 09       	sbc	r19, r1
    3ea0:	f2 e0       	ldi	r31, 0x02	; 2
    3ea2:	36 95       	lsr	r19
    3ea4:	27 95       	ror	r18
    3ea6:	17 95       	ror	r17
    3ea8:	07 95       	ror	r16
    3eaa:	fa 95       	dec	r31
    3eac:	d1 f7       	brne	.-12     	; 0x3ea2 <_ZN3PTP11TransactionEjPNS_9OperFlagsEPmPv+0x35c>
    3eae:	07 70       	andi	r16, 0x07	; 7
    3eb0:	00 0f       	add	r16, r16
    3eb2:	00 0f       	add	r16, r16
    3eb4:	00 0f       	add	r16, r16
    3eb6:	2d 96       	adiw	r28, 0x0d	; 13
    3eb8:	ae ad       	ldd	r26, Y+62	; 0x3e
    3eba:	bf ad       	ldd	r27, Y+63	; 0x3f
    3ebc:	2d 97       	sbiw	r28, 0x0d	; 13
    3ebe:	2c 91       	ld	r18, X
    3ec0:	27 7c       	andi	r18, 0xC7	; 199
    3ec2:	20 2b       	or	r18, r16
    3ec4:	2c 93       	st	X, r18
    3ec6:	e1 14       	cp	r14, r1
    3ec8:	f1 04       	cpc	r15, r1
    3eca:	41 f1       	breq	.+80     	; 0x3f1c <_ZN3PTP11TransactionEjPNS_9OperFlagsEPmPv+0x3d6>
    3ecc:	11 96       	adiw	r26, 0x01	; 1
    3ece:	4c 91       	ld	r20, X
    3ed0:	24 2f       	mov	r18, r20
    3ed2:	23 70       	andi	r18, 0x03	; 3
    3ed4:	30 e0       	ldi	r19, 0x00	; 0
    3ed6:	21 30       	cpi	r18, 0x01	; 1
    3ed8:	31 05       	cpc	r19, r1
    3eda:	71 f0       	breq	.+28     	; 0x3ef8 <_ZN3PTP11TransactionEjPNS_9OperFlagsEPmPv+0x3b2>
    3edc:	23 30       	cpi	r18, 0x03	; 3
    3ede:	31 05       	cpc	r19, r1
    3ee0:	e9 f4       	brne	.+58     	; 0x3f1c <_ZN3PTP11TransactionEjPNS_9OperFlagsEPmPv+0x3d6>
    3ee2:	46 95       	lsr	r20
    3ee4:	46 95       	lsr	r20
    3ee6:	50 e0       	ldi	r21, 0x00	; 0
    3ee8:	b5 01       	movw	r22, r10
    3eea:	2f 96       	adiw	r28, 0x0f	; 15
    3eec:	8e ad       	ldd	r24, Y+62	; 0x3e
    3eee:	9f ad       	ldd	r25, Y+63	; 0x3f
    3ef0:	2f 97       	sbiw	r28, 0x0f	; 15
    3ef2:	0e 94 f9 2a 	call	0x55f2	; 0x55f2 <memcpy>
    3ef6:	12 c0       	rjmp	.+36     	; 0x3f1c <_ZN3PTP11TransactionEjPNS_9OperFlagsEPmPv+0x3d6>
    3ef8:	d7 01       	movw	r26, r14
    3efa:	ed 91       	ld	r30, X+
    3efc:	fc 91       	ld	r31, X
    3efe:	01 90       	ld	r0, Z+
    3f00:	f0 81       	ld	r31, Z
    3f02:	e0 2d       	mov	r30, r0
    3f04:	25 96       	adiw	r28, 0x05	; 5
    3f06:	1c ae       	std	Y+60, r1	; 0x3c
    3f08:	1d ae       	std	Y+61, r1	; 0x3d
    3f0a:	1e ae       	std	Y+62, r1	; 0x3e
    3f0c:	1f ae       	std	Y+63, r1	; 0x3f
    3f0e:	25 97       	sbiw	r28, 0x05	; 5
    3f10:	9e 01       	movw	r18, r28
    3f12:	2f 5b       	subi	r18, 0xBF	; 191
    3f14:	3f 4f       	sbci	r19, 0xFF	; 255
    3f16:	a5 01       	movw	r20, r10
    3f18:	c7 01       	movw	r24, r14
    3f1a:	09 95       	icall
    3f1c:	8f 81       	ldd	r24, Y+7	; 0x07
    3f1e:	98 85       	ldd	r25, Y+8	; 0x08
    3f20:	b9 c0       	rjmp	.+370    	; 0x4094 <_ZN3PTP11TransactionEjPNS_9OperFlagsEPmPv+0x54e>
    3f22:	81 14       	cp	r8, r1
    3f24:	91 04       	cpc	r9, r1
    3f26:	a9 f4       	brne	.+42     	; 0x3f52 <_ZN3PTP11TransactionEjPNS_9OperFlagsEPmPv+0x40c>
    3f28:	49 80       	ldd	r4, Y+1	; 0x01
    3f2a:	5a 80       	ldd	r5, Y+2	; 0x02
    3f2c:	6b 80       	ldd	r6, Y+3	; 0x03
    3f2e:	7c 80       	ldd	r7, Y+4	; 0x04
    3f30:	a1 96       	adiw	r28, 0x21	; 33
    3f32:	4c ae       	std	Y+60, r4	; 0x3c
    3f34:	5d ae       	std	Y+61, r5	; 0x3d
    3f36:	6e ae       	std	Y+62, r6	; 0x3e
    3f38:	7f ae       	std	Y+63, r7	; 0x3f
    3f3a:	a1 97       	sbiw	r28, 0x21	; 33
    3f3c:	93 01       	movw	r18, r6
    3f3e:	82 01       	movw	r16, r4
    3f40:	00 34       	cpi	r16, 0x40	; 64
    3f42:	11 05       	cpc	r17, r1
    3f44:	21 05       	cpc	r18, r1
    3f46:	31 05       	cpc	r19, r1
    3f48:	f0 f4       	brcc	.+60     	; 0x3f86 <_ZN3PTP11TransactionEjPNS_9OperFlagsEPmPv+0x440>
    3f4a:	6e 96       	adiw	r28, 0x1e	; 30
    3f4c:	6f ad       	ldd	r22, Y+63	; 0x3f
    3f4e:	6e 97       	sbiw	r28, 0x1e	; 30
    3f50:	1b c0       	rjmp	.+54     	; 0x3f88 <_ZN3PTP11TransactionEjPNS_9OperFlagsEPmPv+0x442>
    3f52:	29 96       	adiw	r28, 0x09	; 9
    3f54:	8c ad       	ldd	r24, Y+60	; 0x3c
    3f56:	9d ad       	ldd	r25, Y+61	; 0x3d
    3f58:	ae ad       	ldd	r26, Y+62	; 0x3e
    3f5a:	bf ad       	ldd	r27, Y+63	; 0x3f
    3f5c:	29 97       	sbiw	r28, 0x09	; 9
    3f5e:	a1 96       	adiw	r28, 0x21	; 33
    3f60:	4c ad       	ldd	r20, Y+60	; 0x3c
    3f62:	5d ad       	ldd	r21, Y+61	; 0x3d
    3f64:	6e ad       	ldd	r22, Y+62	; 0x3e
    3f66:	7f ad       	ldd	r23, Y+63	; 0x3f
    3f68:	a1 97       	sbiw	r28, 0x21	; 33
    3f6a:	48 1b       	sub	r20, r24
    3f6c:	59 0b       	sbc	r21, r25
    3f6e:	6a 0b       	sbc	r22, r26
    3f70:	7b 0b       	sbc	r23, r27
    3f72:	41 34       	cpi	r20, 0x41	; 65
    3f74:	51 05       	cpc	r21, r1
    3f76:	61 05       	cpc	r22, r1
    3f78:	71 05       	cpc	r23, r1
    3f7a:	28 f4       	brcc	.+10     	; 0x3f86 <_ZN3PTP11TransactionEjPNS_9OperFlagsEPmPv+0x440>
    3f7c:	6e 96       	adiw	r28, 0x1e	; 30
    3f7e:	6f ad       	ldd	r22, Y+63	; 0x3f
    3f80:	6e 97       	sbiw	r28, 0x1e	; 30
    3f82:	68 1b       	sub	r22, r24
    3f84:	01 c0       	rjmp	.+2      	; 0x3f88 <_ZN3PTP11TransactionEjPNS_9OperFlagsEPmPv+0x442>
    3f86:	60 e4       	ldi	r22, 0x40	; 64
    3f88:	46 2e       	mov	r4, r22
    3f8a:	51 2c       	mov	r5, r1
    3f8c:	61 2c       	mov	r6, r1
    3f8e:	71 2c       	mov	r7, r1
    3f90:	63 96       	adiw	r28, 0x13	; 19
    3f92:	4c ae       	std	Y+60, r4	; 0x3c
    3f94:	5d ae       	std	Y+61, r5	; 0x3d
    3f96:	6e ae       	std	Y+62, r6	; 0x3e
    3f98:	7f ae       	std	Y+63, r7	; 0x3f
    3f9a:	63 97       	sbiw	r28, 0x13	; 19
    3f9c:	e1 14       	cp	r14, r1
    3f9e:	f1 04       	cpc	r15, r1
    3fa0:	09 f4       	brne	.+2      	; 0x3fa4 <_ZN3PTP11TransactionEjPNS_9OperFlagsEPmPv+0x45e>
    3fa2:	5e c0       	rjmp	.+188    	; 0x4060 <_ZN3PTP11TransactionEjPNS_9OperFlagsEPmPv+0x51a>
    3fa4:	2d 96       	adiw	r28, 0x0d	; 13
    3fa6:	ae ad       	ldd	r26, Y+62	; 0x3e
    3fa8:	bf ad       	ldd	r27, Y+63	; 0x3f
    3faa:	2d 97       	sbiw	r28, 0x0d	; 13
    3fac:	11 96       	adiw	r26, 0x01	; 1
    3fae:	8c 91       	ld	r24, X
    3fb0:	83 70       	andi	r24, 0x03	; 3
    3fb2:	81 30       	cpi	r24, 0x01	; 1
    3fb4:	59 f4       	brne	.+22     	; 0x3fcc <_ZN3PTP11TransactionEjPNS_9OperFlagsEPmPv+0x486>
    3fb6:	d7 01       	movw	r26, r14
    3fb8:	ed 91       	ld	r30, X+
    3fba:	fc 91       	ld	r31, X
    3fbc:	70 e0       	ldi	r23, 0x00	; 0
    3fbe:	01 90       	ld	r0, Z+
    3fc0:	f0 81       	ld	r31, Z
    3fc2:	e0 2d       	mov	r30, r0
    3fc4:	91 01       	movw	r18, r2
    3fc6:	a5 01       	movw	r20, r10
    3fc8:	c7 01       	movw	r24, r14
    3fca:	09 95       	icall
    3fcc:	2d 96       	adiw	r28, 0x0d	; 13
    3fce:	ee ad       	ldd	r30, Y+62	; 0x3e
    3fd0:	ff ad       	ldd	r31, Y+63	; 0x3f
    3fd2:	2d 97       	sbiw	r28, 0x0d	; 13
    3fd4:	81 81       	ldd	r24, Z+1	; 0x01
    3fd6:	83 70       	andi	r24, 0x03	; 3
    3fd8:	83 30       	cpi	r24, 0x03	; 3
    3fda:	09 f0       	breq	.+2      	; 0x3fde <_ZN3PTP11TransactionEjPNS_9OperFlagsEPmPv+0x498>
    3fdc:	41 c0       	rjmp	.+130    	; 0x4060 <_ZN3PTP11TransactionEjPNS_9OperFlagsEPmPv+0x51a>
    3fde:	29 96       	adiw	r28, 0x09	; 9
    3fe0:	4c ac       	ldd	r4, Y+60	; 0x3c
    3fe2:	5d ac       	ldd	r5, Y+61	; 0x3d
    3fe4:	6e ac       	ldd	r6, Y+62	; 0x3e
    3fe6:	7f ac       	ldd	r7, Y+63	; 0x3f
    3fe8:	29 97       	sbiw	r28, 0x09	; 9
    3fea:	6d 96       	adiw	r28, 0x1d	; 29
    3fec:	4c ae       	std	Y+60, r4	; 0x3c
    3fee:	5d ae       	std	Y+61, r5	; 0x3d
    3ff0:	6e ae       	std	Y+62, r6	; 0x3e
    3ff2:	7f ae       	std	Y+63, r7	; 0x3f
    3ff4:	6d 97       	sbiw	r28, 0x1d	; 29
    3ff6:	b5 01       	movw	r22, r10
    3ff8:	d3 01       	movw	r26, r6
    3ffa:	c2 01       	movw	r24, r4
    3ffc:	2c 01       	movw	r4, r24
    3ffe:	3d 01       	movw	r6, r26
    4000:	6d 96       	adiw	r28, 0x1d	; 29
    4002:	0c ad       	ldd	r16, Y+60	; 0x3c
    4004:	1d ad       	ldd	r17, Y+61	; 0x3d
    4006:	2e ad       	ldd	r18, Y+62	; 0x3e
    4008:	3f ad       	ldd	r19, Y+63	; 0x3f
    400a:	6d 97       	sbiw	r28, 0x1d	; 29
    400c:	40 1a       	sub	r4, r16
    400e:	51 0a       	sbc	r5, r17
    4010:	62 0a       	sbc	r6, r18
    4012:	73 0a       	sbc	r7, r19
    4014:	63 96       	adiw	r28, 0x13	; 19
    4016:	2c ad       	ldd	r18, Y+60	; 0x3c
    4018:	3d ad       	ldd	r19, Y+61	; 0x3d
    401a:	4e ad       	ldd	r20, Y+62	; 0x3e
    401c:	5f ad       	ldd	r21, Y+63	; 0x3f
    401e:	63 97       	sbiw	r28, 0x13	; 19
    4020:	42 16       	cp	r4, r18
    4022:	53 06       	cpc	r5, r19
    4024:	64 06       	cpc	r6, r20
    4026:	75 06       	cpc	r7, r21
    4028:	d8 f4       	brcc	.+54     	; 0x4060 <_ZN3PTP11TransactionEjPNS_9OperFlagsEPmPv+0x51a>
    402a:	2d 96       	adiw	r28, 0x0d	; 13
    402c:	ee ad       	ldd	r30, Y+62	; 0x3e
    402e:	ff ad       	ldd	r31, Y+63	; 0x3f
    4030:	2d 97       	sbiw	r28, 0x0d	; 13
    4032:	01 81       	ldd	r16, Z+1	; 0x01
    4034:	06 95       	lsr	r16
    4036:	06 95       	lsr	r16
    4038:	10 e0       	ldi	r17, 0x00	; 0
    403a:	20 e0       	ldi	r18, 0x00	; 0
    403c:	30 e0       	ldi	r19, 0x00	; 0
    403e:	80 17       	cp	r24, r16
    4040:	91 07       	cpc	r25, r17
    4042:	a2 07       	cpc	r26, r18
    4044:	b3 07       	cpc	r27, r19
    4046:	60 f4       	brcc	.+24     	; 0x4060 <_ZN3PTP11TransactionEjPNS_9OperFlagsEPmPv+0x51a>
    4048:	fb 01       	movw	r30, r22
    404a:	21 91       	ld	r18, Z+
    404c:	bf 01       	movw	r22, r30
    404e:	87 01       	movw	r16, r14
    4050:	08 0f       	add	r16, r24
    4052:	19 1f       	adc	r17, r25
    4054:	f8 01       	movw	r30, r16
    4056:	20 83       	st	Z, r18
    4058:	01 96       	adiw	r24, 0x01	; 1
    405a:	a1 1d       	adc	r26, r1
    405c:	b1 1d       	adc	r27, r1
    405e:	ce cf       	rjmp	.-100    	; 0x3ffc <_ZN3PTP11TransactionEjPNS_9OperFlagsEPmPv+0x4b6>
    4060:	29 96       	adiw	r28, 0x09	; 9
    4062:	8c ad       	ldd	r24, Y+60	; 0x3c
    4064:	9d ad       	ldd	r25, Y+61	; 0x3d
    4066:	ae ad       	ldd	r26, Y+62	; 0x3e
    4068:	bf ad       	ldd	r27, Y+63	; 0x3f
    406a:	29 97       	sbiw	r28, 0x09	; 9
    406c:	63 96       	adiw	r28, 0x13	; 19
    406e:	4c ac       	ldd	r4, Y+60	; 0x3c
    4070:	5d ac       	ldd	r5, Y+61	; 0x3d
    4072:	6e ac       	ldd	r6, Y+62	; 0x3e
    4074:	7f ac       	ldd	r7, Y+63	; 0x3f
    4076:	63 97       	sbiw	r28, 0x13	; 19
    4078:	84 0d       	add	r24, r4
    407a:	95 1d       	adc	r25, r5
    407c:	a6 1d       	adc	r26, r6
    407e:	b7 1d       	adc	r27, r7
    4080:	29 96       	adiw	r28, 0x09	; 9
    4082:	8c af       	std	Y+60, r24	; 0x3c
    4084:	9d af       	std	Y+61, r25	; 0x3d
    4086:	ae af       	std	Y+62, r26	; 0x3e
    4088:	bf af       	std	Y+63, r27	; 0x3f
    408a:	29 97       	sbiw	r28, 0x09	; 9
    408c:	0f ef       	ldi	r16, 0xFF	; 255
    408e:	80 1a       	sub	r8, r16
    4090:	90 0a       	sbc	r9, r16
    4092:	b5 ce       	rjmp	.-662    	; 0x3dfe <_ZN3PTP11TransactionEjPNS_9OperFlagsEPmPv+0x2b8>
    4094:	c0 5a       	subi	r28, 0xA0	; 160
    4096:	df 4f       	sbci	r29, 0xFF	; 255
    4098:	0f b6       	in	r0, 0x3f	; 63
    409a:	f8 94       	cli
    409c:	de bf       	out	0x3e, r29	; 62
    409e:	0f be       	out	0x3f, r0	; 63
    40a0:	cd bf       	out	0x3d, r28	; 61
    40a2:	df 91       	pop	r29
    40a4:	cf 91       	pop	r28
    40a6:	1f 91       	pop	r17
    40a8:	0f 91       	pop	r16
    40aa:	ff 90       	pop	r15
    40ac:	ef 90       	pop	r14
    40ae:	df 90       	pop	r13
    40b0:	cf 90       	pop	r12
    40b2:	bf 90       	pop	r11
    40b4:	af 90       	pop	r10
    40b6:	9f 90       	pop	r9
    40b8:	8f 90       	pop	r8
    40ba:	7f 90       	pop	r7
    40bc:	6f 90       	pop	r6
    40be:	5f 90       	pop	r5
    40c0:	4f 90       	pop	r4
    40c2:	3f 90       	pop	r3
    40c4:	2f 90       	pop	r2
    40c6:	08 95       	ret

000040c8 <_ZN3PTP12CloseSessionEv>:
    40c8:	ef 92       	push	r14
    40ca:	ff 92       	push	r15
    40cc:	0f 93       	push	r16
    40ce:	1f 93       	push	r17
    40d0:	cf 93       	push	r28
    40d2:	df 93       	push	r29
    40d4:	00 d0       	rcall	.+0      	; 0x40d6 <_ZN3PTP12CloseSessionEv+0xe>
    40d6:	cd b7       	in	r28, 0x3d	; 61
    40d8:	de b7       	in	r29, 0x3e	; 62
    40da:	7c 01       	movw	r14, r24
    40dc:	1a 82       	std	Y+2, r1	; 0x02
    40de:	19 82       	std	Y+1, r1	; 0x01
    40e0:	00 e0       	ldi	r16, 0x00	; 0
    40e2:	10 e0       	ldi	r17, 0x00	; 0
    40e4:	20 e0       	ldi	r18, 0x00	; 0
    40e6:	30 e0       	ldi	r19, 0x00	; 0
    40e8:	ae 01       	movw	r20, r28
    40ea:	4f 5f       	subi	r20, 0xFF	; 255
    40ec:	5f 4f       	sbci	r21, 0xFF	; 255
    40ee:	63 e0       	ldi	r22, 0x03	; 3
    40f0:	70 e1       	ldi	r23, 0x10	; 16
    40f2:	29 dd       	rcall	.-1454   	; 0x3b46 <_ZN3PTP11TransactionEjPNS_9OperFlagsEPmPv>
    40f4:	81 30       	cpi	r24, 0x01	; 1
    40f6:	20 e2       	ldi	r18, 0x20	; 32
    40f8:	92 07       	cpc	r25, r18
    40fa:	39 f4       	brne	.+14     	; 0x410a <_ZN3PTP12CloseSessionEv+0x42>
    40fc:	f7 01       	movw	r30, r14
    40fe:	16 82       	std	Z+6, r1	; 0x06
    4100:	15 82       	std	Z+5, r1	; 0x05
    4102:	2f ef       	ldi	r18, 0xFF	; 255
    4104:	3f ef       	ldi	r19, 0xFF	; 255
    4106:	34 83       	std	Z+4, r19	; 0x04
    4108:	23 83       	std	Z+3, r18	; 0x03
    410a:	0f 90       	pop	r0
    410c:	0f 90       	pop	r0
    410e:	df 91       	pop	r29
    4110:	cf 91       	pop	r28
    4112:	1f 91       	pop	r17
    4114:	0f 91       	pop	r16
    4116:	ff 90       	pop	r15
    4118:	ef 90       	pop	r14
    411a:	08 95       	ret

0000411c <_ZN3PTP11OpenSessionEv>:
    411c:	ef 92       	push	r14
    411e:	ff 92       	push	r15
    4120:	0f 93       	push	r16
    4122:	1f 93       	push	r17
    4124:	cf 93       	push	r28
    4126:	df 93       	push	r29
    4128:	00 d0       	rcall	.+0      	; 0x412a <_ZN3PTP11OpenSessionEv+0xe>
    412a:	00 d0       	rcall	.+0      	; 0x412c <_ZN3PTP11OpenSessionEv+0x10>
    412c:	00 d0       	rcall	.+0      	; 0x412e <_ZN3PTP11OpenSessionEv+0x12>
    412e:	cd b7       	in	r28, 0x3d	; 61
    4130:	de b7       	in	r29, 0x3e	; 62
    4132:	7c 01       	movw	r14, r24
    4134:	8d 81       	ldd	r24, Y+5	; 0x05
    4136:	80 78       	andi	r24, 0x80	; 128
    4138:	81 60       	ori	r24, 0x01	; 1
    413a:	8f 77       	andi	r24, 0x7F	; 127
    413c:	8d 83       	std	Y+5, r24	; 0x05
    413e:	1e 82       	std	Y+6, r1	; 0x06
    4140:	81 e0       	ldi	r24, 0x01	; 1
    4142:	90 e0       	ldi	r25, 0x00	; 0
    4144:	f7 01       	movw	r30, r14
    4146:	96 83       	std	Z+6, r25	; 0x06
    4148:	85 83       	std	Z+5, r24	; 0x05
    414a:	8f ef       	ldi	r24, 0xFF	; 255
    414c:	9f ef       	ldi	r25, 0xFF	; 255
    414e:	94 83       	std	Z+4, r25	; 0x04
    4150:	83 83       	std	Z+3, r24	; 0x03
    4152:	41 e0       	ldi	r20, 0x01	; 1
    4154:	50 e0       	ldi	r21, 0x00	; 0
    4156:	60 e0       	ldi	r22, 0x00	; 0
    4158:	70 e0       	ldi	r23, 0x00	; 0
    415a:	49 83       	std	Y+1, r20	; 0x01
    415c:	5a 83       	std	Y+2, r21	; 0x02
    415e:	6b 83       	std	Y+3, r22	; 0x03
    4160:	7c 83       	std	Y+4, r23	; 0x04
    4162:	00 e0       	ldi	r16, 0x00	; 0
    4164:	10 e0       	ldi	r17, 0x00	; 0
    4166:	9e 01       	movw	r18, r28
    4168:	2f 5f       	subi	r18, 0xFF	; 255
    416a:	3f 4f       	sbci	r19, 0xFF	; 255
    416c:	ae 01       	movw	r20, r28
    416e:	4b 5f       	subi	r20, 0xFB	; 251
    4170:	5f 4f       	sbci	r21, 0xFF	; 255
    4172:	62 e0       	ldi	r22, 0x02	; 2
    4174:	70 e1       	ldi	r23, 0x10	; 16
    4176:	c7 01       	movw	r24, r14
    4178:	e6 dc       	rcall	.-1588   	; 0x3b46 <_ZN3PTP11TransactionEjPNS_9OperFlagsEPmPv>
    417a:	8c 01       	movw	r16, r24
    417c:	8e 31       	cpi	r24, 0x1E	; 30
    417e:	f0 e2       	ldi	r31, 0x20	; 32
    4180:	9f 07       	cpc	r25, r31
    4182:	11 f4       	brne	.+4      	; 0x4188 <_ZN3PTP11OpenSessionEv+0x6c>
    4184:	c7 01       	movw	r24, r14
    4186:	a0 df       	rcall	.-192    	; 0x40c8 <_ZN3PTP12CloseSessionEv>
    4188:	c8 01       	movw	r24, r16
    418a:	26 96       	adiw	r28, 0x06	; 6
    418c:	0f b6       	in	r0, 0x3f	; 63
    418e:	f8 94       	cli
    4190:	de bf       	out	0x3e, r29	; 62
    4192:	0f be       	out	0x3f, r0	; 63
    4194:	cd bf       	out	0x3d, r28	; 61
    4196:	df 91       	pop	r29
    4198:	cf 91       	pop	r28
    419a:	1f 91       	pop	r17
    419c:	0f 91       	pop	r16
    419e:	ff 90       	pop	r15
    41a0:	ef 90       	pop	r14
    41a2:	08 95       	ret

000041a4 <_ZN16PTPStateHandlers23OnSessionNotOpenedStateEP3PTP>:
    41a4:	cf 93       	push	r28
    41a6:	df 93       	push	r29
    41a8:	eb 01       	movw	r28, r22
    41aa:	cb 01       	movw	r24, r22
    41ac:	b7 df       	rcall	.-146    	; 0x411c <_ZN3PTP11OpenSessionEv>
    41ae:	81 30       	cpi	r24, 0x01	; 1
    41b0:	90 42       	sbci	r25, 0x20	; 32
    41b2:	11 f4       	brne	.+4      	; 0x41b8 <_ZN16PTPStateHandlers23OnSessionNotOpenedStateEP3PTP+0x14>
    41b4:	83 e0       	ldi	r24, 0x03	; 3
    41b6:	8a 83       	std	Y+2, r24	; 0x02
    41b8:	df 91       	pop	r29
    41ba:	cf 91       	pop	r28
    41bc:	08 95       	ret

000041be <_ZN3PTP9OperationEjhPm>:
    41be:	0f 93       	push	r16
    41c0:	1f 93       	push	r17
    41c2:	cf 93       	push	r28
    41c4:	df 93       	push	r29
    41c6:	00 d0       	rcall	.+0      	; 0x41c8 <_ZN3PTP9OperationEjhPm+0xa>
    41c8:	cd b7       	in	r28, 0x3d	; 61
    41ca:	de b7       	in	r29, 0x3e	; 62
    41cc:	1a 82       	std	Y+2, r1	; 0x02
    41ce:	19 82       	std	Y+1, r1	; 0x01
    41d0:	47 70       	andi	r20, 0x07	; 7
    41d2:	49 83       	std	Y+1, r20	; 0x01
    41d4:	00 e0       	ldi	r16, 0x00	; 0
    41d6:	10 e0       	ldi	r17, 0x00	; 0
    41d8:	ae 01       	movw	r20, r28
    41da:	4f 5f       	subi	r20, 0xFF	; 255
    41dc:	5f 4f       	sbci	r21, 0xFF	; 255
    41de:	b3 dc       	rcall	.-1690   	; 0x3b46 <_ZN3PTP11TransactionEjPNS_9OperFlagsEPmPv>
    41e0:	0f 90       	pop	r0
    41e2:	0f 90       	pop	r0
    41e4:	df 91       	pop	r29
    41e6:	cf 91       	pop	r28
    41e8:	1f 91       	pop	r17
    41ea:	0f 91       	pop	r16
    41ec:	08 95       	ret

000041ee <_ZN20MultiByteValueParser5ParseEPPhPj>:
    41ee:	cf 93       	push	r28
    41f0:	df 93       	push	r29
    41f2:	fc 01       	movw	r30, r24
    41f4:	ea 01       	movw	r28, r20
    41f6:	80 81       	ld	r24, Z
    41f8:	91 81       	ldd	r25, Z+1	; 0x01
    41fa:	89 2b       	or	r24, r25
    41fc:	49 f5       	brne	.+82     	; 0x4250 <_ZN20MultiByteValueParser5ParseEPPhPj+0x62>
    41fe:	60 e8       	ldi	r22, 0x80	; 128
    4200:	70 e0       	ldi	r23, 0x00	; 0
    4202:	8e e3       	ldi	r24, 0x3E	; 62
    4204:	91 e0       	ldi	r25, 0x01	; 1
    4206:	0e 94 73 2a 	call	0x54e6	; 0x54e6 <_Z8E_NotifyPKci>
    420a:	26 c0       	rjmp	.+76     	; 0x4258 <_ZN20MultiByteValueParser5ParseEPPhPj+0x6a>
    420c:	88 81       	ld	r24, Y
    420e:	99 81       	ldd	r25, Y+1	; 0x01
    4210:	89 2b       	or	r24, r25
    4212:	11 f1       	breq	.+68     	; 0x4258 <_ZN20MultiByteValueParser5ParseEPPhPj+0x6a>
    4214:	db 01       	movw	r26, r22
    4216:	8d 91       	ld	r24, X+
    4218:	9c 91       	ld	r25, X
    421a:	dc 01       	movw	r26, r24
    421c:	5c 91       	ld	r21, X
    421e:	23 81       	ldd	r18, Z+3	; 0x03
    4220:	30 e0       	ldi	r19, 0x00	; 0
    4222:	24 1b       	sub	r18, r20
    4224:	31 09       	sbc	r19, r1
    4226:	80 81       	ld	r24, Z
    4228:	91 81       	ldd	r25, Z+1	; 0x01
    422a:	82 0f       	add	r24, r18
    422c:	93 1f       	adc	r25, r19
    422e:	dc 01       	movw	r26, r24
    4230:	5c 93       	st	X, r21
    4232:	82 81       	ldd	r24, Z+2	; 0x02
    4234:	81 50       	subi	r24, 0x01	; 1
    4236:	82 83       	std	Z+2, r24	; 0x02
    4238:	88 81       	ld	r24, Y
    423a:	99 81       	ldd	r25, Y+1	; 0x01
    423c:	01 97       	sbiw	r24, 0x01	; 1
    423e:	99 83       	std	Y+1, r25	; 0x01
    4240:	88 83       	st	Y, r24
    4242:	db 01       	movw	r26, r22
    4244:	8d 91       	ld	r24, X+
    4246:	9c 91       	ld	r25, X
    4248:	11 97       	sbiw	r26, 0x01	; 1
    424a:	01 96       	adiw	r24, 0x01	; 1
    424c:	8d 93       	st	X+, r24
    424e:	9c 93       	st	X, r25
    4250:	42 81       	ldd	r20, Z+2	; 0x02
    4252:	41 11       	cpse	r20, r1
    4254:	db cf       	rjmp	.-74     	; 0x420c <_ZN20MultiByteValueParser5ParseEPPhPj+0x1e>
    4256:	02 c0       	rjmp	.+4      	; 0x425c <_ZN20MultiByteValueParser5ParseEPPhPj+0x6e>
    4258:	80 e0       	ldi	r24, 0x00	; 0
    425a:	03 c0       	rjmp	.+6      	; 0x4262 <_ZN20MultiByteValueParser5ParseEPPhPj+0x74>
    425c:	83 81       	ldd	r24, Z+3	; 0x03
    425e:	82 83       	std	Z+2, r24	; 0x02
    4260:	81 e0       	ldi	r24, 0x01	; 1
    4262:	df 91       	pop	r29
    4264:	cf 91       	pop	r28
    4266:	08 95       	ret

00004268 <_ZN3USBC1Ev>:
    4268:	fc 01       	movw	r30, r24
    426a:	8c e2       	ldi	r24, 0x2C	; 44
    426c:	92 e0       	ldi	r25, 0x02	; 2
    426e:	91 83       	std	Z+1, r25	; 0x01
    4270:	80 83       	st	Z, r24
    4272:	15 82       	std	Z+5, r1	; 0x05
    4274:	10 86       	std	Z+8, r1	; 0x08
    4276:	81 e0       	ldi	r24, 0x01	; 1
    4278:	81 87       	std	Z+9, r24	; 0x09
    427a:	12 86       	std	Z+10, r1	; 0x0a
    427c:	9f 01       	movw	r18, r30
    427e:	2e 5f       	subi	r18, 0xFE	; 254
    4280:	3f 4f       	sbci	r19, 0xFF	; 255
    4282:	37 83       	std	Z+7, r19	; 0x07
    4284:	26 83       	std	Z+6, r18	; 0x06
    4286:	12 82       	std	Z+2, r1	; 0x02
    4288:	88 e0       	ldi	r24, 0x08	; 8
    428a:	83 83       	std	Z+3, r24	; 0x03
    428c:	8c e3       	ldi	r24, 0x3C	; 60
    428e:	84 83       	std	Z+4, r24	; 0x04
    4290:	80 e0       	ldi	r24, 0x00	; 0
    4292:	90 e0       	ldi	r25, 0x00	; 0
    4294:	41 e0       	ldi	r20, 0x01	; 1
    4296:	df 01       	movw	r26, r30
    4298:	a8 0f       	add	r26, r24
    429a:	b9 1f       	adc	r27, r25
    429c:	1d 96       	adiw	r26, 0x0d	; 13
    429e:	1c 92       	st	X, r1
    42a0:	1d 97       	sbiw	r26, 0x0d	; 13
    42a2:	1e 96       	adiw	r26, 0x0e	; 14
    42a4:	4c 93       	st	X, r20
    42a6:	1e 97       	sbiw	r26, 0x0e	; 14
    42a8:	1f 96       	adiw	r26, 0x0f	; 15
    42aa:	1c 92       	st	X, r1
    42ac:	1f 97       	sbiw	r26, 0x0f	; 15
    42ae:	1c 96       	adiw	r26, 0x0c	; 12
    42b0:	3c 93       	st	X, r19
    42b2:	2e 93       	st	-X, r18
    42b4:	1b 97       	sbiw	r26, 0x0b	; 11
    42b6:	05 96       	adiw	r24, 0x05	; 5
    42b8:	8b 34       	cpi	r24, 0x4B	; 75
    42ba:	91 05       	cpc	r25, r1
    42bc:	61 f7       	brne	.-40     	; 0x4296 <_ZN3USBC1Ev+0x2e>
    42be:	ea 58       	subi	r30, 0x8A	; 138
    42c0:	ff 4f       	sbci	r31, 0xFF	; 255
    42c2:	10 82       	st	Z, r1
    42c4:	81 e1       	ldi	r24, 0x11	; 17
    42c6:	80 93 f3 04 	sts	0x04F3, r24
    42ca:	08 95       	ret

000042cc <_ZN15AddressPoolImplILh16EE16FindAddressIndexEh>:
    42cc:	20 e0       	ldi	r18, 0x00	; 0
    42ce:	30 e0       	ldi	r19, 0x00	; 0
    42d0:	41 e0       	ldi	r20, 0x01	; 1
    42d2:	fc 01       	movw	r30, r24
    42d4:	e2 0f       	add	r30, r18
    42d6:	f3 1f       	adc	r31, r19
    42d8:	55 85       	ldd	r21, Z+13	; 0x0d
    42da:	56 17       	cp	r21, r22
    42dc:	39 f0       	breq	.+14     	; 0x42ec <_ZN15AddressPoolImplILh16EE16FindAddressIndexEh+0x20>
    42de:	4f 5f       	subi	r20, 0xFF	; 255
    42e0:	2b 5f       	subi	r18, 0xFB	; 251
    42e2:	3f 4f       	sbci	r19, 0xFF	; 255
    42e4:	40 31       	cpi	r20, 0x10	; 16
    42e6:	a9 f7       	brne	.-22     	; 0x42d2 <_ZN15AddressPoolImplILh16EE16FindAddressIndexEh+0x6>
    42e8:	80 e0       	ldi	r24, 0x00	; 0
    42ea:	08 95       	ret
    42ec:	84 2f       	mov	r24, r20
    42ee:	08 95       	ret

000042f0 <_ZN15AddressPoolImplILh16EE12AllocAddressEhbh>:
    42f0:	ef 92       	push	r14
    42f2:	ff 92       	push	r15
    42f4:	1f 93       	push	r17
    42f6:	cf 93       	push	r28
    42f8:	df 93       	push	r29
    42fa:	00 d0       	rcall	.+0      	; 0x42fc <_ZN15AddressPoolImplILh16EE12AllocAddressEhbh+0xc>
    42fc:	cd b7       	in	r28, 0x3d	; 61
    42fe:	de b7       	in	r29, 0x3e	; 62
    4300:	7c 01       	movw	r14, r24
    4302:	16 2f       	mov	r17, r22
    4304:	67 fd       	sbrc	r22, 7
    4306:	5e c0       	rjmp	.+188    	; 0x43c4 <_ZN15AddressPoolImplILh16EE12AllocAddressEhbh+0xd4>
    4308:	28 30       	cpi	r18, 0x08	; 8
    430a:	08 f0       	brcs	.+2      	; 0x430e <_ZN15AddressPoolImplILh16EE12AllocAddressEhbh+0x1e>
    430c:	5b c0       	rjmp	.+182    	; 0x43c4 <_ZN15AddressPoolImplILh16EE12AllocAddressEhbh+0xd4>
    430e:	44 23       	and	r20, r20
    4310:	31 f0       	breq	.+12     	; 0x431e <_ZN15AddressPoolImplILh16EE12AllocAddressEhbh+0x2e>
    4312:	dc 01       	movw	r26, r24
    4314:	15 96       	adiw	r26, 0x05	; 5
    4316:	8c 91       	ld	r24, X
    4318:	87 30       	cpi	r24, 0x07	; 7
    431a:	09 f4       	brne	.+2      	; 0x431e <_ZN15AddressPoolImplILh16EE12AllocAddressEhbh+0x2e>
    431c:	53 c0       	rjmp	.+166    	; 0x43c4 <_ZN15AddressPoolImplILh16EE12AllocAddressEhbh+0xd4>
    431e:	60 e0       	ldi	r22, 0x00	; 0
    4320:	c7 01       	movw	r24, r14
    4322:	2a 83       	std	Y+2, r18	; 0x02
    4324:	49 83       	std	Y+1, r20	; 0x01
    4326:	d2 df       	rcall	.-92     	; 0x42cc <_ZN15AddressPoolImplILh16EE16FindAddressIndexEh>
    4328:	2a 81       	ldd	r18, Y+2	; 0x02
    432a:	49 81       	ldd	r20, Y+1	; 0x01
    432c:	88 23       	and	r24, r24
    432e:	09 f4       	brne	.+2      	; 0x4332 <_ZN15AddressPoolImplILh16EE12AllocAddressEhbh+0x42>
    4330:	49 c0       	rjmp	.+146    	; 0x43c4 <_ZN15AddressPoolImplILh16EE12AllocAddressEhbh+0xd4>
    4332:	e8 2f       	mov	r30, r24
    4334:	f0 e0       	ldi	r31, 0x00	; 0
    4336:	11 11       	cpse	r17, r1
    4338:	23 c0       	rjmp	.+70     	; 0x4380 <_ZN15AddressPoolImplILh16EE12AllocAddressEhbh+0x90>
    433a:	85 e0       	ldi	r24, 0x05	; 5
    433c:	8e 9f       	mul	r24, r30
    433e:	d0 01       	movw	r26, r0
    4340:	8f 9f       	mul	r24, r31
    4342:	b0 0d       	add	r27, r0
    4344:	11 24       	eor	r1, r1
    4346:	ae 0d       	add	r26, r14
    4348:	bf 1d       	adc	r27, r15
    434a:	44 23       	and	r20, r20
    434c:	59 f0       	breq	.+22     	; 0x4364 <_ZN15AddressPoolImplILh16EE12AllocAddressEhbh+0x74>
    434e:	81 e4       	ldi	r24, 0x41	; 65
    4350:	18 96       	adiw	r26, 0x08	; 8
    4352:	8c 93       	st	X, r24
    4354:	d7 01       	movw	r26, r14
    4356:	15 96       	adiw	r26, 0x05	; 5
    4358:	8c 91       	ld	r24, X
    435a:	15 97       	sbiw	r26, 0x05	; 5
    435c:	8f 5f       	subi	r24, 0xFF	; 255
    435e:	15 96       	adiw	r26, 0x05	; 5
    4360:	8c 93       	st	X, r24
    4362:	03 c0       	rjmp	.+6      	; 0x436a <_ZN15AddressPoolImplILh16EE12AllocAddressEhbh+0x7a>
    4364:	81 e0       	ldi	r24, 0x01	; 1
    4366:	18 96       	adiw	r26, 0x08	; 8
    4368:	8c 93       	st	X, r24
    436a:	85 e0       	ldi	r24, 0x05	; 5
    436c:	8e 9f       	mul	r24, r30
    436e:	d0 01       	movw	r26, r0
    4370:	8f 9f       	mul	r24, r31
    4372:	b0 0d       	add	r27, r0
    4374:	11 24       	eor	r1, r1
    4376:	ae 0d       	add	r26, r14
    4378:	bf 1d       	adc	r27, r15
    437a:	18 96       	adiw	r26, 0x08	; 8
    437c:	8c 91       	ld	r24, X
    437e:	23 c0       	rjmp	.+70     	; 0x43c6 <_ZN15AddressPoolImplILh16EE12AllocAddressEhbh+0xd6>
    4380:	61 2f       	mov	r22, r17
    4382:	67 70       	andi	r22, 0x07	; 7
    4384:	66 0f       	add	r22, r22
    4386:	66 0f       	add	r22, r22
    4388:	66 0f       	add	r22, r22
    438a:	44 23       	and	r20, r20
    438c:	61 f0       	breq	.+24     	; 0x43a6 <_ZN15AddressPoolImplILh16EE12AllocAddressEhbh+0xb6>
    438e:	60 64       	ori	r22, 0x40	; 64
    4390:	d7 01       	movw	r26, r14
    4392:	15 96       	adiw	r26, 0x05	; 5
    4394:	8c 91       	ld	r24, X
    4396:	15 97       	sbiw	r26, 0x05	; 5
    4398:	8f 5f       	subi	r24, 0xFF	; 255
    439a:	15 96       	adiw	r26, 0x05	; 5
    439c:	8c 93       	st	X, r24
    439e:	87 70       	andi	r24, 0x07	; 7
    43a0:	68 7f       	andi	r22, 0xF8	; 248
    43a2:	68 2b       	or	r22, r24
    43a4:	03 c0       	rjmp	.+6      	; 0x43ac <_ZN15AddressPoolImplILh16EE12AllocAddressEhbh+0xbc>
    43a6:	27 70       	andi	r18, 0x07	; 7
    43a8:	68 7b       	andi	r22, 0xB8	; 184
    43aa:	62 2b       	or	r22, r18
    43ac:	85 e0       	ldi	r24, 0x05	; 5
    43ae:	8e 9f       	mul	r24, r30
    43b0:	d0 01       	movw	r26, r0
    43b2:	8f 9f       	mul	r24, r31
    43b4:	b0 0d       	add	r27, r0
    43b6:	11 24       	eor	r1, r1
    43b8:	ae 0d       	add	r26, r14
    43ba:	bf 1d       	adc	r27, r15
    43bc:	18 96       	adiw	r26, 0x08	; 8
    43be:	6c 93       	st	X, r22
    43c0:	86 2f       	mov	r24, r22
    43c2:	01 c0       	rjmp	.+2      	; 0x43c6 <_ZN15AddressPoolImplILh16EE12AllocAddressEhbh+0xd6>
    43c4:	80 e0       	ldi	r24, 0x00	; 0
    43c6:	0f 90       	pop	r0
    43c8:	0f 90       	pop	r0
    43ca:	df 91       	pop	r29
    43cc:	cf 91       	pop	r28
    43ce:	1f 91       	pop	r17
    43d0:	ff 90       	pop	r15
    43d2:	ef 90       	pop	r14
    43d4:	08 95       	ret

000043d6 <_ZN15AddressPoolImplILh16EE15GetUsbDevicePtrEh>:
    43d6:	cf 93       	push	r28
    43d8:	df 93       	push	r29
    43da:	ec 01       	movw	r28, r24
    43dc:	66 23       	and	r22, r22
    43de:	51 f0       	breq	.+20     	; 0x43f4 <_ZN15AddressPoolImplILh16EE15GetUsbDevicePtrEh+0x1e>
    43e0:	75 df       	rcall	.-278    	; 0x42cc <_ZN15AddressPoolImplILh16EE16FindAddressIndexEh>
    43e2:	88 23       	and	r24, r24
    43e4:	49 f0       	breq	.+18     	; 0x43f8 <_ZN15AddressPoolImplILh16EE15GetUsbDevicePtrEh+0x22>
    43e6:	9e 01       	movw	r18, r28
    43e8:	45 e0       	ldi	r20, 0x05	; 5
    43ea:	84 9f       	mul	r24, r20
    43ec:	20 0d       	add	r18, r0
    43ee:	31 1d       	adc	r19, r1
    43f0:	11 24       	eor	r1, r1
    43f2:	c9 01       	movw	r24, r18
    43f4:	06 96       	adiw	r24, 0x06	; 6
    43f6:	02 c0       	rjmp	.+4      	; 0x43fc <_ZN15AddressPoolImplILh16EE15GetUsbDevicePtrEh+0x26>
    43f8:	80 e0       	ldi	r24, 0x00	; 0
    43fa:	90 e0       	ldi	r25, 0x00	; 0
    43fc:	df 91       	pop	r29
    43fe:	cf 91       	pop	r28
    4400:	08 95       	ret

00004402 <_ZN3USB14getEpInfoEntryEhh>:
    4402:	cf 93       	push	r28
    4404:	df 93       	push	r29
    4406:	1f 92       	push	r1
    4408:	cd b7       	in	r28, 0x3d	; 61
    440a:	de b7       	in	r29, 0x3e	; 62
    440c:	49 83       	std	Y+1, r20	; 0x01
    440e:	e3 df       	rcall	.-58     	; 0x43d6 <_ZN15AddressPoolImplILh16EE15GetUsbDevicePtrEh>
    4410:	49 81       	ldd	r20, Y+1	; 0x01
    4412:	00 97       	sbiw	r24, 0x00	; 0
    4414:	89 f0       	breq	.+34     	; 0x4438 <_ZN3USB14getEpInfoEntryEhh+0x36>
    4416:	dc 01       	movw	r26, r24
    4418:	ed 91       	ld	r30, X+
    441a:	fc 91       	ld	r31, X
    441c:	11 97       	sbiw	r26, 0x01	; 1
    441e:	30 97       	sbiw	r30, 0x00	; 0
    4420:	59 f0       	breq	.+22     	; 0x4438 <_ZN3USB14getEpInfoEntryEhh+0x36>
    4422:	13 96       	adiw	r26, 0x03	; 3
    4424:	9c 91       	ld	r25, X
    4426:	80 e0       	ldi	r24, 0x00	; 0
    4428:	89 17       	cp	r24, r25
    442a:	31 f0       	breq	.+12     	; 0x4438 <_ZN3USB14getEpInfoEntryEhh+0x36>
    442c:	20 81       	ld	r18, Z
    442e:	24 17       	cp	r18, r20
    4430:	31 f0       	breq	.+12     	; 0x443e <_ZN3USB14getEpInfoEntryEhh+0x3c>
    4432:	33 96       	adiw	r30, 0x03	; 3
    4434:	8f 5f       	subi	r24, 0xFF	; 255
    4436:	f8 cf       	rjmp	.-16     	; 0x4428 <_ZN3USB14getEpInfoEntryEhh+0x26>
    4438:	80 e0       	ldi	r24, 0x00	; 0
    443a:	90 e0       	ldi	r25, 0x00	; 0
    443c:	01 c0       	rjmp	.+2      	; 0x4440 <_ZN3USB14getEpInfoEntryEhh+0x3e>
    443e:	cf 01       	movw	r24, r30
    4440:	0f 90       	pop	r0
    4442:	df 91       	pop	r29
    4444:	cf 91       	pop	r28
    4446:	08 95       	ret

00004448 <_ZN3USB14setEpInfoEntryEhhP6EpInfo>:
    4448:	ef 92       	push	r14
    444a:	ff 92       	push	r15
    444c:	1f 93       	push	r17
    444e:	cf 93       	push	r28
    4450:	df 93       	push	r29
    4452:	1f 92       	push	r1
    4454:	cd b7       	in	r28, 0x3d	; 61
    4456:	de b7       	in	r29, 0x3e	; 62
    4458:	16 2f       	mov	r17, r22
    445a:	79 01       	movw	r14, r18
    445c:	21 15       	cp	r18, r1
    445e:	31 05       	cpc	r19, r1
    4460:	61 f0       	breq	.+24     	; 0x447a <_ZN3USB14setEpInfoEntryEhhP6EpInfo+0x32>
    4462:	49 83       	std	Y+1, r20	; 0x01
    4464:	b8 df       	rcall	.-144    	; 0x43d6 <_ZN15AddressPoolImplILh16EE15GetUsbDevicePtrEh>
    4466:	fc 01       	movw	r30, r24
    4468:	49 81       	ldd	r20, Y+1	; 0x01
    446a:	00 97       	sbiw	r24, 0x00	; 0
    446c:	41 f0       	breq	.+16     	; 0x447e <_ZN3USB14setEpInfoEntryEhhP6EpInfo+0x36>
    446e:	12 83       	std	Z+2, r17	; 0x02
    4470:	f1 82       	std	Z+1, r15	; 0x01
    4472:	e0 82       	st	Z, r14
    4474:	43 83       	std	Z+3, r20	; 0x03
    4476:	80 e0       	ldi	r24, 0x00	; 0
    4478:	03 c0       	rjmp	.+6      	; 0x4480 <_ZN3USB14setEpInfoEntryEhhP6EpInfo+0x38>
    447a:	88 ed       	ldi	r24, 0xD8	; 216
    447c:	01 c0       	rjmp	.+2      	; 0x4480 <_ZN3USB14setEpInfoEntryEhhP6EpInfo+0x38>
    447e:	86 ed       	ldi	r24, 0xD6	; 214
    4480:	0f 90       	pop	r0
    4482:	df 91       	pop	r29
    4484:	cf 91       	pop	r28
    4486:	1f 91       	pop	r17
    4488:	ff 90       	pop	r15
    448a:	ef 90       	pop	r14
    448c:	08 95       	ret

0000448e <_ZN4TPinI5PortbLh2EE5ClearEv>:
    448e:	2a 98       	cbi	0x05, 2	; 5
    4490:	08 95       	ret

00004492 <_ZN8MAX3421eI4TPinI5PortbLh2EES0_IS1_Lh1EEE5regRdEh.isra.2>:
    4492:	cf 93       	push	r28
    4494:	df 93       	push	r29
    4496:	1f 92       	push	r1
    4498:	cd b7       	in	r28, 0x3d	; 61
    449a:	de b7       	in	r29, 0x3e	; 62
    449c:	89 83       	std	Y+1, r24	; 0x01
    449e:	f7 df       	rcall	.-18     	; 0x448e <_ZN4TPinI5PortbLh2EE5ClearEv>
    44a0:	89 81       	ldd	r24, Y+1	; 0x01
    44a2:	8e bd       	out	0x2e, r24	; 46
    44a4:	0d b4       	in	r0, 0x2d	; 45
    44a6:	07 fe       	sbrs	r0, 7
    44a8:	fd cf       	rjmp	.-6      	; 0x44a4 <_ZN8MAX3421eI4TPinI5PortbLh2EES0_IS1_Lh1EEE5regRdEh.isra.2+0x12>
    44aa:	1e bc       	out	0x2e, r1	; 46
    44ac:	0d b4       	in	r0, 0x2d	; 45
    44ae:	07 fe       	sbrs	r0, 7
    44b0:	fd cf       	rjmp	.-6      	; 0x44ac <_ZN8MAX3421eI4TPinI5PortbLh2EES0_IS1_Lh1EEE5regRdEh.isra.2+0x1a>
    44b2:	0e 94 9b 06 	call	0xd36	; 0xd36 <_ZN4TPinI5PortbLh2EE3SetEv>
    44b6:	8e b5       	in	r24, 0x2e	; 46
    44b8:	0f 90       	pop	r0
    44ba:	df 91       	pop	r29
    44bc:	cf 91       	pop	r28
    44be:	08 95       	ret

000044c0 <_ZN8MAX3421eI4TPinI5PortbLh2EES0_IS1_Lh1EEE5regWrEhh.isra.3>:
    44c0:	cf 93       	push	r28
    44c2:	df 93       	push	r29
    44c4:	00 d0       	rcall	.+0      	; 0x44c6 <_ZN8MAX3421eI4TPinI5PortbLh2EES0_IS1_Lh1EEE5regWrEhh.isra.3+0x6>
    44c6:	cd b7       	in	r28, 0x3d	; 61
    44c8:	de b7       	in	r29, 0x3e	; 62
    44ca:	6a 83       	std	Y+2, r22	; 0x02
    44cc:	89 83       	std	Y+1, r24	; 0x01
    44ce:	df df       	rcall	.-66     	; 0x448e <_ZN4TPinI5PortbLh2EE5ClearEv>
    44d0:	89 81       	ldd	r24, Y+1	; 0x01
    44d2:	82 60       	ori	r24, 0x02	; 2
    44d4:	8e bd       	out	0x2e, r24	; 46
    44d6:	6a 81       	ldd	r22, Y+2	; 0x02
    44d8:	0d b4       	in	r0, 0x2d	; 45
    44da:	07 fe       	sbrs	r0, 7
    44dc:	fd cf       	rjmp	.-6      	; 0x44d8 <_ZN8MAX3421eI4TPinI5PortbLh2EES0_IS1_Lh1EEE5regWrEhh.isra.3+0x18>
    44de:	6e bd       	out	0x2e, r22	; 46
    44e0:	0d b4       	in	r0, 0x2d	; 45
    44e2:	07 fe       	sbrs	r0, 7
    44e4:	fd cf       	rjmp	.-6      	; 0x44e0 <_ZN8MAX3421eI4TPinI5PortbLh2EES0_IS1_Lh1EEE5regWrEhh.isra.3+0x20>
    44e6:	0f 90       	pop	r0
    44e8:	0f 90       	pop	r0
    44ea:	df 91       	pop	r29
    44ec:	cf 91       	pop	r28
    44ee:	0c 94 9b 06 	jmp	0xd36	; 0xd36 <_ZN4TPinI5PortbLh2EE3SetEv>

000044f2 <_ZN3USB10SetAddressEhhPP6EpInfoRj>:
    44f2:	8f 92       	push	r8
    44f4:	9f 92       	push	r9
    44f6:	bf 92       	push	r11
    44f8:	cf 92       	push	r12
    44fa:	df 92       	push	r13
    44fc:	ef 92       	push	r14
    44fe:	ff 92       	push	r15
    4500:	0f 93       	push	r16
    4502:	1f 93       	push	r17
    4504:	cf 93       	push	r28
    4506:	df 93       	push	r29
    4508:	1f 92       	push	r1
    450a:	cd b7       	in	r28, 0x3d	; 61
    450c:	de b7       	in	r29, 0x3e	; 62
    450e:	4c 01       	movw	r8, r24
    4510:	b6 2e       	mov	r11, r22
    4512:	69 01       	movw	r12, r18
    4514:	49 83       	std	Y+1, r20	; 0x01
    4516:	5f df       	rcall	.-322    	; 0x43d6 <_ZN15AddressPoolImplILh16EE15GetUsbDevicePtrEh>
    4518:	7c 01       	movw	r14, r24
    451a:	49 81       	ldd	r20, Y+1	; 0x01
    451c:	00 97       	sbiw	r24, 0x00	; 0
    451e:	09 f4       	brne	.+2      	; 0x4522 <_ZN3USB10SetAddressEhhPP6EpInfoRj+0x30>
    4520:	3f c0       	rjmp	.+126    	; 0x45a0 <_ZN3USB10SetAddressEhhPP6EpInfoRj+0xae>
    4522:	fc 01       	movw	r30, r24
    4524:	80 81       	ld	r24, Z
    4526:	91 81       	ldd	r25, Z+1	; 0x01
    4528:	89 2b       	or	r24, r25
    452a:	09 f4       	brne	.+2      	; 0x452e <_ZN3USB10SetAddressEhhPP6EpInfoRj+0x3c>
    452c:	3b c0       	rjmp	.+118    	; 0x45a4 <_ZN3USB10SetAddressEhhPP6EpInfoRj+0xb2>
    452e:	6b 2d       	mov	r22, r11
    4530:	c4 01       	movw	r24, r8
    4532:	67 df       	rcall	.-306    	; 0x4402 <_ZN3USB14getEpInfoEntryEhh>
    4534:	f6 01       	movw	r30, r12
    4536:	91 83       	std	Z+1, r25	; 0x01
    4538:	80 83       	st	Z, r24
    453a:	00 97       	sbiw	r24, 0x00	; 0
    453c:	a9 f1       	breq	.+106    	; 0x45a8 <_ZN3USB10SetAddressEhhPP6EpInfoRj+0xb6>
    453e:	fc 01       	movw	r30, r24
    4540:	22 81       	ldd	r18, Z+2	; 0x02
    4542:	26 95       	lsr	r18
    4544:	26 95       	lsr	r18
    4546:	82 2f       	mov	r24, r18
    4548:	90 e0       	ldi	r25, 0x00	; 0
    454a:	40 97       	sbiw	r24, 0x10	; 16
    454c:	64 f4       	brge	.+24     	; 0x4566 <_ZN3USB10SetAddressEhhPP6EpInfoRj+0x74>
    454e:	41 e0       	ldi	r20, 0x01	; 1
    4550:	50 e0       	ldi	r21, 0x00	; 0
    4552:	60 e0       	ldi	r22, 0x00	; 0
    4554:	70 e0       	ldi	r23, 0x00	; 0
    4556:	04 c0       	rjmp	.+8      	; 0x4560 <_ZN3USB10SetAddressEhhPP6EpInfoRj+0x6e>
    4558:	44 0f       	add	r20, r20
    455a:	55 1f       	adc	r21, r21
    455c:	66 1f       	adc	r22, r22
    455e:	77 1f       	adc	r23, r23
    4560:	2a 95       	dec	r18
    4562:	d2 f7       	brpl	.-12     	; 0x4558 <_ZN3USB10SetAddressEhhPP6EpInfoRj+0x66>
    4564:	02 c0       	rjmp	.+4      	; 0x456a <_ZN3USB10SetAddressEhhPP6EpInfoRj+0x78>
    4566:	40 e0       	ldi	r20, 0x00	; 0
    4568:	50 e8       	ldi	r21, 0x80	; 128
    456a:	41 50       	subi	r20, 0x01	; 1
    456c:	51 09       	sbc	r21, r1
    456e:	f8 01       	movw	r30, r16
    4570:	51 83       	std	Z+1, r21	; 0x01
    4572:	40 83       	st	Z, r20
    4574:	6b 2d       	mov	r22, r11
    4576:	80 ee       	ldi	r24, 0xE0	; 224
    4578:	a3 df       	rcall	.-186    	; 0x44c0 <_ZN8MAX3421eI4TPinI5PortbLh2EES0_IS1_Lh1EEE5regWrEhh.isra.3>
    457a:	88 ed       	ldi	r24, 0xD8	; 216
    457c:	8a df       	rcall	.-236    	; 0x4492 <_ZN8MAX3421eI4TPinI5PortbLh2EES0_IS1_Lh1EEE5regRdEh.isra.2>
    457e:	f7 01       	movw	r30, r14
    4580:	94 81       	ldd	r25, Z+4	; 0x04
    4582:	99 23       	and	r25, r25
    4584:	39 f0       	breq	.+14     	; 0x4594 <_ZN3USB10SetAddressEhhPP6EpInfoRj+0xa2>
    4586:	f4 01       	movw	r30, r8
    4588:	ea 58       	subi	r30, 0x8A	; 138
    458a:	ff 4f       	sbci	r31, 0xFF	; 255
    458c:	60 81       	ld	r22, Z
    458e:	62 60       	ori	r22, 0x02	; 2
    4590:	68 2b       	or	r22, r24
    4592:	02 c0       	rjmp	.+4      	; 0x4598 <_ZN3USB10SetAddressEhhPP6EpInfoRj+0xa6>
    4594:	68 2f       	mov	r22, r24
    4596:	69 7f       	andi	r22, 0xF9	; 249
    4598:	88 ed       	ldi	r24, 0xD8	; 216
    459a:	92 df       	rcall	.-220    	; 0x44c0 <_ZN8MAX3421eI4TPinI5PortbLh2EES0_IS1_Lh1EEE5regWrEhh.isra.3>
    459c:	80 e0       	ldi	r24, 0x00	; 0
    459e:	05 c0       	rjmp	.+10     	; 0x45aa <_ZN3USB10SetAddressEhhPP6EpInfoRj+0xb8>
    45a0:	86 ed       	ldi	r24, 0xD6	; 214
    45a2:	03 c0       	rjmp	.+6      	; 0x45aa <_ZN3USB10SetAddressEhhPP6EpInfoRj+0xb8>
    45a4:	87 ed       	ldi	r24, 0xD7	; 215
    45a6:	01 c0       	rjmp	.+2      	; 0x45aa <_ZN3USB10SetAddressEhhPP6EpInfoRj+0xb8>
    45a8:	8b ed       	ldi	r24, 0xDB	; 219
    45aa:	0f 90       	pop	r0
    45ac:	df 91       	pop	r29
    45ae:	cf 91       	pop	r28
    45b0:	1f 91       	pop	r17
    45b2:	0f 91       	pop	r16
    45b4:	ff 90       	pop	r15
    45b6:	ef 90       	pop	r14
    45b8:	df 90       	pop	r13
    45ba:	cf 90       	pop	r12
    45bc:	bf 90       	pop	r11
    45be:	9f 90       	pop	r9
    45c0:	8f 90       	pop	r8
    45c2:	08 95       	ret

000045c4 <_ZN3USB11dispatchPktEhhj>:
    45c4:	8f 92       	push	r8
    45c6:	9f 92       	push	r9
    45c8:	af 92       	push	r10
    45ca:	bf 92       	push	r11
    45cc:	cf 92       	push	r12
    45ce:	df 92       	push	r13
    45d0:	ef 92       	push	r14
    45d2:	ff 92       	push	r15
    45d4:	0f 93       	push	r16
    45d6:	1f 93       	push	r17
    45d8:	cf 93       	push	r28
    45da:	df 93       	push	r29
    45dc:	1f 92       	push	r1
    45de:	cd b7       	in	r28, 0x3d	; 61
    45e0:	de b7       	in	r29, 0x3e	; 62
    45e2:	a6 2e       	mov	r10, r22
    45e4:	89 01       	movw	r16, r18
    45e6:	49 83       	std	Y+1, r20	; 0x01
    45e8:	0e 94 a7 18 	call	0x314e	; 0x314e <millis>
    45ec:	6b 01       	movw	r12, r22
    45ee:	7c 01       	movw	r14, r24
    45f0:	80 e1       	ldi	r24, 0x10	; 16
    45f2:	c8 0e       	add	r12, r24
    45f4:	87 e2       	ldi	r24, 0x27	; 39
    45f6:	d8 1e       	adc	r13, r24
    45f8:	e1 1c       	adc	r14, r1
    45fa:	f1 1c       	adc	r15, r1
    45fc:	81 2c       	mov	r8, r1
    45fe:	91 2c       	mov	r9, r1
    4600:	b1 2c       	mov	r11, r1
    4602:	20 e0       	ldi	r18, 0x00	; 0
    4604:	49 81       	ldd	r20, Y+1	; 0x01
    4606:	a4 2a       	or	r10, r20
    4608:	29 83       	std	Y+1, r18	; 0x01
    460a:	0e 94 a7 18 	call	0x314e	; 0x314e <millis>
    460e:	29 81       	ldd	r18, Y+1	; 0x01
    4610:	6c 15       	cp	r22, r12
    4612:	7d 05       	cpc	r23, r13
    4614:	8e 05       	cpc	r24, r14
    4616:	9f 05       	cpc	r25, r15
    4618:	40 f5       	brcc	.+80     	; 0x466a <_ZN3USB11dispatchPktEhhj+0xa6>
    461a:	6a 2d       	mov	r22, r10
    461c:	80 ef       	ldi	r24, 0xF0	; 240
    461e:	50 df       	rcall	.-352    	; 0x44c0 <_ZN8MAX3421eI4TPinI5PortbLh2EES0_IS1_Lh1EEE5regWrEhh.isra.3>
    4620:	0e 94 a7 18 	call	0x314e	; 0x314e <millis>
    4624:	6c 15       	cp	r22, r12
    4626:	7d 05       	cpc	r23, r13
    4628:	8e 05       	cpc	r24, r14
    462a:	9f 05       	cpc	r25, r15
    462c:	38 f4       	brcc	.+14     	; 0x463c <_ZN3USB11dispatchPktEhhj+0x78>
    462e:	88 ec       	ldi	r24, 0xC8	; 200
    4630:	30 df       	rcall	.-416    	; 0x4492 <_ZN8MAX3421eI4TPinI5PortbLh2EES0_IS1_Lh1EEE5regRdEh.isra.2>
    4632:	87 ff       	sbrs	r24, 7
    4634:	f5 cf       	rjmp	.-22     	; 0x4620 <_ZN3USB11dispatchPktEhhj+0x5c>
    4636:	60 e8       	ldi	r22, 0x80	; 128
    4638:	88 ec       	ldi	r24, 0xC8	; 200
    463a:	42 df       	rcall	.-380    	; 0x44c0 <_ZN8MAX3421eI4TPinI5PortbLh2EES0_IS1_Lh1EEE5regWrEhh.isra.3>
    463c:	88 ef       	ldi	r24, 0xF8	; 248
    463e:	29 df       	rcall	.-430    	; 0x4492 <_ZN8MAX3421eI4TPinI5PortbLh2EES0_IS1_Lh1EEE5regRdEh.isra.2>
    4640:	28 2f       	mov	r18, r24
    4642:	2f 70       	andi	r18, 0x0F	; 15
    4644:	24 30       	cpi	r18, 0x04	; 4
    4646:	19 f0       	breq	.+6      	; 0x464e <_ZN3USB11dispatchPktEhhj+0x8a>
    4648:	2e 30       	cpi	r18, 0x0E	; 14
    464a:	59 f0       	breq	.+22     	; 0x4662 <_ZN3USB11dispatchPktEhhj+0x9e>
    464c:	0e c0       	rjmp	.+28     	; 0x466a <_ZN3USB11dispatchPktEhhj+0xa6>
    464e:	ef ef       	ldi	r30, 0xFF	; 255
    4650:	8e 1a       	sub	r8, r30
    4652:	9e 0a       	sbc	r9, r30
    4654:	01 15       	cp	r16, r1
    4656:	11 05       	cpc	r17, r1
    4658:	b9 f2       	breq	.-82     	; 0x4608 <_ZN3USB11dispatchPktEhhj+0x44>
    465a:	80 16       	cp	r8, r16
    465c:	91 06       	cpc	r9, r17
    465e:	a1 f6       	brne	.-88     	; 0x4608 <_ZN3USB11dispatchPktEhhj+0x44>
    4660:	04 c0       	rjmp	.+8      	; 0x466a <_ZN3USB11dispatchPktEhhj+0xa6>
    4662:	b3 94       	inc	r11
    4664:	f3 e0       	ldi	r31, 0x03	; 3
    4666:	bf 12       	cpse	r11, r31
    4668:	cf cf       	rjmp	.-98     	; 0x4608 <_ZN3USB11dispatchPktEhhj+0x44>
    466a:	82 2f       	mov	r24, r18
    466c:	0f 90       	pop	r0
    466e:	df 91       	pop	r29
    4670:	cf 91       	pop	r28
    4672:	1f 91       	pop	r17
    4674:	0f 91       	pop	r16
    4676:	ff 90       	pop	r15
    4678:	ef 90       	pop	r14
    467a:	df 90       	pop	r13
    467c:	cf 90       	pop	r12
    467e:	bf 90       	pop	r11
    4680:	af 90       	pop	r10
    4682:	9f 90       	pop	r9
    4684:	8f 90       	pop	r8
    4686:	08 95       	ret

00004688 <_ZN3USB13AttemptConfigEhhhb>:
    4688:	9f 92       	push	r9
    468a:	af 92       	push	r10
    468c:	bf 92       	push	r11
    468e:	cf 92       	push	r12
    4690:	df 92       	push	r13
    4692:	ef 92       	push	r14
    4694:	ff 92       	push	r15
    4696:	0f 93       	push	r16
    4698:	1f 93       	push	r17
    469a:	cf 93       	push	r28
    469c:	df 93       	push	r29
    469e:	7c 01       	movw	r14, r24
    46a0:	b4 2e       	mov	r11, r20
    46a2:	12 2f       	mov	r17, r18
    46a4:	aa 24       	eor	r10, r10
    46a6:	a3 94       	inc	r10
    46a8:	dc 01       	movw	r26, r24
    46aa:	a6 0f       	add	r26, r22
    46ac:	b1 1d       	adc	r27, r1
    46ae:	a6 0f       	add	r26, r22
    46b0:	b1 1d       	adc	r27, r1
    46b2:	6d 01       	movw	r12, r26
    46b4:	86 e5       	ldi	r24, 0x56	; 86
    46b6:	c8 0e       	add	r12, r24
    46b8:	d1 1c       	adc	r13, r1
    46ba:	c4 2f       	mov	r28, r20
    46bc:	d0 e0       	ldi	r29, 0x00	; 0
    46be:	ab 96       	adiw	r28, 0x2b	; 43
    46c0:	cc 0f       	add	r28, r28
    46c2:	dd 1f       	adc	r29, r29
    46c4:	ce 0d       	add	r28, r14
    46c6:	df 1d       	adc	r29, r15
    46c8:	d6 01       	movw	r26, r12
    46ca:	8d 91       	ld	r24, X+
    46cc:	9c 91       	ld	r25, X
    46ce:	dc 01       	movw	r26, r24
    46d0:	ed 91       	ld	r30, X+
    46d2:	fc 91       	ld	r31, X
    46d4:	02 80       	ldd	r0, Z+2	; 0x02
    46d6:	f3 81       	ldd	r31, Z+3	; 0x03
    46d8:	e0 2d       	mov	r30, r0
    46da:	20 2f       	mov	r18, r16
    46dc:	41 2f       	mov	r20, r17
    46de:	6b 2d       	mov	r22, r11
    46e0:	09 95       	icall
    46e2:	80 3e       	cpi	r24, 0xE0	; 224
    46e4:	b9 f4       	brne	.+46     	; 0x4714 <_ZN3USB13AttemptConfigEhhhb+0x8c>
    46e6:	b1 10       	cpse	r11, r1
    46e8:	0a c0       	rjmp	.+20     	; 0x46fe <_ZN3USB13AttemptConfigEhhhb+0x76>
    46ea:	61 e0       	ldi	r22, 0x01	; 1
    46ec:	88 ee       	ldi	r24, 0xE8	; 232
    46ee:	e8 de       	rcall	.-560    	; 0x44c0 <_ZN8MAX3421eI4TPinI5PortbLh2EES0_IS1_Lh1EEE5regWrEhh.isra.3>
    46f0:	66 e6       	ldi	r22, 0x66	; 102
    46f2:	70 e0       	ldi	r23, 0x00	; 0
    46f4:	80 e0       	ldi	r24, 0x00	; 0
    46f6:	90 e0       	ldi	r25, 0x00	; 0
    46f8:	0e 94 e3 18 	call	0x31c6	; 0x31c6 <delay>
    46fc:	15 c0       	rjmp	.+42     	; 0x4728 <_ZN3USB13AttemptConfigEhhhb+0xa0>
    46fe:	88 81       	ld	r24, Y
    4700:	99 81       	ldd	r25, Y+1	; 0x01
    4702:	dc 01       	movw	r26, r24
    4704:	ed 91       	ld	r30, X+
    4706:	fc 91       	ld	r31, X
    4708:	02 84       	ldd	r0, Z+10	; 0x0a
    470a:	f3 85       	ldd	r31, Z+11	; 0x0b
    470c:	e0 2d       	mov	r30, r0
    470e:	61 2f       	mov	r22, r17
    4710:	09 95       	icall
    4712:	0a c0       	rjmp	.+20     	; 0x4728 <_ZN3USB13AttemptConfigEhhhb+0xa0>
    4714:	8d 30       	cpi	r24, 0x0D	; 13
    4716:	31 f4       	brne	.+12     	; 0x4724 <_ZN3USB13AttemptConfigEhhhb+0x9c>
    4718:	8f ef       	ldi	r24, 0xFF	; 255
    471a:	8a 0d       	add	r24, r10
    471c:	83 30       	cpi	r24, 0x03	; 3
    471e:	08 f0       	brcs	.+2      	; 0x4722 <_ZN3USB13AttemptConfigEhhhb+0x9a>
    4720:	41 c0       	rjmp	.+130    	; 0x47a4 <_ZN3USB13AttemptConfigEhhhb+0x11c>
    4722:	17 c0       	rjmp	.+46     	; 0x4752 <_ZN3USB13AttemptConfigEhhhb+0xca>
    4724:	81 11       	cpse	r24, r1
    4726:	41 c0       	rjmp	.+130    	; 0x47aa <_ZN3USB13AttemptConfigEhhhb+0x122>
    4728:	f6 01       	movw	r30, r12
    472a:	80 81       	ld	r24, Z
    472c:	91 81       	ldd	r25, Z+1	; 0x01
    472e:	dc 01       	movw	r26, r24
    4730:	ed 91       	ld	r30, X+
    4732:	fc 91       	ld	r31, X
    4734:	01 90       	ld	r0, Z+
    4736:	f0 81       	ld	r31, Z
    4738:	e0 2d       	mov	r30, r0
    473a:	20 2f       	mov	r18, r16
    473c:	41 2f       	mov	r20, r17
    473e:	6b 2d       	mov	r22, r11
    4740:	09 95       	icall
    4742:	98 2e       	mov	r9, r24
    4744:	bd e0       	ldi	r27, 0x0D	; 13
    4746:	8b 13       	cpse	r24, r27
    4748:	0c c0       	rjmp	.+24     	; 0x4762 <_ZN3USB13AttemptConfigEhhhb+0xda>
    474a:	8f ef       	ldi	r24, 0xFF	; 255
    474c:	8a 0d       	add	r24, r10
    474e:	83 30       	cpi	r24, 0x03	; 3
    4750:	50 f4       	brcc	.+20     	; 0x4766 <_ZN3USB13AttemptConfigEhhhb+0xde>
    4752:	64 e6       	ldi	r22, 0x64	; 100
    4754:	70 e0       	ldi	r23, 0x00	; 0
    4756:	80 e0       	ldi	r24, 0x00	; 0
    4758:	90 e0       	ldi	r25, 0x00	; 0
    475a:	0e 94 e3 18 	call	0x31c6	; 0x31c6 <delay>
    475e:	a3 94       	inc	r10
    4760:	b3 cf       	rjmp	.-154    	; 0x46c8 <_ZN3USB13AttemptConfigEhhhb+0x40>
    4762:	88 23       	and	r24, r24
    4764:	09 f1       	breq	.+66     	; 0x47a8 <_ZN3USB13AttemptConfigEhhhb+0x120>
    4766:	b1 10       	cpse	r11, r1
    4768:	0a c0       	rjmp	.+20     	; 0x477e <_ZN3USB13AttemptConfigEhhhb+0xf6>
    476a:	61 e0       	ldi	r22, 0x01	; 1
    476c:	88 ee       	ldi	r24, 0xE8	; 232
    476e:	a8 de       	rcall	.-688    	; 0x44c0 <_ZN8MAX3421eI4TPinI5PortbLh2EES0_IS1_Lh1EEE5regWrEhh.isra.3>
    4770:	66 e6       	ldi	r22, 0x66	; 102
    4772:	70 e0       	ldi	r23, 0x00	; 0
    4774:	80 e0       	ldi	r24, 0x00	; 0
    4776:	90 e0       	ldi	r25, 0x00	; 0
    4778:	0e 94 e3 18 	call	0x31c6	; 0x31c6 <delay>
    477c:	11 c0       	rjmp	.+34     	; 0x47a0 <_ZN3USB13AttemptConfigEhhhb+0x118>
    477e:	eb 2d       	mov	r30, r11
    4780:	f0 e0       	ldi	r31, 0x00	; 0
    4782:	bb 96       	adiw	r30, 0x2b	; 43
    4784:	ee 0f       	add	r30, r30
    4786:	ff 1f       	adc	r31, r31
    4788:	ee 0d       	add	r30, r14
    478a:	ff 1d       	adc	r31, r15
    478c:	80 81       	ld	r24, Z
    478e:	91 81       	ldd	r25, Z+1	; 0x01
    4790:	dc 01       	movw	r26, r24
    4792:	ed 91       	ld	r30, X+
    4794:	fc 91       	ld	r31, X
    4796:	02 84       	ldd	r0, Z+10	; 0x0a
    4798:	f3 85       	ldd	r31, Z+11	; 0x0b
    479a:	e0 2d       	mov	r30, r0
    479c:	61 2f       	mov	r22, r17
    479e:	09 95       	icall
    47a0:	89 2d       	mov	r24, r9
    47a2:	03 c0       	rjmp	.+6      	; 0x47aa <_ZN3USB13AttemptConfigEhhhb+0x122>
    47a4:	8d e0       	ldi	r24, 0x0D	; 13
    47a6:	01 c0       	rjmp	.+2      	; 0x47aa <_ZN3USB13AttemptConfigEhhhb+0x122>
    47a8:	80 e0       	ldi	r24, 0x00	; 0
    47aa:	df 91       	pop	r29
    47ac:	cf 91       	pop	r28
    47ae:	1f 91       	pop	r17
    47b0:	0f 91       	pop	r16
    47b2:	ff 90       	pop	r15
    47b4:	ef 90       	pop	r14
    47b6:	df 90       	pop	r13
    47b8:	cf 90       	pop	r12
    47ba:	bf 90       	pop	r11
    47bc:	af 90       	pop	r10
    47be:	9f 90       	pop	r9
    47c0:	08 95       	ret

000047c2 <_ZN8MAX3421eI4TPinI5PortbLh2EES0_IS1_Lh1EEE7bytesWrEhhPh.isra.4>:
    47c2:	0f 93       	push	r16
    47c4:	1f 93       	push	r17
    47c6:	cf 93       	push	r28
    47c8:	df 93       	push	r29
    47ca:	00 d0       	rcall	.+0      	; 0x47cc <_ZN8MAX3421eI4TPinI5PortbLh2EES0_IS1_Lh1EEE7bytesWrEhhPh.isra.4+0xa>
    47cc:	cd b7       	in	r28, 0x3d	; 61
    47ce:	de b7       	in	r29, 0x3e	; 62
    47d0:	8a 01       	movw	r16, r20
    47d2:	6a 83       	std	Y+2, r22	; 0x02
    47d4:	89 83       	std	Y+1, r24	; 0x01
    47d6:	5b de       	rcall	.-842    	; 0x448e <_ZN4TPinI5PortbLh2EE5ClearEv>
    47d8:	89 81       	ldd	r24, Y+1	; 0x01
    47da:	82 60       	ori	r24, 0x02	; 2
    47dc:	8e bd       	out	0x2e, r24	; 46
    47de:	f8 01       	movw	r30, r16
    47e0:	6a 81       	ldd	r22, Y+2	; 0x02
    47e2:	86 2f       	mov	r24, r22
    47e4:	88 23       	and	r24, r24
    47e6:	39 f0       	breq	.+14     	; 0x47f6 <_ZN8MAX3421eI4TPinI5PortbLh2EES0_IS1_Lh1EEE7bytesWrEhhPh.isra.4+0x34>
    47e8:	0d b4       	in	r0, 0x2d	; 45
    47ea:	07 fe       	sbrs	r0, 7
    47ec:	fd cf       	rjmp	.-6      	; 0x47e8 <_ZN8MAX3421eI4TPinI5PortbLh2EES0_IS1_Lh1EEE7bytesWrEhhPh.isra.4+0x26>
    47ee:	91 91       	ld	r25, Z+
    47f0:	9e bd       	out	0x2e, r25	; 46
    47f2:	81 50       	subi	r24, 0x01	; 1
    47f4:	f7 cf       	rjmp	.-18     	; 0x47e4 <_ZN8MAX3421eI4TPinI5PortbLh2EES0_IS1_Lh1EEE7bytesWrEhhPh.isra.4+0x22>
    47f6:	06 0f       	add	r16, r22
    47f8:	11 1d       	adc	r17, r1
    47fa:	0d b4       	in	r0, 0x2d	; 45
    47fc:	07 fe       	sbrs	r0, 7
    47fe:	fd cf       	rjmp	.-6      	; 0x47fa <_ZN8MAX3421eI4TPinI5PortbLh2EES0_IS1_Lh1EEE7bytesWrEhhPh.isra.4+0x38>
    4800:	0e 94 9b 06 	call	0xd36	; 0xd36 <_ZN4TPinI5PortbLh2EE3SetEv>
    4804:	c8 01       	movw	r24, r16
    4806:	0f 90       	pop	r0
    4808:	0f 90       	pop	r0
    480a:	df 91       	pop	r29
    480c:	cf 91       	pop	r28
    480e:	1f 91       	pop	r17
    4810:	0f 91       	pop	r16
    4812:	08 95       	ret

00004814 <_ZN3USB11OutTransferEP6EpInfojjPh>:
    4814:	2f 92       	push	r2
    4816:	3f 92       	push	r3
    4818:	4f 92       	push	r4
    481a:	5f 92       	push	r5
    481c:	6f 92       	push	r6
    481e:	7f 92       	push	r7
    4820:	8f 92       	push	r8
    4822:	9f 92       	push	r9
    4824:	af 92       	push	r10
    4826:	bf 92       	push	r11
    4828:	cf 92       	push	r12
    482a:	df 92       	push	r13
    482c:	ef 92       	push	r14
    482e:	ff 92       	push	r15
    4830:	0f 93       	push	r16
    4832:	1f 93       	push	r17
    4834:	cf 93       	push	r28
    4836:	df 93       	push	r29
    4838:	00 d0       	rcall	.+0      	; 0x483a <_ZN3USB11OutTransferEP6EpInfojjPh+0x26>
    483a:	00 d0       	rcall	.+0      	; 0x483c <_ZN3USB11OutTransferEP6EpInfojjPh+0x28>
    483c:	1f 92       	push	r1
    483e:	cd b7       	in	r28, 0x3d	; 61
    4840:	de b7       	in	r29, 0x3e	; 62
    4842:	7d 83       	std	Y+5, r23	; 0x05
    4844:	6c 83       	std	Y+4, r22	; 0x04
    4846:	5a 01       	movw	r10, r20
    4848:	69 01       	movw	r12, r18
    484a:	fb 01       	movw	r30, r22
    484c:	21 80       	ldd	r2, Z+1	; 0x01
    484e:	8f ef       	ldi	r24, 0xFF	; 255
    4850:	82 0d       	add	r24, r2
    4852:	80 34       	cpi	r24, 0x40	; 64
    4854:	08 f0       	brcs	.+2      	; 0x4858 <_ZN3USB11OutTransferEP6EpInfojjPh+0x44>
    4856:	67 c0       	rjmp	.+206    	; 0x4926 <_ZN3USB11OutTransferEP6EpInfojjPh+0x112>
    4858:	0e 94 a7 18 	call	0x314e	; 0x314e <millis>
    485c:	2b 01       	movw	r4, r22
    485e:	3c 01       	movw	r6, r24
    4860:	f0 e1       	ldi	r31, 0x10	; 16
    4862:	4f 0e       	add	r4, r31
    4864:	f7 e2       	ldi	r31, 0x27	; 39
    4866:	5f 1e       	adc	r5, r31
    4868:	61 1c       	adc	r6, r1
    486a:	71 1c       	adc	r7, r1
    486c:	ec 81       	ldd	r30, Y+4	; 0x04
    486e:	fd 81       	ldd	r31, Y+5	; 0x05
    4870:	82 81       	ldd	r24, Z+2	; 0x02
    4872:	80 ff       	sbrs	r24, 0
    4874:	02 c0       	rjmp	.+4      	; 0x487a <_ZN3USB11OutTransferEP6EpInfojjPh+0x66>
    4876:	60 e8       	ldi	r22, 0x80	; 128
    4878:	01 c0       	rjmp	.+2      	; 0x487c <_ZN3USB11OutTransferEP6EpInfojjPh+0x68>
    487a:	60 e4       	ldi	r22, 0x40	; 64
    487c:	88 ee       	ldi	r24, 0xE8	; 232
    487e:	20 de       	rcall	.-960    	; 0x44c0 <_ZN8MAX3421eI4TPinI5PortbLh2EES0_IS1_Lh1EEE5regWrEhh.isra.3>
    4880:	20 e0       	ldi	r18, 0x00	; 0
    4882:	31 2c       	mov	r3, r1
    4884:	c1 14       	cp	r12, r1
    4886:	d1 04       	cpc	r13, r1
    4888:	09 f4       	brne	.+2      	; 0x488c <_ZN3USB11OutTransferEP6EpInfojjPh+0x78>
    488a:	3e c0       	rjmp	.+124    	; 0x4908 <_ZN3USB11OutTransferEP6EpInfojjPh+0xf4>
    488c:	76 01       	movw	r14, r12
    488e:	2c 14       	cp	r2, r12
    4890:	3d 04       	cpc	r3, r13
    4892:	08 f4       	brcc	.+2      	; 0x4896 <_ZN3USB11OutTransferEP6EpInfojjPh+0x82>
    4894:	71 01       	movw	r14, r2
    4896:	ea 82       	std	Y+2, r14	; 0x02
    4898:	a8 01       	movw	r20, r16
    489a:	6e 2d       	mov	r22, r14
    489c:	80 e1       	ldi	r24, 0x10	; 16
    489e:	91 df       	rcall	.-222    	; 0x47c2 <_ZN8MAX3421eI4TPinI5PortbLh2EES0_IS1_Lh1EEE7bytesWrEhhPh.isra.4>
    48a0:	6e 2d       	mov	r22, r14
    48a2:	88 e3       	ldi	r24, 0x38	; 56
    48a4:	0d de       	rcall	.-998    	; 0x44c0 <_ZN8MAX3421eI4TPinI5PortbLh2EES0_IS1_Lh1EEE5regWrEhh.isra.3>
    48a6:	ec 81       	ldd	r30, Y+4	; 0x04
    48a8:	fd 81       	ldd	r31, Y+5	; 0x05
    48aa:	60 81       	ld	r22, Z
    48ac:	60 62       	ori	r22, 0x20	; 32
    48ae:	80 ef       	ldi	r24, 0xF0	; 240
    48b0:	07 de       	rcall	.-1010   	; 0x44c0 <_ZN8MAX3421eI4TPinI5PortbLh2EES0_IS1_Lh1EEE5regWrEhh.isra.3>
    48b2:	88 ec       	ldi	r24, 0xC8	; 200
    48b4:	ee dd       	rcall	.-1060   	; 0x4492 <_ZN8MAX3421eI4TPinI5PortbLh2EES0_IS1_Lh1EEE5regRdEh.isra.2>
    48b6:	87 ff       	sbrs	r24, 7
    48b8:	fc cf       	rjmp	.-8      	; 0x48b2 <_ZN3USB11OutTransferEP6EpInfojjPh+0x9e>
    48ba:	60 e8       	ldi	r22, 0x80	; 128
    48bc:	88 ec       	ldi	r24, 0xC8	; 200
    48be:	00 de       	rcall	.-1024   	; 0x44c0 <_ZN8MAX3421eI4TPinI5PortbLh2EES0_IS1_Lh1EEE5regWrEhh.isra.3>
    48c0:	88 ef       	ldi	r24, 0xF8	; 248
    48c2:	e7 dd       	rcall	.-1074   	; 0x4492 <_ZN8MAX3421eI4TPinI5PortbLh2EES0_IS1_Lh1EEE5regRdEh.isra.2>
    48c4:	28 2f       	mov	r18, r24
    48c6:	2f 70       	andi	r18, 0x0F	; 15
    48c8:	81 2c       	mov	r8, r1
    48ca:	91 2c       	mov	r9, r1
    48cc:	19 82       	std	Y+1, r1	; 0x01
    48ce:	22 23       	and	r18, r18
    48d0:	09 f4       	brne	.+2      	; 0x48d4 <_ZN3USB11OutTransferEP6EpInfojjPh+0xc0>
    48d2:	61 c0       	rjmp	.+194    	; 0x4996 <_ZN3USB11OutTransferEP6EpInfojjPh+0x182>
    48d4:	2b 83       	std	Y+3, r18	; 0x03
    48d6:	0e 94 a7 18 	call	0x314e	; 0x314e <millis>
    48da:	2b 81       	ldd	r18, Y+3	; 0x03
    48dc:	64 15       	cp	r22, r4
    48de:	75 05       	cpc	r23, r5
    48e0:	86 05       	cpc	r24, r6
    48e2:	97 05       	cpc	r25, r7
    48e4:	08 f0       	brcs	.+2      	; 0x48e8 <_ZN3USB11OutTransferEP6EpInfojjPh+0xd4>
    48e6:	57 c0       	rjmp	.+174    	; 0x4996 <_ZN3USB11OutTransferEP6EpInfojjPh+0x182>
    48e8:	26 30       	cpi	r18, 0x06	; 6
    48ea:	f9 f0       	breq	.+62     	; 0x492a <_ZN3USB11OutTransferEP6EpInfojjPh+0x116>
    48ec:	2e 30       	cpi	r18, 0x0E	; 14
    48ee:	09 f4       	brne	.+2      	; 0x48f2 <_ZN3USB11OutTransferEP6EpInfojjPh+0xde>
    48f0:	4c c0       	rjmp	.+152    	; 0x498a <_ZN3USB11OutTransferEP6EpInfojjPh+0x176>
    48f2:	24 30       	cpi	r18, 0x04	; 4
    48f4:	49 f4       	brne	.+18     	; 0x4908 <_ZN3USB11OutTransferEP6EpInfojjPh+0xf4>
    48f6:	ff ef       	ldi	r31, 0xFF	; 255
    48f8:	8f 1a       	sub	r8, r31
    48fa:	9f 0a       	sbc	r9, r31
    48fc:	a1 14       	cp	r10, r1
    48fe:	b1 04       	cpc	r11, r1
    4900:	41 f1       	breq	.+80     	; 0x4952 <_ZN3USB11OutTransferEP6EpInfojjPh+0x13e>
    4902:	8a 14       	cp	r8, r10
    4904:	9b 04       	cpc	r9, r11
    4906:	29 f5       	brne	.+74     	; 0x4952 <_ZN3USB11OutTransferEP6EpInfojjPh+0x13e>
    4908:	88 ef       	ldi	r24, 0xF8	; 248
    490a:	2b 83       	std	Y+3, r18	; 0x03
    490c:	c2 dd       	rcall	.-1148   	; 0x4492 <_ZN8MAX3421eI4TPinI5PortbLh2EES0_IS1_Lh1EEE5regRdEh.isra.2>
    490e:	85 fb       	bst	r24, 5
    4910:	88 27       	eor	r24, r24
    4912:	80 f9       	bld	r24, 0
    4914:	ec 81       	ldd	r30, Y+4	; 0x04
    4916:	fd 81       	ldd	r31, Y+5	; 0x05
    4918:	92 81       	ldd	r25, Z+2	; 0x02
    491a:	80 fb       	bst	r24, 0
    491c:	90 f9       	bld	r25, 0
    491e:	92 83       	std	Z+2, r25	; 0x02
    4920:	2b 81       	ldd	r18, Y+3	; 0x03
    4922:	82 2f       	mov	r24, r18
    4924:	3d c0       	rjmp	.+122    	; 0x49a0 <_ZN3USB11OutTransferEP6EpInfojjPh+0x18c>
    4926:	8a ed       	ldi	r24, 0xDA	; 218
    4928:	3b c0       	rjmp	.+118    	; 0x49a0 <_ZN3USB11OutTransferEP6EpInfojjPh+0x18c>
    492a:	88 ef       	ldi	r24, 0xF8	; 248
    492c:	b2 dd       	rcall	.-1180   	; 0x4492 <_ZN8MAX3421eI4TPinI5PortbLh2EES0_IS1_Lh1EEE5regRdEh.isra.2>
    492e:	85 fb       	bst	r24, 5
    4930:	88 27       	eor	r24, r24
    4932:	80 f9       	bld	r24, 0
    4934:	91 e0       	ldi	r25, 0x01	; 1
    4936:	89 27       	eor	r24, r25
    4938:	ec 81       	ldd	r30, Y+4	; 0x04
    493a:	fd 81       	ldd	r31, Y+5	; 0x05
    493c:	92 81       	ldd	r25, Z+2	; 0x02
    493e:	80 fb       	bst	r24, 0
    4940:	90 f9       	bld	r25, 0
    4942:	92 83       	std	Z+2, r25	; 0x02
    4944:	90 ff       	sbrs	r25, 0
    4946:	02 c0       	rjmp	.+4      	; 0x494c <_ZN3USB11OutTransferEP6EpInfojjPh+0x138>
    4948:	60 e8       	ldi	r22, 0x80	; 128
    494a:	01 c0       	rjmp	.+2      	; 0x494e <_ZN3USB11OutTransferEP6EpInfojjPh+0x13a>
    494c:	60 e4       	ldi	r22, 0x40	; 64
    494e:	88 ee       	ldi	r24, 0xE8	; 232
    4950:	b7 dd       	rcall	.-1170   	; 0x44c0 <_ZN8MAX3421eI4TPinI5PortbLh2EES0_IS1_Lh1EEE5regWrEhh.isra.3>
    4952:	60 e0       	ldi	r22, 0x00	; 0
    4954:	88 e3       	ldi	r24, 0x38	; 56
    4956:	b4 dd       	rcall	.-1176   	; 0x44c0 <_ZN8MAX3421eI4TPinI5PortbLh2EES0_IS1_Lh1EEE5regWrEhh.isra.3>
    4958:	f8 01       	movw	r30, r16
    495a:	60 81       	ld	r22, Z
    495c:	80 e1       	ldi	r24, 0x10	; 16
    495e:	b0 dd       	rcall	.-1184   	; 0x44c0 <_ZN8MAX3421eI4TPinI5PortbLh2EES0_IS1_Lh1EEE5regWrEhh.isra.3>
    4960:	6a 81       	ldd	r22, Y+2	; 0x02
    4962:	88 e3       	ldi	r24, 0x38	; 56
    4964:	ad dd       	rcall	.-1190   	; 0x44c0 <_ZN8MAX3421eI4TPinI5PortbLh2EES0_IS1_Lh1EEE5regWrEhh.isra.3>
    4966:	ec 81       	ldd	r30, Y+4	; 0x04
    4968:	fd 81       	ldd	r31, Y+5	; 0x05
    496a:	60 81       	ld	r22, Z
    496c:	60 62       	ori	r22, 0x20	; 32
    496e:	80 ef       	ldi	r24, 0xF0	; 240
    4970:	a7 dd       	rcall	.-1202   	; 0x44c0 <_ZN8MAX3421eI4TPinI5PortbLh2EES0_IS1_Lh1EEE5regWrEhh.isra.3>
    4972:	88 ec       	ldi	r24, 0xC8	; 200
    4974:	8e dd       	rcall	.-1252   	; 0x4492 <_ZN8MAX3421eI4TPinI5PortbLh2EES0_IS1_Lh1EEE5regRdEh.isra.2>
    4976:	87 ff       	sbrs	r24, 7
    4978:	fc cf       	rjmp	.-8      	; 0x4972 <_ZN3USB11OutTransferEP6EpInfojjPh+0x15e>
    497a:	60 e8       	ldi	r22, 0x80	; 128
    497c:	88 ec       	ldi	r24, 0xC8	; 200
    497e:	a0 dd       	rcall	.-1216   	; 0x44c0 <_ZN8MAX3421eI4TPinI5PortbLh2EES0_IS1_Lh1EEE5regWrEhh.isra.3>
    4980:	88 ef       	ldi	r24, 0xF8	; 248
    4982:	87 dd       	rcall	.-1266   	; 0x4492 <_ZN8MAX3421eI4TPinI5PortbLh2EES0_IS1_Lh1EEE5regRdEh.isra.2>
    4984:	28 2f       	mov	r18, r24
    4986:	2f 70       	andi	r18, 0x0F	; 15
    4988:	a2 cf       	rjmp	.-188    	; 0x48ce <_ZN3USB11OutTransferEP6EpInfojjPh+0xba>
    498a:	89 81       	ldd	r24, Y+1	; 0x01
    498c:	8f 5f       	subi	r24, 0xFF	; 255
    498e:	89 83       	std	Y+1, r24	; 0x01
    4990:	83 30       	cpi	r24, 0x03	; 3
    4992:	f9 f6       	brne	.-66     	; 0x4952 <_ZN3USB11OutTransferEP6EpInfojjPh+0x13e>
    4994:	b9 cf       	rjmp	.-142    	; 0x4908 <_ZN3USB11OutTransferEP6EpInfojjPh+0xf4>
    4996:	ce 18       	sub	r12, r14
    4998:	df 08       	sbc	r13, r15
    499a:	0e 0d       	add	r16, r14
    499c:	1f 1d       	adc	r17, r15
    499e:	72 cf       	rjmp	.-284    	; 0x4884 <_ZN3USB11OutTransferEP6EpInfojjPh+0x70>
    49a0:	0f 90       	pop	r0
    49a2:	0f 90       	pop	r0
    49a4:	0f 90       	pop	r0
    49a6:	0f 90       	pop	r0
    49a8:	0f 90       	pop	r0
    49aa:	df 91       	pop	r29
    49ac:	cf 91       	pop	r28
    49ae:	1f 91       	pop	r17
    49b0:	0f 91       	pop	r16
    49b2:	ff 90       	pop	r15
    49b4:	ef 90       	pop	r14
    49b6:	df 90       	pop	r13
    49b8:	cf 90       	pop	r12
    49ba:	bf 90       	pop	r11
    49bc:	af 90       	pop	r10
    49be:	9f 90       	pop	r9
    49c0:	8f 90       	pop	r8
    49c2:	7f 90       	pop	r7
    49c4:	6f 90       	pop	r6
    49c6:	5f 90       	pop	r5
    49c8:	4f 90       	pop	r4
    49ca:	3f 90       	pop	r3
    49cc:	2f 90       	pop	r2
    49ce:	08 95       	ret

000049d0 <_ZN3USB11outTransferEhhjPh>:
    49d0:	af 92       	push	r10
    49d2:	bf 92       	push	r11
    49d4:	cf 92       	push	r12
    49d6:	df 92       	push	r13
    49d8:	ef 92       	push	r14
    49da:	ff 92       	push	r15
    49dc:	0f 93       	push	r16
    49de:	1f 93       	push	r17
    49e0:	cf 93       	push	r28
    49e2:	df 93       	push	r29
    49e4:	00 d0       	rcall	.+0      	; 0x49e6 <_ZN3USB11outTransferEhhjPh+0x16>
    49e6:	00 d0       	rcall	.+0      	; 0x49e8 <_ZN3USB11outTransferEhhjPh+0x18>
    49e8:	cd b7       	in	r28, 0x3d	; 61
    49ea:	de b7       	in	r29, 0x3e	; 62
    49ec:	7c 01       	movw	r14, r24
    49ee:	69 01       	movw	r12, r18
    49f0:	58 01       	movw	r10, r16
    49f2:	1c 82       	std	Y+4, r1	; 0x04
    49f4:	1b 82       	std	Y+3, r1	; 0x03
    49f6:	1a 82       	std	Y+2, r1	; 0x02
    49f8:	19 82       	std	Y+1, r1	; 0x01
    49fa:	8e 01       	movw	r16, r28
    49fc:	0f 5f       	subi	r16, 0xFF	; 255
    49fe:	1f 4f       	sbci	r17, 0xFF	; 255
    4a00:	9e 01       	movw	r18, r28
    4a02:	2d 5f       	subi	r18, 0xFD	; 253
    4a04:	3f 4f       	sbci	r19, 0xFF	; 255
    4a06:	75 dd       	rcall	.-1302   	; 0x44f2 <_ZN3USB10SetAddressEhhPP6EpInfoRj>
    4a08:	81 11       	cpse	r24, r1
    4a0a:	08 c0       	rjmp	.+16     	; 0x4a1c <_ZN3USB11outTransferEhhjPh+0x4c>
    4a0c:	49 81       	ldd	r20, Y+1	; 0x01
    4a0e:	5a 81       	ldd	r21, Y+2	; 0x02
    4a10:	6b 81       	ldd	r22, Y+3	; 0x03
    4a12:	7c 81       	ldd	r23, Y+4	; 0x04
    4a14:	85 01       	movw	r16, r10
    4a16:	96 01       	movw	r18, r12
    4a18:	c7 01       	movw	r24, r14
    4a1a:	fc de       	rcall	.-520    	; 0x4814 <_ZN3USB11OutTransferEP6EpInfojjPh>
    4a1c:	0f 90       	pop	r0
    4a1e:	0f 90       	pop	r0
    4a20:	0f 90       	pop	r0
    4a22:	0f 90       	pop	r0
    4a24:	df 91       	pop	r29
    4a26:	cf 91       	pop	r28
    4a28:	1f 91       	pop	r17
    4a2a:	0f 91       	pop	r16
    4a2c:	ff 90       	pop	r15
    4a2e:	ef 90       	pop	r14
    4a30:	df 90       	pop	r13
    4a32:	cf 90       	pop	r12
    4a34:	bf 90       	pop	r11
    4a36:	af 90       	pop	r10
    4a38:	08 95       	ret

00004a3a <_ZN3USB10InTransferEP6EpInfojPjPh>:
    4a3a:	2f 92       	push	r2
    4a3c:	3f 92       	push	r3
    4a3e:	4f 92       	push	r4
    4a40:	5f 92       	push	r5
    4a42:	6f 92       	push	r6
    4a44:	7f 92       	push	r7
    4a46:	8f 92       	push	r8
    4a48:	9f 92       	push	r9
    4a4a:	af 92       	push	r10
    4a4c:	bf 92       	push	r11
    4a4e:	cf 92       	push	r12
    4a50:	df 92       	push	r13
    4a52:	ef 92       	push	r14
    4a54:	ff 92       	push	r15
    4a56:	0f 93       	push	r16
    4a58:	1f 93       	push	r17
    4a5a:	cf 93       	push	r28
    4a5c:	df 93       	push	r29
    4a5e:	00 d0       	rcall	.+0      	; 0x4a60 <_ZN3USB10InTransferEP6EpInfojPjPh+0x26>
    4a60:	00 d0       	rcall	.+0      	; 0x4a62 <_ZN3USB10InTransferEP6EpInfojPjPh+0x28>
    4a62:	cd b7       	in	r28, 0x3d	; 61
    4a64:	de b7       	in	r29, 0x3e	; 62
    4a66:	5c 01       	movw	r10, r24
    4a68:	7c 83       	std	Y+4, r23	; 0x04
    4a6a:	6b 83       	std	Y+3, r22	; 0x03
    4a6c:	4a 01       	movw	r8, r20
    4a6e:	79 01       	movw	r14, r18
    4a70:	f9 01       	movw	r30, r18
    4a72:	c0 80       	ld	r12, Z
    4a74:	d1 80       	ldd	r13, Z+1	; 0x01
    4a76:	fb 01       	movw	r30, r22
    4a78:	41 80       	ldd	r4, Z+1	; 0x01
    4a7a:	f9 01       	movw	r30, r18
    4a7c:	11 82       	std	Z+1, r1	; 0x01
    4a7e:	10 82       	st	Z, r1
    4a80:	fb 01       	movw	r30, r22
    4a82:	82 81       	ldd	r24, Z+2	; 0x02
    4a84:	81 ff       	sbrs	r24, 1
    4a86:	02 c0       	rjmp	.+4      	; 0x4a8c <_ZN3USB10InTransferEP6EpInfojPjPh+0x52>
    4a88:	60 e2       	ldi	r22, 0x20	; 32
    4a8a:	01 c0       	rjmp	.+2      	; 0x4a8e <_ZN3USB10InTransferEP6EpInfojPjPh+0x54>
    4a8c:	60 e1       	ldi	r22, 0x10	; 16
    4a8e:	88 ee       	ldi	r24, 0xE8	; 232
    4a90:	17 dd       	rcall	.-1490   	; 0x44c0 <_ZN8MAX3421eI4TPinI5PortbLh2EES0_IS1_Lh1EEE5regWrEhh.isra.3>
    4a92:	3c 2c       	mov	r3, r12
    4a94:	94 01       	movw	r18, r8
    4a96:	eb 81       	ldd	r30, Y+3	; 0x03
    4a98:	fc 81       	ldd	r31, Y+4	; 0x04
    4a9a:	40 81       	ld	r20, Z
    4a9c:	60 e0       	ldi	r22, 0x00	; 0
    4a9e:	c5 01       	movw	r24, r10
    4aa0:	91 dd       	rcall	.-1246   	; 0x45c4 <_ZN3USB11dispatchPktEhhj>
    4aa2:	58 2e       	mov	r5, r24
    4aa4:	f6 e0       	ldi	r31, 0x06	; 6
    4aa6:	8f 13       	cpse	r24, r31
    4aa8:	15 c0       	rjmp	.+42     	; 0x4ad4 <_ZN3USB10InTransferEP6EpInfojPjPh+0x9a>
    4aaa:	88 ef       	ldi	r24, 0xF8	; 248
    4aac:	f2 dc       	rcall	.-1564   	; 0x4492 <_ZN8MAX3421eI4TPinI5PortbLh2EES0_IS1_Lh1EEE5regRdEh.isra.2>
    4aae:	85 fb       	bst	r24, 5
    4ab0:	88 27       	eor	r24, r24
    4ab2:	80 f9       	bld	r24, 0
    4ab4:	91 e0       	ldi	r25, 0x01	; 1
    4ab6:	89 27       	eor	r24, r25
    4ab8:	eb 81       	ldd	r30, Y+3	; 0x03
    4aba:	fc 81       	ldd	r31, Y+4	; 0x04
    4abc:	92 81       	ldd	r25, Z+2	; 0x02
    4abe:	80 fb       	bst	r24, 0
    4ac0:	91 f9       	bld	r25, 1
    4ac2:	92 83       	std	Z+2, r25	; 0x02
    4ac4:	91 ff       	sbrs	r25, 1
    4ac6:	02 c0       	rjmp	.+4      	; 0x4acc <_ZN3USB10InTransferEP6EpInfojPjPh+0x92>
    4ac8:	60 e2       	ldi	r22, 0x20	; 32
    4aca:	01 c0       	rjmp	.+2      	; 0x4ace <_ZN3USB10InTransferEP6EpInfojPjPh+0x94>
    4acc:	60 e1       	ldi	r22, 0x10	; 16
    4ace:	88 ee       	ldi	r24, 0xE8	; 232
    4ad0:	f7 dc       	rcall	.-1554   	; 0x44c0 <_ZN8MAX3421eI4TPinI5PortbLh2EES0_IS1_Lh1EEE5regWrEhh.isra.3>
    4ad2:	e0 cf       	rjmp	.-64     	; 0x4a94 <_ZN3USB10InTransferEP6EpInfojPjPh+0x5a>
    4ad4:	81 11       	cpse	r24, r1
    4ad6:	55 c0       	rjmp	.+170    	; 0x4b82 <_ZN3USB10InTransferEP6EpInfojPjPh+0x148>
    4ad8:	88 ec       	ldi	r24, 0xC8	; 200
    4ada:	db dc       	rcall	.-1610   	; 0x4492 <_ZN8MAX3421eI4TPinI5PortbLh2EES0_IS1_Lh1EEE5regRdEh.isra.2>
    4adc:	82 ff       	sbrs	r24, 2
    4ade:	4f c0       	rjmp	.+158    	; 0x4b7e <_ZN3USB10InTransferEP6EpInfojPjPh+0x144>
    4ae0:	80 e3       	ldi	r24, 0x30	; 48
    4ae2:	d7 dc       	rcall	.-1618   	; 0x4492 <_ZN8MAX3421eI4TPinI5PortbLh2EES0_IS1_Lh1EEE5regRdEh.isra.2>
    4ae4:	28 2e       	mov	r2, r24
    4ae6:	28 2f       	mov	r18, r24
    4ae8:	30 e0       	ldi	r19, 0x00	; 0
    4aea:	c2 16       	cp	r12, r18
    4aec:	d3 06       	cpc	r13, r19
    4aee:	08 f4       	brcc	.+2      	; 0x4af2 <_ZN3USB10InTransferEP6EpInfojPjPh+0xb8>
    4af0:	23 2c       	mov	r2, r3
    4af2:	f7 01       	movw	r30, r14
    4af4:	20 81       	ld	r18, Z
    4af6:	31 81       	ldd	r19, Z+1	; 0x01
    4af8:	62 2c       	mov	r6, r2
    4afa:	71 2c       	mov	r7, r1
    4afc:	a6 01       	movw	r20, r12
    4afe:	42 1b       	sub	r20, r18
    4b00:	53 0b       	sbc	r21, r19
    4b02:	57 ff       	sbrs	r21, 7
    4b04:	02 c0       	rjmp	.+4      	; 0x4b0a <_ZN3USB10InTransferEP6EpInfojPjPh+0xd0>
    4b06:	40 e0       	ldi	r20, 0x00	; 0
    4b08:	50 e0       	ldi	r21, 0x00	; 0
    4b0a:	93 01       	movw	r18, r6
    4b0c:	46 15       	cp	r20, r6
    4b0e:	57 05       	cpc	r21, r7
    4b10:	0c f4       	brge	.+2      	; 0x4b14 <_ZN3USB10InTransferEP6EpInfojPjPh+0xda>
    4b12:	9a 01       	movw	r18, r20
    4b14:	29 83       	std	Y+1, r18	; 0x01
    4b16:	3a 83       	std	Y+2, r19	; 0x02
    4b18:	ba dc       	rcall	.-1676   	; 0x448e <_ZN4TPinI5PortbLh2EE5ClearEv>
    4b1a:	f8 e0       	ldi	r31, 0x08	; 8
    4b1c:	fe bd       	out	0x2e, r31	; 46
    4b1e:	3a 81       	ldd	r19, Y+2	; 0x02
    4b20:	29 81       	ldd	r18, Y+1	; 0x01
    4b22:	0d b4       	in	r0, 0x2d	; 45
    4b24:	07 fe       	sbrs	r0, 7
    4b26:	fd cf       	rjmp	.-6      	; 0x4b22 <_ZN3USB10InTransferEP6EpInfojPjPh+0xe8>
    4b28:	f8 01       	movw	r30, r16
    4b2a:	82 2f       	mov	r24, r18
    4b2c:	80 0f       	add	r24, r16
    4b2e:	8e 17       	cp	r24, r30
    4b30:	39 f0       	breq	.+14     	; 0x4b40 <_ZN3USB10InTransferEP6EpInfojPjPh+0x106>
    4b32:	1e bc       	out	0x2e, r1	; 46
    4b34:	0d b4       	in	r0, 0x2d	; 45
    4b36:	07 fe       	sbrs	r0, 7
    4b38:	fd cf       	rjmp	.-6      	; 0x4b34 <_ZN3USB10InTransferEP6EpInfojPjPh+0xfa>
    4b3a:	4e b5       	in	r20, 0x2e	; 46
    4b3c:	41 93       	st	Z+, r20
    4b3e:	f7 cf       	rjmp	.-18     	; 0x4b2e <_ZN3USB10InTransferEP6EpInfojPjPh+0xf4>
    4b40:	02 0f       	add	r16, r18
    4b42:	13 1f       	adc	r17, r19
    4b44:	0e 94 9b 06 	call	0xd36	; 0xd36 <_ZN4TPinI5PortbLh2EE3SetEv>
    4b48:	64 e0       	ldi	r22, 0x04	; 4
    4b4a:	88 ec       	ldi	r24, 0xC8	; 200
    4b4c:	b9 dc       	rcall	.-1678   	; 0x44c0 <_ZN8MAX3421eI4TPinI5PortbLh2EES0_IS1_Lh1EEE5regWrEhh.isra.3>
    4b4e:	f7 01       	movw	r30, r14
    4b50:	20 81       	ld	r18, Z
    4b52:	31 81       	ldd	r19, Z+1	; 0x01
    4b54:	26 0d       	add	r18, r6
    4b56:	37 1d       	adc	r19, r7
    4b58:	31 83       	std	Z+1, r19	; 0x01
    4b5a:	20 83       	st	Z, r18
    4b5c:	24 14       	cp	r2, r4
    4b5e:	20 f0       	brcs	.+8      	; 0x4b68 <_ZN3USB10InTransferEP6EpInfojPjPh+0x12e>
    4b60:	2c 15       	cp	r18, r12
    4b62:	3d 05       	cpc	r19, r13
    4b64:	08 f4       	brcc	.+2      	; 0x4b68 <_ZN3USB10InTransferEP6EpInfojPjPh+0x12e>
    4b66:	96 cf       	rjmp	.-212    	; 0x4a94 <_ZN3USB10InTransferEP6EpInfojPjPh+0x5a>
    4b68:	88 ef       	ldi	r24, 0xF8	; 248
    4b6a:	93 dc       	rcall	.-1754   	; 0x4492 <_ZN8MAX3421eI4TPinI5PortbLh2EES0_IS1_Lh1EEE5regRdEh.isra.2>
    4b6c:	82 95       	swap	r24
    4b6e:	81 70       	andi	r24, 0x01	; 1
    4b70:	eb 81       	ldd	r30, Y+3	; 0x03
    4b72:	fc 81       	ldd	r31, Y+4	; 0x04
    4b74:	92 81       	ldd	r25, Z+2	; 0x02
    4b76:	80 fb       	bst	r24, 0
    4b78:	91 f9       	bld	r25, 1
    4b7a:	92 83       	std	Z+2, r25	; 0x02
    4b7c:	02 c0       	rjmp	.+4      	; 0x4b82 <_ZN3USB10InTransferEP6EpInfojPjPh+0x148>
    4b7e:	30 ef       	ldi	r19, 0xF0	; 240
    4b80:	53 2e       	mov	r5, r19
    4b82:	85 2d       	mov	r24, r5
    4b84:	0f 90       	pop	r0
    4b86:	0f 90       	pop	r0
    4b88:	0f 90       	pop	r0
    4b8a:	0f 90       	pop	r0
    4b8c:	df 91       	pop	r29
    4b8e:	cf 91       	pop	r28
    4b90:	1f 91       	pop	r17
    4b92:	0f 91       	pop	r16
    4b94:	ff 90       	pop	r15
    4b96:	ef 90       	pop	r14
    4b98:	df 90       	pop	r13
    4b9a:	cf 90       	pop	r12
    4b9c:	bf 90       	pop	r11
    4b9e:	af 90       	pop	r10
    4ba0:	9f 90       	pop	r9
    4ba2:	8f 90       	pop	r8
    4ba4:	7f 90       	pop	r7
    4ba6:	6f 90       	pop	r6
    4ba8:	5f 90       	pop	r5
    4baa:	4f 90       	pop	r4
    4bac:	3f 90       	pop	r3
    4bae:	2f 90       	pop	r2
    4bb0:	08 95       	ret

00004bb2 <_ZN3USB7ctrlReqEhhhhhhjjjPhP13USBReadParser>:
    4bb2:	2f 92       	push	r2
    4bb4:	3f 92       	push	r3
    4bb6:	4f 92       	push	r4
    4bb8:	5f 92       	push	r5
    4bba:	6f 92       	push	r6
    4bbc:	7f 92       	push	r7
    4bbe:	8f 92       	push	r8
    4bc0:	9f 92       	push	r9
    4bc2:	af 92       	push	r10
    4bc4:	bf 92       	push	r11
    4bc6:	cf 92       	push	r12
    4bc8:	df 92       	push	r13
    4bca:	ef 92       	push	r14
    4bcc:	ff 92       	push	r15
    4bce:	0f 93       	push	r16
    4bd0:	1f 93       	push	r17
    4bd2:	cf 93       	push	r28
    4bd4:	df 93       	push	r29
    4bd6:	cd b7       	in	r28, 0x3d	; 61
    4bd8:	de b7       	in	r29, 0x3e	; 62
    4bda:	62 97       	sbiw	r28, 0x12	; 18
    4bdc:	0f b6       	in	r0, 0x3f	; 63
    4bde:	f8 94       	cli
    4be0:	de bf       	out	0x3e, r29	; 62
    4be2:	0f be       	out	0x3f, r0	; 63
    4be4:	cd bf       	out	0x3d, r28	; 61
    4be6:	3c 01       	movw	r6, r24
    4be8:	54 2e       	mov	r5, r20
    4bea:	d2 2e       	mov	r13, r18
    4bec:	40 2e       	mov	r4, r16
    4bee:	5e 2d       	mov	r21, r14
    4bf0:	2f a0       	ldd	r2, Y+39	; 0x27
    4bf2:	38 a4       	ldd	r3, Y+40	; 0x28
    4bf4:	e9 a4       	ldd	r14, Y+41	; 0x29
    4bf6:	fa a4       	ldd	r15, Y+42	; 0x2a
    4bf8:	18 8a       	std	Y+16, r1	; 0x10
    4bfa:	1f 86       	std	Y+15, r1	; 0x0f
    4bfc:	1e 86       	std	Y+14, r1	; 0x0e
    4bfe:	1d 86       	std	Y+13, r1	; 0x0d
    4c00:	8e 01       	movw	r16, r28
    4c02:	03 5f       	subi	r16, 0xF3	; 243
    4c04:	1f 4f       	sbci	r17, 0xFF	; 255
    4c06:	9e 01       	movw	r18, r28
    4c08:	21 5f       	subi	r18, 0xF1	; 241
    4c0a:	3f 4f       	sbci	r19, 0xFF	; 255
    4c0c:	59 8b       	std	Y+17, r21	; 0x11
    4c0e:	71 dc       	rcall	.-1822   	; 0x44f2 <_ZN3USB10SetAddressEhhPP6EpInfoRj>
    4c10:	59 89       	ldd	r21, Y+17	; 0x11
    4c12:	81 11       	cpse	r24, r1
    4c14:	8d c0       	rjmp	.+282    	; 0x4d30 <_ZN3USB7ctrlReqEhhhhhhjjjPhP13USBReadParser+0x17e>
    4c16:	d9 82       	std	Y+1, r13	; 0x01
    4c18:	4a 82       	std	Y+2, r4	; 0x02
    4c1a:	5b 83       	std	Y+3, r21	; 0x03
    4c1c:	cc 82       	std	Y+4, r12	; 0x04
    4c1e:	be 82       	std	Y+6, r11	; 0x06
    4c20:	ad 82       	std	Y+5, r10	; 0x05
    4c22:	98 86       	std	Y+8, r9	; 0x08
    4c24:	8f 82       	std	Y+7, r8	; 0x07
    4c26:	ae 01       	movw	r20, r28
    4c28:	4f 5f       	subi	r20, 0xFF	; 255
    4c2a:	5f 4f       	sbci	r21, 0xFF	; 255
    4c2c:	68 e0       	ldi	r22, 0x08	; 8
    4c2e:	80 e2       	ldi	r24, 0x20	; 32
    4c30:	c8 dd       	rcall	.-1136   	; 0x47c2 <_ZN8MAX3421eI4TPinI5PortbLh2EES0_IS1_Lh1EEE7bytesWrEhhPh.isra.4>
    4c32:	2d 85       	ldd	r18, Y+13	; 0x0d
    4c34:	3e 85       	ldd	r19, Y+14	; 0x0e
    4c36:	45 2d       	mov	r20, r5
    4c38:	60 e1       	ldi	r22, 0x10	; 16
    4c3a:	c3 01       	movw	r24, r6
    4c3c:	c3 dc       	rcall	.-1658   	; 0x45c4 <_ZN3USB11dispatchPktEhhj>
    4c3e:	18 2f       	mov	r17, r24
    4c40:	81 11       	cpse	r24, r1
    4c42:	75 c0       	rjmp	.+234    	; 0x4d2e <_ZN3USB7ctrlReqEhhhhhhjjjPhP13USBReadParser+0x17c>
    4c44:	bd 2c       	mov	r11, r13
    4c46:	bb 1c       	adc	r11, r11
    4c48:	bb 24       	eor	r11, r11
    4c4a:	bb 1c       	adc	r11, r11
    4c4c:	e1 14       	cp	r14, r1
    4c4e:	f1 04       	cpc	r15, r1
    4c50:	09 f4       	brne	.+2      	; 0x4c54 <_ZN3USB7ctrlReqEhhhhhhjjjPhP13USBReadParser+0xa2>
    4c52:	62 c0       	rjmp	.+196    	; 0x4d18 <_ZN3USB7ctrlReqEhhhhhhjjjPhP13USBReadParser+0x166>
    4c54:	ef 85       	ldd	r30, Y+15	; 0x0f
    4c56:	f8 89       	ldd	r31, Y+16	; 0x10
    4c58:	82 81       	ldd	r24, Z+2	; 0x02
    4c5a:	bb 20       	and	r11, r11
    4c5c:	09 f4       	brne	.+2      	; 0x4c60 <_ZN3USB7ctrlReqEhhhhhhjjjPhP13USBReadParser+0xae>
    4c5e:	50 c0       	rjmp	.+160    	; 0x4d00 <_ZN3USB7ctrlReqEhhhhhhjjjPhP13USBReadParser+0x14e>
    4c60:	82 60       	ori	r24, 0x02	; 2
    4c62:	82 83       	std	Z+2, r24	; 0x02
    4c64:	64 01       	movw	r12, r8
    4c66:	aa 24       	eor	r10, r10
    4c68:	a3 94       	inc	r10
    4c6a:	c1 14       	cp	r12, r1
    4c6c:	d1 04       	cpc	r13, r1
    4c6e:	09 f4       	brne	.+2      	; 0x4c72 <_ZN3USB7ctrlReqEhhhhhhjjjPhP13USBReadParser+0xc0>
    4c70:	51 c0       	rjmp	.+162    	; 0x4d14 <_ZN3USB7ctrlReqEhhhhhhjjjPhP13USBReadParser+0x162>
    4c72:	3c 86       	std	Y+12, r3	; 0x0c
    4c74:	2b 86       	std	Y+11, r2	; 0x0b
    4c76:	4d 85       	ldd	r20, Y+13	; 0x0d
    4c78:	5e 85       	ldd	r21, Y+14	; 0x0e
    4c7a:	6f 85       	ldd	r22, Y+15	; 0x0f
    4c7c:	78 89       	ldd	r23, Y+16	; 0x10
    4c7e:	87 01       	movw	r16, r14
    4c80:	9e 01       	movw	r18, r28
    4c82:	25 5f       	subi	r18, 0xF5	; 245
    4c84:	3f 4f       	sbci	r19, 0xFF	; 255
    4c86:	c3 01       	movw	r24, r6
    4c88:	d8 de       	rcall	.-592    	; 0x4a3a <_ZN3USB10InTransferEP6EpInfojPjPh>
    4c8a:	18 2f       	mov	r17, r24
    4c8c:	86 30       	cpi	r24, 0x06	; 6
    4c8e:	a9 f4       	brne	.+42     	; 0x4cba <_ZN3USB7ctrlReqEhhhhhhjjjPhP13USBReadParser+0x108>
    4c90:	2f 85       	ldd	r18, Y+15	; 0x0f
    4c92:	38 89       	ldd	r19, Y+16	; 0x10
    4c94:	88 ef       	ldi	r24, 0xF8	; 248
    4c96:	29 8b       	std	Y+17, r18	; 0x11
    4c98:	3a 8b       	std	Y+18, r19	; 0x12
    4c9a:	fb db       	rcall	.-2058   	; 0x4492 <_ZN8MAX3421eI4TPinI5PortbLh2EES0_IS1_Lh1EEE5regRdEh.isra.2>
    4c9c:	85 fb       	bst	r24, 5
    4c9e:	88 27       	eor	r24, r24
    4ca0:	80 f9       	bld	r24, 0
    4ca2:	8a 25       	eor	r24, r10
    4ca4:	29 89       	ldd	r18, Y+17	; 0x11
    4ca6:	3a 89       	ldd	r19, Y+18	; 0x12
    4ca8:	d9 01       	movw	r26, r18
    4caa:	12 96       	adiw	r26, 0x02	; 2
    4cac:	9c 91       	ld	r25, X
    4cae:	12 97       	sbiw	r26, 0x02	; 2
    4cb0:	80 fb       	bst	r24, 0
    4cb2:	91 f9       	bld	r25, 1
    4cb4:	12 96       	adiw	r26, 0x02	; 2
    4cb6:	9c 93       	st	X, r25
    4cb8:	d8 cf       	rjmp	.-80     	; 0x4c6a <_ZN3USB7ctrlReqEhhhhhhjjjPhP13USBReadParser+0xb8>
    4cba:	81 11       	cpse	r24, r1
    4cbc:	38 c0       	rjmp	.+112    	; 0x4d2e <_ZN3USB7ctrlReqEhhhhhhjjjPhP13USBReadParser+0x17c>
    4cbe:	eb a5       	ldd	r30, Y+43	; 0x2b
    4cc0:	fc a5       	ldd	r31, Y+44	; 0x2c
    4cc2:	30 97       	sbiw	r30, 0x00	; 0
    4cc4:	a1 f0       	breq	.+40     	; 0x4cee <_ZN3USB7ctrlReqEhhhhhhjjjPhP13USBReadParser+0x13c>
    4cc6:	01 90       	ld	r0, Z+
    4cc8:	f0 81       	ld	r31, Z
    4cca:	e0 2d       	mov	r30, r0
    4ccc:	01 90       	ld	r0, Z+
    4cce:	f0 81       	ld	r31, Z
    4cd0:	e0 2d       	mov	r30, r0
    4cd2:	c4 01       	movw	r24, r8
    4cd4:	8c 19       	sub	r24, r12
    4cd6:	9d 09       	sbc	r25, r13
    4cd8:	9a 87       	std	Y+10, r25	; 0x0a
    4cda:	89 87       	std	Y+9, r24	; 0x09
    4cdc:	6b 85       	ldd	r22, Y+11	; 0x0b
    4cde:	7c 85       	ldd	r23, Y+12	; 0x0c
    4ce0:	9e 01       	movw	r18, r28
    4ce2:	27 5f       	subi	r18, 0xF7	; 247
    4ce4:	3f 4f       	sbci	r19, 0xFF	; 255
    4ce6:	a7 01       	movw	r20, r14
    4ce8:	8b a5       	ldd	r24, Y+43	; 0x2b
    4cea:	9c a5       	ldd	r25, Y+44	; 0x2c
    4cec:	09 95       	icall
    4cee:	8b 85       	ldd	r24, Y+11	; 0x0b
    4cf0:	9c 85       	ldd	r25, Y+12	; 0x0c
    4cf2:	c8 1a       	sub	r12, r24
    4cf4:	d9 0a       	sbc	r13, r25
    4cf6:	82 15       	cp	r24, r2
    4cf8:	93 05       	cpc	r25, r3
    4cfa:	08 f0       	brcs	.+2      	; 0x4cfe <_ZN3USB7ctrlReqEhhhhhhjjjPhP13USBReadParser+0x14c>
    4cfc:	b6 cf       	rjmp	.-148    	; 0x4c6a <_ZN3USB7ctrlReqEhhhhhhjjjPhP13USBReadParser+0xb8>
    4cfe:	0c c0       	rjmp	.+24     	; 0x4d18 <_ZN3USB7ctrlReqEhhhhhhjjjPhP13USBReadParser+0x166>
    4d00:	81 60       	ori	r24, 0x01	; 1
    4d02:	82 83       	std	Z+2, r24	; 0x02
    4d04:	4d 85       	ldd	r20, Y+13	; 0x0d
    4d06:	5e 85       	ldd	r21, Y+14	; 0x0e
    4d08:	87 01       	movw	r16, r14
    4d0a:	91 01       	movw	r18, r2
    4d0c:	bf 01       	movw	r22, r30
    4d0e:	c3 01       	movw	r24, r6
    4d10:	81 dd       	rcall	.-1278   	; 0x4814 <_ZN3USB11OutTransferEP6EpInfojjPh>
    4d12:	18 2f       	mov	r17, r24
    4d14:	11 11       	cpse	r17, r1
    4d16:	0b c0       	rjmp	.+22     	; 0x4d2e <_ZN3USB7ctrlReqEhhhhhhjjjPhP13USBReadParser+0x17c>
    4d18:	2d 85       	ldd	r18, Y+13	; 0x0d
    4d1a:	3e 85       	ldd	r19, Y+14	; 0x0e
    4d1c:	bb 20       	and	r11, r11
    4d1e:	11 f0       	breq	.+4      	; 0x4d24 <_ZN3USB7ctrlReqEhhhhhhjjjPhP13USBReadParser+0x172>
    4d20:	60 ea       	ldi	r22, 0xA0	; 160
    4d22:	01 c0       	rjmp	.+2      	; 0x4d26 <_ZN3USB7ctrlReqEhhhhhhjjjPhP13USBReadParser+0x174>
    4d24:	60 e8       	ldi	r22, 0x80	; 128
    4d26:	45 2d       	mov	r20, r5
    4d28:	c3 01       	movw	r24, r6
    4d2a:	4c dc       	rcall	.-1896   	; 0x45c4 <_ZN3USB11dispatchPktEhhj>
    4d2c:	01 c0       	rjmp	.+2      	; 0x4d30 <_ZN3USB7ctrlReqEhhhhhhjjjPhP13USBReadParser+0x17e>
    4d2e:	81 2f       	mov	r24, r17
    4d30:	62 96       	adiw	r28, 0x12	; 18
    4d32:	0f b6       	in	r0, 0x3f	; 63
    4d34:	f8 94       	cli
    4d36:	de bf       	out	0x3e, r29	; 62
    4d38:	0f be       	out	0x3f, r0	; 63
    4d3a:	cd bf       	out	0x3d, r28	; 61
    4d3c:	df 91       	pop	r29
    4d3e:	cf 91       	pop	r28
    4d40:	1f 91       	pop	r17
    4d42:	0f 91       	pop	r16
    4d44:	ff 90       	pop	r15
    4d46:	ef 90       	pop	r14
    4d48:	df 90       	pop	r13
    4d4a:	cf 90       	pop	r12
    4d4c:	bf 90       	pop	r11
    4d4e:	af 90       	pop	r10
    4d50:	9f 90       	pop	r9
    4d52:	8f 90       	pop	r8
    4d54:	7f 90       	pop	r7
    4d56:	6f 90       	pop	r6
    4d58:	5f 90       	pop	r5
    4d5a:	4f 90       	pop	r4
    4d5c:	3f 90       	pop	r3
    4d5e:	2f 90       	pop	r2
    4d60:	08 95       	ret

00004d62 <_ZN3USB11getDevDescrEhhjPh>:
    4d62:	8f 92       	push	r8
    4d64:	9f 92       	push	r9
    4d66:	af 92       	push	r10
    4d68:	bf 92       	push	r11
    4d6a:	cf 92       	push	r12
    4d6c:	ef 92       	push	r14
    4d6e:	0f 93       	push	r16
    4d70:	1f 93       	push	r17
    4d72:	1f 92       	push	r1
    4d74:	1f 92       	push	r1
    4d76:	1f 93       	push	r17
    4d78:	0f 93       	push	r16
    4d7a:	3f 93       	push	r19
    4d7c:	2f 93       	push	r18
    4d7e:	49 01       	movw	r8, r18
    4d80:	a1 2c       	mov	r10, r1
    4d82:	b1 2c       	mov	r11, r1
    4d84:	cc 24       	eor	r12, r12
    4d86:	c3 94       	inc	r12
    4d88:	e1 2c       	mov	r14, r1
    4d8a:	06 e0       	ldi	r16, 0x06	; 6
    4d8c:	20 e8       	ldi	r18, 0x80	; 128
    4d8e:	11 df       	rcall	.-478    	; 0x4bb2 <_ZN3USB7ctrlReqEhhhhhhjjjPhP13USBReadParser>
    4d90:	0f 90       	pop	r0
    4d92:	0f 90       	pop	r0
    4d94:	0f 90       	pop	r0
    4d96:	0f 90       	pop	r0
    4d98:	0f 90       	pop	r0
    4d9a:	0f 90       	pop	r0
    4d9c:	1f 91       	pop	r17
    4d9e:	0f 91       	pop	r16
    4da0:	ef 90       	pop	r14
    4da2:	cf 90       	pop	r12
    4da4:	bf 90       	pop	r11
    4da6:	af 90       	pop	r10
    4da8:	9f 90       	pop	r9
    4daa:	8f 90       	pop	r8
    4dac:	08 95       	ret

00004dae <_ZN3USB12getConfDescrEhhjhPh>:
    4dae:	8f 92       	push	r8
    4db0:	9f 92       	push	r9
    4db2:	af 92       	push	r10
    4db4:	bf 92       	push	r11
    4db6:	cf 92       	push	r12
    4db8:	ef 92       	push	r14
    4dba:	ff 92       	push	r15
    4dbc:	0f 93       	push	r16
    4dbe:	1f 92       	push	r1
    4dc0:	1f 92       	push	r1
    4dc2:	ff 92       	push	r15
    4dc4:	ef 92       	push	r14
    4dc6:	3f 93       	push	r19
    4dc8:	2f 93       	push	r18
    4dca:	49 01       	movw	r8, r18
    4dcc:	a1 2c       	mov	r10, r1
    4dce:	b1 2c       	mov	r11, r1
    4dd0:	52 e0       	ldi	r21, 0x02	; 2
    4dd2:	c5 2e       	mov	r12, r21
    4dd4:	e0 2e       	mov	r14, r16
    4dd6:	06 e0       	ldi	r16, 0x06	; 6
    4dd8:	20 e8       	ldi	r18, 0x80	; 128
    4dda:	eb de       	rcall	.-554    	; 0x4bb2 <_ZN3USB7ctrlReqEhhhhhhjjjPhP13USBReadParser>
    4ddc:	0f 90       	pop	r0
    4dde:	0f 90       	pop	r0
    4de0:	0f 90       	pop	r0
    4de2:	0f 90       	pop	r0
    4de4:	0f 90       	pop	r0
    4de6:	0f 90       	pop	r0
    4de8:	0f 91       	pop	r16
    4dea:	ff 90       	pop	r15
    4dec:	ef 90       	pop	r14
    4dee:	cf 90       	pop	r12
    4df0:	bf 90       	pop	r11
    4df2:	af 90       	pop	r10
    4df4:	9f 90       	pop	r9
    4df6:	8f 90       	pop	r8
    4df8:	08 95       	ret

00004dfa <_ZN3USB7setAddrEhhh>:
    4dfa:	8f 92       	push	r8
    4dfc:	9f 92       	push	r9
    4dfe:	af 92       	push	r10
    4e00:	bf 92       	push	r11
    4e02:	cf 92       	push	r12
    4e04:	ef 92       	push	r14
    4e06:	0f 93       	push	r16
    4e08:	cf 93       	push	r28
    4e0a:	1f 92       	push	r1
    4e0c:	1f 92       	push	r1
    4e0e:	1f 92       	push	r1
    4e10:	1f 92       	push	r1
    4e12:	1f 92       	push	r1
    4e14:	1f 92       	push	r1
    4e16:	81 2c       	mov	r8, r1
    4e18:	91 2c       	mov	r9, r1
    4e1a:	a1 2c       	mov	r10, r1
    4e1c:	b1 2c       	mov	r11, r1
    4e1e:	c1 2c       	mov	r12, r1
    4e20:	e2 2e       	mov	r14, r18
    4e22:	05 e0       	ldi	r16, 0x05	; 5
    4e24:	20 e0       	ldi	r18, 0x00	; 0
    4e26:	c5 de       	rcall	.-630    	; 0x4bb2 <_ZN3USB7ctrlReqEhhhhhhjjjPhP13USBReadParser>
    4e28:	c8 2f       	mov	r28, r24
    4e2a:	6c e2       	ldi	r22, 0x2C	; 44
    4e2c:	71 e0       	ldi	r23, 0x01	; 1
    4e2e:	80 e0       	ldi	r24, 0x00	; 0
    4e30:	90 e0       	ldi	r25, 0x00	; 0
    4e32:	0e 94 e3 18 	call	0x31c6	; 0x31c6 <delay>
    4e36:	0f 90       	pop	r0
    4e38:	0f 90       	pop	r0
    4e3a:	0f 90       	pop	r0
    4e3c:	0f 90       	pop	r0
    4e3e:	0f 90       	pop	r0
    4e40:	0f 90       	pop	r0
    4e42:	8c 2f       	mov	r24, r28
    4e44:	cf 91       	pop	r28
    4e46:	0f 91       	pop	r16
    4e48:	ef 90       	pop	r14
    4e4a:	cf 90       	pop	r12
    4e4c:	bf 90       	pop	r11
    4e4e:	af 90       	pop	r10
    4e50:	9f 90       	pop	r9
    4e52:	8f 90       	pop	r8
    4e54:	08 95       	ret

00004e56 <_ZN3USB7setConfEhhh>:
    4e56:	8f 92       	push	r8
    4e58:	9f 92       	push	r9
    4e5a:	af 92       	push	r10
    4e5c:	bf 92       	push	r11
    4e5e:	cf 92       	push	r12
    4e60:	ef 92       	push	r14
    4e62:	0f 93       	push	r16
    4e64:	1f 92       	push	r1
    4e66:	1f 92       	push	r1
    4e68:	1f 92       	push	r1
    4e6a:	1f 92       	push	r1
    4e6c:	1f 92       	push	r1
    4e6e:	1f 92       	push	r1
    4e70:	81 2c       	mov	r8, r1
    4e72:	91 2c       	mov	r9, r1
    4e74:	a1 2c       	mov	r10, r1
    4e76:	b1 2c       	mov	r11, r1
    4e78:	c1 2c       	mov	r12, r1
    4e7a:	e2 2e       	mov	r14, r18
    4e7c:	09 e0       	ldi	r16, 0x09	; 9
    4e7e:	20 e0       	ldi	r18, 0x00	; 0
    4e80:	98 de       	rcall	.-720    	; 0x4bb2 <_ZN3USB7ctrlReqEhhhhhhjjjPhP13USBReadParser>
    4e82:	0f 90       	pop	r0
    4e84:	0f 90       	pop	r0
    4e86:	0f 90       	pop	r0
    4e88:	0f 90       	pop	r0
    4e8a:	0f 90       	pop	r0
    4e8c:	0f 90       	pop	r0
    4e8e:	0f 91       	pop	r16
    4e90:	ef 90       	pop	r14
    4e92:	cf 90       	pop	r12
    4e94:	bf 90       	pop	r11
    4e96:	af 90       	pop	r10
    4e98:	9f 90       	pop	r9
    4e9a:	8f 90       	pop	r8
    4e9c:	08 95       	ret

00004e9e <_Z8PrintHexIhEvT_i>:
    4e9e:	1f 93       	push	r17
    4ea0:	cf 93       	push	r28
    4ea2:	df 93       	push	r29
    4ea4:	18 2f       	mov	r17, r24
    4ea6:	eb 01       	movw	r28, r22
    4ea8:	28 2f       	mov	r18, r24
    4eaa:	30 e0       	ldi	r19, 0x00	; 0
    4eac:	e4 e0       	ldi	r30, 0x04	; 4
    4eae:	35 95       	asr	r19
    4eb0:	27 95       	ror	r18
    4eb2:	ea 95       	dec	r30
    4eb4:	e1 f7       	brne	.-8      	; 0x4eae <_Z8PrintHexIhEvT_i+0x10>
    4eb6:	80 e3       	ldi	r24, 0x30	; 48
    4eb8:	82 0f       	add	r24, r18
    4eba:	8a 33       	cpi	r24, 0x3A	; 58
    4ebc:	10 f0       	brcs	.+4      	; 0x4ec2 <_Z8PrintHexIhEvT_i+0x24>
    4ebe:	87 e3       	ldi	r24, 0x37	; 55
    4ec0:	82 0f       	add	r24, r18
    4ec2:	be 01       	movw	r22, r28
    4ec4:	03 d3       	rcall	.+1542   	; 0x54cc <_Z9E_Notifycci>
    4ec6:	1f 70       	andi	r17, 0x0F	; 15
    4ec8:	80 e3       	ldi	r24, 0x30	; 48
    4eca:	81 0f       	add	r24, r17
    4ecc:	8a 33       	cpi	r24, 0x3A	; 58
    4ece:	10 f0       	brcs	.+4      	; 0x4ed4 <_Z8PrintHexIhEvT_i+0x36>
    4ed0:	87 e3       	ldi	r24, 0x37	; 55
    4ed2:	81 0f       	add	r24, r17
    4ed4:	be 01       	movw	r22, r28
    4ed6:	df 91       	pop	r29
    4ed8:	cf 91       	pop	r28
    4eda:	1f 91       	pop	r17
    4edc:	f7 c2       	rjmp	.+1518   	; 0x54cc <_Z9E_Notifycci>

00004ede <_ZN3USB10inTransferEhhPjPh>:
    4ede:	8f 92       	push	r8
    4ee0:	9f 92       	push	r9
    4ee2:	af 92       	push	r10
    4ee4:	bf 92       	push	r11
    4ee6:	cf 92       	push	r12
    4ee8:	df 92       	push	r13
    4eea:	ef 92       	push	r14
    4eec:	ff 92       	push	r15
    4eee:	0f 93       	push	r16
    4ef0:	1f 93       	push	r17
    4ef2:	cf 93       	push	r28
    4ef4:	df 93       	push	r29
    4ef6:	00 d0       	rcall	.+0      	; 0x4ef8 <_ZN3USB10inTransferEhhPjPh+0x1a>
    4ef8:	00 d0       	rcall	.+0      	; 0x4efa <_ZN3USB10inTransferEhhPjPh+0x1c>
    4efa:	cd b7       	in	r28, 0x3d	; 61
    4efc:	de b7       	in	r29, 0x3e	; 62
    4efe:	7c 01       	movw	r14, r24
    4f00:	86 2e       	mov	r8, r22
    4f02:	94 2e       	mov	r9, r20
    4f04:	69 01       	movw	r12, r18
    4f06:	58 01       	movw	r10, r16
    4f08:	1c 82       	std	Y+4, r1	; 0x04
    4f0a:	1b 82       	std	Y+3, r1	; 0x03
    4f0c:	1a 82       	std	Y+2, r1	; 0x02
    4f0e:	19 82       	std	Y+1, r1	; 0x01
    4f10:	8e 01       	movw	r16, r28
    4f12:	0f 5f       	subi	r16, 0xFF	; 255
    4f14:	1f 4f       	sbci	r17, 0xFF	; 255
    4f16:	9e 01       	movw	r18, r28
    4f18:	2d 5f       	subi	r18, 0xFD	; 253
    4f1a:	3f 4f       	sbci	r19, 0xFF	; 255
    4f1c:	ea da       	rcall	.-2604   	; 0x44f2 <_ZN3USB10SetAddressEhhPP6EpInfoRj>
    4f1e:	18 2f       	mov	r17, r24
    4f20:	88 23       	and	r24, r24
    4f22:	61 f1       	breq	.+88     	; 0x4f7c <_ZN3USB10inTransferEhhPjPh+0x9e>
    4f24:	61 e8       	ldi	r22, 0x81	; 129
    4f26:	70 e0       	ldi	r23, 0x00	; 0
    4f28:	83 ea       	ldi	r24, 0xA3	; 163
    4f2a:	91 e0       	ldi	r25, 0x01	; 1
    4f2c:	dc d2       	rcall	.+1464   	; 0x54e6 <_Z8E_NotifyPKci>
    4f2e:	61 e8       	ldi	r22, 0x81	; 129
    4f30:	70 e0       	ldi	r23, 0x00	; 0
    4f32:	81 2f       	mov	r24, r17
    4f34:	b4 df       	rcall	.-152    	; 0x4e9e <_Z8PrintHexIhEvT_i>
    4f36:	61 e8       	ldi	r22, 0x81	; 129
    4f38:	70 e0       	ldi	r23, 0x00	; 0
    4f3a:	80 ea       	ldi	r24, 0xA0	; 160
    4f3c:	91 e0       	ldi	r25, 0x01	; 1
    4f3e:	d3 d2       	rcall	.+1446   	; 0x54e6 <_Z8E_NotifyPKci>
    4f40:	61 e8       	ldi	r22, 0x81	; 129
    4f42:	70 e0       	ldi	r23, 0x00	; 0
    4f44:	8e e7       	ldi	r24, 0x7E	; 126
    4f46:	91 e0       	ldi	r25, 0x01	; 1
    4f48:	ce d2       	rcall	.+1436   	; 0x54e6 <_Z8E_NotifyPKci>
    4f4a:	61 e8       	ldi	r22, 0x81	; 129
    4f4c:	70 e0       	ldi	r23, 0x00	; 0
    4f4e:	88 2d       	mov	r24, r8
    4f50:	a6 df       	rcall	.-180    	; 0x4e9e <_Z8PrintHexIhEvT_i>
    4f52:	61 e8       	ldi	r22, 0x81	; 129
    4f54:	70 e0       	ldi	r23, 0x00	; 0
    4f56:	8b e7       	ldi	r24, 0x7B	; 123
    4f58:	91 e0       	ldi	r25, 0x01	; 1
    4f5a:	c5 d2       	rcall	.+1418   	; 0x54e6 <_Z8E_NotifyPKci>
    4f5c:	61 e8       	ldi	r22, 0x81	; 129
    4f5e:	70 e0       	ldi	r23, 0x00	; 0
    4f60:	8b e5       	ldi	r24, 0x5B	; 91
    4f62:	91 e0       	ldi	r25, 0x01	; 1
    4f64:	c0 d2       	rcall	.+1408   	; 0x54e6 <_Z8E_NotifyPKci>
    4f66:	61 e8       	ldi	r22, 0x81	; 129
    4f68:	70 e0       	ldi	r23, 0x00	; 0
    4f6a:	89 2d       	mov	r24, r9
    4f6c:	98 df       	rcall	.-208    	; 0x4e9e <_Z8PrintHexIhEvT_i>
    4f6e:	61 e8       	ldi	r22, 0x81	; 129
    4f70:	70 e0       	ldi	r23, 0x00	; 0
    4f72:	88 e5       	ldi	r24, 0x58	; 88
    4f74:	91 e0       	ldi	r25, 0x01	; 1
    4f76:	b7 d2       	rcall	.+1390   	; 0x54e6 <_Z8E_NotifyPKci>
    4f78:	81 2f       	mov	r24, r17
    4f7a:	08 c0       	rjmp	.+16     	; 0x4f8c <_ZN3USB10inTransferEhhPjPh+0xae>
    4f7c:	49 81       	ldd	r20, Y+1	; 0x01
    4f7e:	5a 81       	ldd	r21, Y+2	; 0x02
    4f80:	6b 81       	ldd	r22, Y+3	; 0x03
    4f82:	7c 81       	ldd	r23, Y+4	; 0x04
    4f84:	85 01       	movw	r16, r10
    4f86:	96 01       	movw	r18, r12
    4f88:	c7 01       	movw	r24, r14
    4f8a:	57 dd       	rcall	.-1362   	; 0x4a3a <_ZN3USB10InTransferEP6EpInfojPjPh>
    4f8c:	0f 90       	pop	r0
    4f8e:	0f 90       	pop	r0
    4f90:	0f 90       	pop	r0
    4f92:	0f 90       	pop	r0
    4f94:	df 91       	pop	r29
    4f96:	cf 91       	pop	r28
    4f98:	1f 91       	pop	r17
    4f9a:	0f 91       	pop	r16
    4f9c:	ff 90       	pop	r15
    4f9e:	ef 90       	pop	r14
    4fa0:	df 90       	pop	r13
    4fa2:	cf 90       	pop	r12
    4fa4:	bf 90       	pop	r11
    4fa6:	af 90       	pop	r10
    4fa8:	9f 90       	pop	r9
    4faa:	8f 90       	pop	r8
    4fac:	08 95       	ret

00004fae <_ZN15AddressPoolImplILh16EE18FreeAddressByIndexEh>:
    4fae:	cf 92       	push	r12
    4fb0:	df 92       	push	r13
    4fb2:	ff 92       	push	r15
    4fb4:	0f 93       	push	r16
    4fb6:	1f 93       	push	r17
    4fb8:	cf 93       	push	r28
    4fba:	df 93       	push	r29
    4fbc:	00 d0       	rcall	.+0      	; 0x4fbe <_ZN15AddressPoolImplILh16EE18FreeAddressByIndexEh+0x10>
    4fbe:	cd b7       	in	r28, 0x3d	; 61
    4fc0:	de b7       	in	r29, 0x3e	; 62
    4fc2:	6c 01       	movw	r12, r24
    4fc4:	66 23       	and	r22, r22
    4fc6:	09 f4       	brne	.+2      	; 0x4fca <_ZN15AddressPoolImplILh16EE18FreeAddressByIndexEh+0x1c>
    4fc8:	41 c0       	rjmp	.+130    	; 0x504c <_ZN15AddressPoolImplILh16EE18FreeAddressByIndexEh+0x9e>
    4fca:	06 2f       	mov	r16, r22
    4fcc:	10 e0       	ldi	r17, 0x00	; 0
    4fce:	85 e0       	ldi	r24, 0x05	; 5
    4fd0:	68 9f       	mul	r22, r24
    4fd2:	b0 01       	movw	r22, r0
    4fd4:	11 24       	eor	r1, r1
    4fd6:	f6 01       	movw	r30, r12
    4fd8:	e6 0f       	add	r30, r22
    4fda:	f7 1f       	adc	r31, r23
    4fdc:	80 85       	ldd	r24, Z+8	; 0x08
    4fde:	28 2f       	mov	r18, r24
    4fe0:	27 70       	andi	r18, 0x07	; 7
    4fe2:	86 ff       	sbrs	r24, 6
    4fe4:	19 c0       	rjmp	.+50     	; 0x5018 <_ZN15AddressPoolImplILh16EE18FreeAddressByIndexEh+0x6a>
    4fe6:	31 e0       	ldi	r19, 0x01	; 1
    4fe8:	f5 e0       	ldi	r31, 0x05	; 5
    4fea:	ff 2e       	mov	r15, r31
    4fec:	f6 01       	movw	r30, r12
    4fee:	f3 9e       	mul	r15, r19
    4ff0:	e0 0d       	add	r30, r0
    4ff2:	f1 1d       	adc	r31, r1
    4ff4:	11 24       	eor	r1, r1
    4ff6:	80 85       	ldd	r24, Z+8	; 0x08
    4ff8:	86 95       	lsr	r24
    4ffa:	86 95       	lsr	r24
    4ffc:	86 95       	lsr	r24
    4ffe:	87 70       	andi	r24, 0x07	; 7
    5000:	82 17       	cp	r24, r18
    5002:	e1 f0       	breq	.+56     	; 0x503c <_ZN15AddressPoolImplILh16EE18FreeAddressByIndexEh+0x8e>
    5004:	3f 5f       	subi	r19, 0xFF	; 255
    5006:	30 31       	cpi	r19, 0x10	; 16
    5008:	88 f3       	brcs	.-30     	; 0x4fec <_ZN15AddressPoolImplILh16EE18FreeAddressByIndexEh+0x3e>
    500a:	f6 01       	movw	r30, r12
    500c:	85 81       	ldd	r24, Z+5	; 0x05
    500e:	82 13       	cpse	r24, r18
    5010:	03 c0       	rjmp	.+6      	; 0x5018 <_ZN15AddressPoolImplILh16EE18FreeAddressByIndexEh+0x6a>
    5012:	21 50       	subi	r18, 0x01	; 1
    5014:	f6 01       	movw	r30, r12
    5016:	25 83       	std	Z+5, r18	; 0x05
    5018:	85 e0       	ldi	r24, 0x05	; 5
    501a:	80 9f       	mul	r24, r16
    501c:	f0 01       	movw	r30, r0
    501e:	81 9f       	mul	r24, r17
    5020:	f0 0d       	add	r31, r0
    5022:	11 24       	eor	r1, r1
    5024:	ec 0d       	add	r30, r12
    5026:	fd 1d       	adc	r31, r13
    5028:	10 86       	std	Z+8, r1	; 0x08
    502a:	81 e0       	ldi	r24, 0x01	; 1
    502c:	81 87       	std	Z+9, r24	; 0x09
    502e:	12 86       	std	Z+10, r1	; 0x0a
    5030:	82 e0       	ldi	r24, 0x02	; 2
    5032:	c8 0e       	add	r12, r24
    5034:	d1 1c       	adc	r13, r1
    5036:	d7 82       	std	Z+7, r13	; 0x07
    5038:	c6 82       	std	Z+6, r12	; 0x06
    503a:	08 c0       	rjmp	.+16     	; 0x504c <_ZN15AddressPoolImplILh16EE18FreeAddressByIndexEh+0x9e>
    503c:	63 2f       	mov	r22, r19
    503e:	c6 01       	movw	r24, r12
    5040:	2a 83       	std	Y+2, r18	; 0x02
    5042:	39 83       	std	Y+1, r19	; 0x01
    5044:	b4 df       	rcall	.-152    	; 0x4fae <_ZN15AddressPoolImplILh16EE18FreeAddressByIndexEh>
    5046:	2a 81       	ldd	r18, Y+2	; 0x02
    5048:	39 81       	ldd	r19, Y+1	; 0x01
    504a:	d0 cf       	rjmp	.-96     	; 0x4fec <_ZN15AddressPoolImplILh16EE18FreeAddressByIndexEh+0x3e>
    504c:	0f 90       	pop	r0
    504e:	0f 90       	pop	r0
    5050:	df 91       	pop	r29
    5052:	cf 91       	pop	r28
    5054:	1f 91       	pop	r17
    5056:	0f 91       	pop	r16
    5058:	ff 90       	pop	r15
    505a:	df 90       	pop	r13
    505c:	cf 90       	pop	r12
    505e:	08 95       	ret

00005060 <_ZN15AddressPoolImplILh16EE11FreeAddressEh>:
    5060:	cf 93       	push	r28
    5062:	df 93       	push	r29
    5064:	ec 01       	movw	r28, r24
    5066:	61 34       	cpi	r22, 0x41	; 65
    5068:	a1 f4       	brne	.+40     	; 0x5092 <_ZN15AddressPoolImplILh16EE11FreeAddressEh+0x32>
    506a:	fc 01       	movw	r30, r24
    506c:	85 5b       	subi	r24, 0xB5	; 181
    506e:	9f 4f       	sbci	r25, 0xFF	; 255
    5070:	41 e0       	ldi	r20, 0x01	; 1
    5072:	9e 01       	movw	r18, r28
    5074:	2e 5f       	subi	r18, 0xFE	; 254
    5076:	3f 4f       	sbci	r19, 0xFF	; 255
    5078:	15 86       	std	Z+13, r1	; 0x0d
    507a:	46 87       	std	Z+14, r20	; 0x0e
    507c:	17 86       	std	Z+15, r1	; 0x0f
    507e:	34 87       	std	Z+12, r19	; 0x0c
    5080:	23 87       	std	Z+11, r18	; 0x0b
    5082:	35 96       	adiw	r30, 0x05	; 5
    5084:	e8 17       	cp	r30, r24
    5086:	f9 07       	cpc	r31, r25
    5088:	b9 f7       	brne	.-18     	; 0x5078 <_ZN15AddressPoolImplILh16EE11FreeAddressEh+0x18>
    508a:	1d 82       	std	Y+5, r1	; 0x05
    508c:	df 91       	pop	r29
    508e:	cf 91       	pop	r28
    5090:	08 95       	ret
    5092:	1c d9       	rcall	.-3528   	; 0x42cc <_ZN15AddressPoolImplILh16EE16FindAddressIndexEh>
    5094:	68 2f       	mov	r22, r24
    5096:	ce 01       	movw	r24, r28
    5098:	df 91       	pop	r29
    509a:	cf 91       	pop	r28
    509c:	88 cf       	rjmp	.-240    	; 0x4fae <_ZN15AddressPoolImplILh16EE18FreeAddressByIndexEh>

0000509e <_ZN3USB17DefaultAddressingEhhb>:
    509e:	0f 93       	push	r16
    50a0:	1f 93       	push	r17
    50a2:	cf 93       	push	r28
    50a4:	df 93       	push	r29
    50a6:	ec 01       	movw	r28, r24
    50a8:	02 2f       	mov	r16, r18
    50aa:	ca 3f       	cpi	r28, 0xFA	; 250
    50ac:	8f ef       	ldi	r24, 0xFF	; 255
    50ae:	d8 07       	cpc	r29, r24
    50b0:	11 f4       	brne	.+4      	; 0x50b6 <_ZN3USB17DefaultAddressingEhhb+0x18>
    50b2:	86 ed       	ldi	r24, 0xD6	; 214
    50b4:	25 c0       	rjmp	.+74     	; 0x5100 <_ZN3USB17DefaultAddressingEhhb+0x62>
    50b6:	8e 81       	ldd	r24, Y+6	; 0x06
    50b8:	9f 81       	ldd	r25, Y+7	; 0x07
    50ba:	89 2b       	or	r24, r25
    50bc:	e1 f0       	breq	.+56     	; 0x50f6 <_ZN3USB17DefaultAddressingEhhb+0x58>
    50be:	2a 87       	std	Y+10, r18	; 0x0a
    50c0:	24 2f       	mov	r18, r20
    50c2:	40 e0       	ldi	r20, 0x00	; 0
    50c4:	ce 01       	movw	r24, r28
    50c6:	14 d9       	rcall	.-3544   	; 0x42f0 <_ZN15AddressPoolImplILh16EE12AllocAddressEhbh>
    50c8:	18 2f       	mov	r17, r24
    50ca:	88 23       	and	r24, r24
    50cc:	b1 f0       	breq	.+44     	; 0x50fa <_ZN3USB17DefaultAddressingEhhb+0x5c>
    50ce:	68 2f       	mov	r22, r24
    50d0:	ce 01       	movw	r24, r28
    50d2:	81 d9       	rcall	.-3326   	; 0x43d6 <_ZN15AddressPoolImplILh16EE15GetUsbDevicePtrEh>
    50d4:	00 97       	sbiw	r24, 0x00	; 0
    50d6:	69 f3       	breq	.-38     	; 0x50b2 <_ZN3USB17DefaultAddressingEhhb+0x14>
    50d8:	fc 01       	movw	r30, r24
    50da:	04 83       	std	Z+4, r16	; 0x04
    50dc:	21 2f       	mov	r18, r17
    50de:	40 e0       	ldi	r20, 0x00	; 0
    50e0:	60 e0       	ldi	r22, 0x00	; 0
    50e2:	ce 01       	movw	r24, r28
    50e4:	8a de       	rcall	.-748    	; 0x4dfa <_ZN3USB7setAddrEhhh>
    50e6:	08 2f       	mov	r16, r24
    50e8:	88 23       	and	r24, r24
    50ea:	49 f0       	breq	.+18     	; 0x50fe <_ZN3USB17DefaultAddressingEhhb+0x60>
    50ec:	61 2f       	mov	r22, r17
    50ee:	ce 01       	movw	r24, r28
    50f0:	b7 df       	rcall	.-146    	; 0x5060 <_ZN15AddressPoolImplILh16EE11FreeAddressEh>
    50f2:	80 2f       	mov	r24, r16
    50f4:	05 c0       	rjmp	.+10     	; 0x5100 <_ZN3USB17DefaultAddressingEhhb+0x62>
    50f6:	87 ed       	ldi	r24, 0xD7	; 215
    50f8:	03 c0       	rjmp	.+6      	; 0x5100 <_ZN3USB17DefaultAddressingEhhb+0x62>
    50fa:	84 ed       	ldi	r24, 0xD4	; 212
    50fc:	01 c0       	rjmp	.+2      	; 0x5100 <_ZN3USB17DefaultAddressingEhhb+0x62>
    50fe:	80 e0       	ldi	r24, 0x00	; 0
    5100:	df 91       	pop	r29
    5102:	cf 91       	pop	r28
    5104:	1f 91       	pop	r17
    5106:	0f 91       	pop	r16
    5108:	08 95       	ret

0000510a <_ZN3USB11ConfiguringEhhb>:
    510a:	3f 92       	push	r3
    510c:	4f 92       	push	r4
    510e:	5f 92       	push	r5
    5110:	6f 92       	push	r6
    5112:	7f 92       	push	r7
    5114:	8f 92       	push	r8
    5116:	9f 92       	push	r9
    5118:	af 92       	push	r10
    511a:	bf 92       	push	r11
    511c:	cf 92       	push	r12
    511e:	df 92       	push	r13
    5120:	ef 92       	push	r14
    5122:	ff 92       	push	r15
    5124:	0f 93       	push	r16
    5126:	1f 93       	push	r17
    5128:	cf 93       	push	r28
    512a:	df 93       	push	r29
    512c:	cd b7       	in	r28, 0x3d	; 61
    512e:	de b7       	in	r29, 0x3e	; 62
    5130:	65 97       	sbiw	r28, 0x15	; 21
    5132:	0f b6       	in	r0, 0x3f	; 63
    5134:	f8 94       	cli
    5136:	de bf       	out	0x3e, r29	; 62
    5138:	0f be       	out	0x3f, r0	; 63
    513a:	cd bf       	out	0x3d, r28	; 61
    513c:	7c 01       	movw	r14, r24
    513e:	66 2e       	mov	r6, r22
    5140:	54 2e       	mov	r5, r20
    5142:	72 2e       	mov	r7, r18
    5144:	1b 8a       	std	Y+19, r1	; 0x13
    5146:	88 e0       	ldi	r24, 0x08	; 8
    5148:	8c 8b       	std	Y+20, r24	; 0x14
    514a:	8c e3       	ldi	r24, 0x3C	; 60
    514c:	8d 8b       	std	Y+21, r24	; 0x15
    514e:	d7 01       	movw	r26, r14
    5150:	ed 91       	ld	r30, X+
    5152:	fc 91       	ld	r31, X
    5154:	01 90       	ld	r0, Z+
    5156:	f0 81       	ld	r31, Z
    5158:	e0 2d       	mov	r30, r0
    515a:	60 e0       	ldi	r22, 0x00	; 0
    515c:	c7 01       	movw	r24, r14
    515e:	09 95       	icall
    5160:	6c 01       	movw	r12, r24
    5162:	00 97       	sbiw	r24, 0x00	; 0
    5164:	09 f4       	brne	.+2      	; 0x5168 <_ZN3USB11ConfiguringEhhb+0x5e>
    5166:	8d c0       	rjmp	.+282    	; 0x5282 <_ZN3USB11ConfiguringEhhb+0x178>
    5168:	fc 01       	movw	r30, r24
    516a:	a0 80       	ld	r10, Z
    516c:	b1 80       	ldd	r11, Z+1	; 0x01
    516e:	ce 01       	movw	r24, r28
    5170:	43 96       	adiw	r24, 0x13	; 19
    5172:	91 83       	std	Z+1, r25	; 0x01
    5174:	80 83       	st	Z, r24
    5176:	74 82       	std	Z+4, r7	; 0x04
    5178:	8e 01       	movw	r16, r28
    517a:	0f 5f       	subi	r16, 0xFF	; 255
    517c:	1f 4f       	sbci	r17, 0xFF	; 255
    517e:	22 e1       	ldi	r18, 0x12	; 18
    5180:	30 e0       	ldi	r19, 0x00	; 0
    5182:	40 e0       	ldi	r20, 0x00	; 0
    5184:	60 e0       	ldi	r22, 0x00	; 0
    5186:	c7 01       	movw	r24, r14
    5188:	ec dd       	rcall	.-1064   	; 0x4d62 <_ZN3USB11getDevDescrEhhjPh>
    518a:	d6 01       	movw	r26, r12
    518c:	ad 92       	st	X+, r10
    518e:	bc 92       	st	X, r11
    5190:	81 11       	cpse	r24, r1
    5192:	8d c0       	rjmp	.+282    	; 0x52ae <_ZN3USB11ConfiguringEhhb+0x1a4>
    5194:	a9 84       	ldd	r10, Y+9	; 0x09
    5196:	ba 84       	ldd	r11, Y+10	; 0x0a
    5198:	8b 84       	ldd	r8, Y+11	; 0x0b
    519a:	9c 84       	ldd	r9, Y+12	; 0x0c
    519c:	4d 80       	ldd	r4, Y+5	; 0x05
    519e:	67 01       	movw	r12, r14
    51a0:	31 2c       	mov	r3, r1
    51a2:	86 01       	movw	r16, r12
    51a4:	0a 5a       	subi	r16, 0xAA	; 170
    51a6:	1f 4f       	sbci	r17, 0xFF	; 255
    51a8:	f8 01       	movw	r30, r16
    51aa:	80 81       	ld	r24, Z
    51ac:	91 81       	ldd	r25, Z+1	; 0x01
    51ae:	00 97       	sbiw	r24, 0x00	; 0
    51b0:	51 f4       	brne	.+20     	; 0x51c6 <_ZN3USB11ConfiguringEhhb+0xbc>
    51b2:	33 94       	inc	r3
    51b4:	f2 e0       	ldi	r31, 0x02	; 2
    51b6:	cf 0e       	add	r12, r31
    51b8:	d1 1c       	adc	r13, r1
    51ba:	80 e1       	ldi	r24, 0x10	; 16
    51bc:	38 12       	cpse	r3, r24
    51be:	f1 cf       	rjmp	.-30     	; 0x51a2 <_ZN3USB11ConfiguringEhhb+0x98>
    51c0:	67 01       	movw	r12, r14
    51c2:	31 2c       	mov	r3, r1
    51c4:	25 c0       	rjmp	.+74     	; 0x5210 <_ZN3USB11ConfiguringEhhb+0x106>
    51c6:	dc 01       	movw	r26, r24
    51c8:	ed 91       	ld	r30, X+
    51ca:	fc 91       	ld	r31, X
    51cc:	00 84       	ldd	r0, Z+8	; 0x08
    51ce:	f1 85       	ldd	r31, Z+9	; 0x09
    51d0:	e0 2d       	mov	r30, r0
    51d2:	09 95       	icall
    51d4:	81 11       	cpse	r24, r1
    51d6:	ed cf       	rjmp	.-38     	; 0x51b2 <_ZN3USB11ConfiguringEhhb+0xa8>
    51d8:	f8 01       	movw	r30, r16
    51da:	80 81       	ld	r24, Z
    51dc:	91 81       	ldd	r25, Z+1	; 0x01
    51de:	dc 01       	movw	r26, r24
    51e0:	ed 91       	ld	r30, X+
    51e2:	fc 91       	ld	r31, X
    51e4:	04 84       	ldd	r0, Z+12	; 0x0c
    51e6:	f5 85       	ldd	r31, Z+13	; 0x0d
    51e8:	e0 2d       	mov	r30, r0
    51ea:	a4 01       	movw	r20, r8
    51ec:	b5 01       	movw	r22, r10
    51ee:	09 95       	icall
    51f0:	81 11       	cpse	r24, r1
    51f2:	49 c0       	rjmp	.+146    	; 0x5286 <_ZN3USB11ConfiguringEhhb+0x17c>
    51f4:	f8 01       	movw	r30, r16
    51f6:	80 81       	ld	r24, Z
    51f8:	91 81       	ldd	r25, Z+1	; 0x01
    51fa:	dc 01       	movw	r26, r24
    51fc:	ed 91       	ld	r30, X+
    51fe:	fc 91       	ld	r31, X
    5200:	06 84       	ldd	r0, Z+14	; 0x0e
    5202:	f7 85       	ldd	r31, Z+15	; 0x0f
    5204:	e0 2d       	mov	r30, r0
    5206:	64 2d       	mov	r22, r4
    5208:	09 95       	icall
    520a:	81 11       	cpse	r24, r1
    520c:	3c c0       	rjmp	.+120    	; 0x5286 <_ZN3USB11ConfiguringEhhb+0x17c>
    520e:	d1 cf       	rjmp	.-94     	; 0x51b2 <_ZN3USB11ConfiguringEhhb+0xa8>
    5210:	86 01       	movw	r16, r12
    5212:	0a 5a       	subi	r16, 0xAA	; 170
    5214:	1f 4f       	sbci	r17, 0xFF	; 255
    5216:	f8 01       	movw	r30, r16
    5218:	80 81       	ld	r24, Z
    521a:	91 81       	ldd	r25, Z+1	; 0x01
    521c:	00 97       	sbiw	r24, 0x00	; 0
    521e:	21 f1       	breq	.+72     	; 0x5268 <_ZN3USB11ConfiguringEhhb+0x15e>
    5220:	dc 01       	movw	r26, r24
    5222:	ed 91       	ld	r30, X+
    5224:	fc 91       	ld	r31, X
    5226:	00 84       	ldd	r0, Z+8	; 0x08
    5228:	f1 85       	ldd	r31, Z+9	; 0x09
    522a:	e0 2d       	mov	r30, r0
    522c:	09 95       	icall
    522e:	81 11       	cpse	r24, r1
    5230:	1b c0       	rjmp	.+54     	; 0x5268 <_ZN3USB11ConfiguringEhhb+0x15e>
    5232:	f8 01       	movw	r30, r16
    5234:	80 81       	ld	r24, Z
    5236:	91 81       	ldd	r25, Z+1	; 0x01
    5238:	dc 01       	movw	r26, r24
    523a:	ed 91       	ld	r30, X+
    523c:	fc 91       	ld	r31, X
    523e:	04 84       	ldd	r0, Z+12	; 0x0c
    5240:	f5 85       	ldd	r31, Z+13	; 0x0d
    5242:	e0 2d       	mov	r30, r0
    5244:	a4 01       	movw	r20, r8
    5246:	b5 01       	movw	r22, r10
    5248:	09 95       	icall
    524a:	81 11       	cpse	r24, r1
    524c:	0d c0       	rjmp	.+26     	; 0x5268 <_ZN3USB11ConfiguringEhhb+0x15e>
    524e:	f8 01       	movw	r30, r16
    5250:	80 81       	ld	r24, Z
    5252:	91 81       	ldd	r25, Z+1	; 0x01
    5254:	dc 01       	movw	r26, r24
    5256:	ed 91       	ld	r30, X+
    5258:	fc 91       	ld	r31, X
    525a:	06 84       	ldd	r0, Z+14	; 0x0e
    525c:	f7 85       	ldd	r31, Z+15	; 0x0f
    525e:	e0 2d       	mov	r30, r0
    5260:	64 2d       	mov	r22, r4
    5262:	09 95       	icall
    5264:	88 23       	and	r24, r24
    5266:	c9 f0       	breq	.+50     	; 0x529a <_ZN3USB11ConfiguringEhhb+0x190>
    5268:	33 94       	inc	r3
    526a:	b2 e0       	ldi	r27, 0x02	; 2
    526c:	cb 0e       	add	r12, r27
    526e:	d1 1c       	adc	r13, r1
    5270:	e0 e1       	ldi	r30, 0x10	; 16
    5272:	3e 12       	cpse	r3, r30
    5274:	cd cf       	rjmp	.-102    	; 0x5210 <_ZN3USB11ConfiguringEhhb+0x106>
    5276:	27 2d       	mov	r18, r7
    5278:	45 2d       	mov	r20, r5
    527a:	66 2d       	mov	r22, r6
    527c:	c7 01       	movw	r24, r14
    527e:	0f df       	rcall	.-482    	; 0x509e <_ZN3USB17DefaultAddressingEhhb>
    5280:	16 c0       	rjmp	.+44     	; 0x52ae <_ZN3USB11ConfiguringEhhb+0x1a4>
    5282:	86 ed       	ldi	r24, 0xD6	; 214
    5284:	14 c0       	rjmp	.+40     	; 0x52ae <_ZN3USB11ConfiguringEhhb+0x1a4>
    5286:	07 2d       	mov	r16, r7
    5288:	25 2d       	mov	r18, r5
    528a:	46 2d       	mov	r20, r6
    528c:	63 2d       	mov	r22, r3
    528e:	c7 01       	movw	r24, r14
    5290:	fb d9       	rcall	.-3082   	; 0x4688 <_ZN3USB13AttemptConfigEhhhb>
    5292:	81 3d       	cpi	r24, 0xD1	; 209
    5294:	09 f4       	brne	.+2      	; 0x5298 <_ZN3USB11ConfiguringEhhb+0x18e>
    5296:	8d cf       	rjmp	.-230    	; 0x51b2 <_ZN3USB11ConfiguringEhhb+0xa8>
    5298:	0a c0       	rjmp	.+20     	; 0x52ae <_ZN3USB11ConfiguringEhhb+0x1a4>
    529a:	07 2d       	mov	r16, r7
    529c:	25 2d       	mov	r18, r5
    529e:	46 2d       	mov	r20, r6
    52a0:	63 2d       	mov	r22, r3
    52a2:	c7 01       	movw	r24, r14
    52a4:	f1 d9       	rcall	.-3102   	; 0x4688 <_ZN3USB13AttemptConfigEhhhb>
    52a6:	98 2f       	mov	r25, r24
    52a8:	97 7f       	andi	r25, 0xF7	; 247
    52aa:	91 3d       	cpi	r25, 0xD1	; 209
    52ac:	e9 f2       	breq	.-70     	; 0x5268 <_ZN3USB11ConfiguringEhhb+0x15e>
    52ae:	65 96       	adiw	r28, 0x15	; 21
    52b0:	0f b6       	in	r0, 0x3f	; 63
    52b2:	f8 94       	cli
    52b4:	de bf       	out	0x3e, r29	; 62
    52b6:	0f be       	out	0x3f, r0	; 63
    52b8:	cd bf       	out	0x3d, r28	; 61
    52ba:	df 91       	pop	r29
    52bc:	cf 91       	pop	r28
    52be:	1f 91       	pop	r17
    52c0:	0f 91       	pop	r16
    52c2:	ff 90       	pop	r15
    52c4:	ef 90       	pop	r14
    52c6:	df 90       	pop	r13
    52c8:	cf 90       	pop	r12
    52ca:	bf 90       	pop	r11
    52cc:	af 90       	pop	r10
    52ce:	9f 90       	pop	r9
    52d0:	8f 90       	pop	r8
    52d2:	7f 90       	pop	r7
    52d4:	6f 90       	pop	r6
    52d6:	5f 90       	pop	r5
    52d8:	4f 90       	pop	r4
    52da:	3f 90       	pop	r3
    52dc:	08 95       	ret

000052de <_ZN3USB4TaskEv>:
    52de:	cf 92       	push	r12
    52e0:	df 92       	push	r13
    52e2:	ef 92       	push	r14
    52e4:	ff 92       	push	r15
    52e6:	1f 93       	push	r17
    52e8:	cf 93       	push	r28
    52ea:	df 93       	push	r29
    52ec:	ec 01       	movw	r28, r24
    52ee:	19 99       	sbic	0x03, 1	; 3
    52f0:	0c c0       	rjmp	.+24     	; 0x530a <_ZN3USB4TaskEv+0x2c>
    52f2:	88 ec       	ldi	r24, 0xC8	; 200
    52f4:	ce d8       	rcall	.-3684   	; 0x4492 <_ZN8MAX3421eI4TPinI5PortbLh2EES0_IS1_Lh1EEE5regRdEh.isra.2>
    52f6:	85 ff       	sbrs	r24, 5
    52f8:	05 c0       	rjmp	.+10     	; 0x5304 <_ZN3USB4TaskEv+0x26>
    52fa:	ce 01       	movw	r24, r28
    52fc:	0e 94 b4 06 	call	0xd68	; 0xd68 <_ZN8MAX3421eI4TPinI5PortbLh2EES0_IS1_Lh1EEE8busprobeEv>
    5300:	60 e2       	ldi	r22, 0x20	; 32
    5302:	01 c0       	rjmp	.+2      	; 0x5306 <_ZN3USB4TaskEv+0x28>
    5304:	60 e0       	ldi	r22, 0x00	; 0
    5306:	88 ec       	ldi	r24, 0xC8	; 200
    5308:	db d8       	rcall	.-3658   	; 0x44c0 <_ZN8MAX3421eI4TPinI5PortbLh2EES0_IS1_Lh1EEE5regWrEhh.isra.3>
    530a:	80 91 32 02 	lds	r24, 0x0232
    530e:	81 30       	cpi	r24, 0x01	; 1
    5310:	49 f0       	breq	.+18     	; 0x5324 <_ZN3USB4TaskEv+0x46>
    5312:	50 f0       	brcs	.+20     	; 0x5328 <_ZN3USB4TaskEv+0x4a>
    5314:	82 30       	cpi	r24, 0x02	; 2
    5316:	21 f0       	breq	.+8      	; 0x5320 <_ZN3USB4TaskEv+0x42>
    5318:	83 30       	cpi	r24, 0x03	; 3
    531a:	31 f5       	brne	.+76     	; 0x5368 <_ZN3USB4TaskEv+0x8a>
    531c:	11 e0       	ldi	r17, 0x01	; 1
    531e:	0d c0       	rjmp	.+26     	; 0x533a <_ZN3USB4TaskEv+0x5c>
    5320:	10 e0       	ldi	r17, 0x00	; 0
    5322:	0b c0       	rjmp	.+22     	; 0x533a <_ZN3USB4TaskEv+0x5c>
    5324:	83 e1       	ldi	r24, 0x13	; 19
    5326:	06 c0       	rjmp	.+12     	; 0x5334 <_ZN3USB4TaskEv+0x56>
    5328:	80 91 f3 04 	lds	r24, 0x04F3
    532c:	80 7f       	andi	r24, 0xF0	; 240
    532e:	80 31       	cpi	r24, 0x10	; 16
    5330:	d9 f0       	breq	.+54     	; 0x5368 <_ZN3USB4TaskEv+0x8a>
    5332:	81 e1       	ldi	r24, 0x11	; 17
    5334:	80 93 f3 04 	sts	0x04F3, r24
    5338:	17 c0       	rjmp	.+46     	; 0x5368 <_ZN3USB4TaskEv+0x8a>
    533a:	80 91 f3 04 	lds	r24, 0x04F3
    533e:	80 7f       	andi	r24, 0xF0	; 240
    5340:	80 31       	cpi	r24, 0x10	; 16
    5342:	99 f4       	brne	.+38     	; 0x536a <_ZN3USB4TaskEv+0x8c>
    5344:	0e 94 a7 18 	call	0x314e	; 0x314e <millis>
    5348:	68 53       	subi	r22, 0x38	; 56
    534a:	7f 4f       	sbci	r23, 0xFF	; 255
    534c:	8f 4f       	sbci	r24, 0xFF	; 255
    534e:	9f 4f       	sbci	r25, 0xFF	; 255
    5350:	60 93 ef 04 	sts	0x04EF, r22
    5354:	70 93 f0 04 	sts	0x04F0, r23
    5358:	80 93 f1 04 	sts	0x04F1, r24
    535c:	90 93 f2 04 	sts	0x04F2, r25
    5360:	80 e2       	ldi	r24, 0x20	; 32
    5362:	80 93 f3 04 	sts	0x04F3, r24
    5366:	01 c0       	rjmp	.+2      	; 0x536a <_ZN3USB4TaskEv+0x8c>
    5368:	10 e0       	ldi	r17, 0x00	; 0
    536a:	e1 2c       	mov	r14, r1
    536c:	f1 2c       	mov	r15, r1
    536e:	fe 01       	movw	r30, r28
    5370:	ee 0d       	add	r30, r14
    5372:	ff 1d       	adc	r31, r15
    5374:	ea 5a       	subi	r30, 0xAA	; 170
    5376:	ff 4f       	sbci	r31, 0xFF	; 255
    5378:	80 81       	ld	r24, Z
    537a:	91 81       	ldd	r25, Z+1	; 0x01
    537c:	00 97       	sbiw	r24, 0x00	; 0
    537e:	39 f0       	breq	.+14     	; 0x538e <_ZN3USB4TaskEv+0xb0>
    5380:	dc 01       	movw	r26, r24
    5382:	ed 91       	ld	r30, X+
    5384:	fc 91       	ld	r31, X
    5386:	06 80       	ldd	r0, Z+6	; 0x06
    5388:	f7 81       	ldd	r31, Z+7	; 0x07
    538a:	e0 2d       	mov	r30, r0
    538c:	09 95       	icall
    538e:	b2 e0       	ldi	r27, 0x02	; 2
    5390:	eb 0e       	add	r14, r27
    5392:	f1 1c       	adc	r15, r1
    5394:	80 e2       	ldi	r24, 0x20	; 32
    5396:	e8 16       	cp	r14, r24
    5398:	f1 04       	cpc	r15, r1
    539a:	49 f7       	brne	.-46     	; 0x536e <_ZN3USB4TaskEv+0x90>
    539c:	80 91 f3 04 	lds	r24, 0x04F3
    53a0:	80 34       	cpi	r24, 0x40	; 64
    53a2:	09 f4       	brne	.+2      	; 0x53a6 <_ZN3USB4TaskEv+0xc8>
    53a4:	47 c0       	rjmp	.+142    	; 0x5434 <_ZN3USB4TaskEv+0x156>
    53a6:	70 f4       	brcc	.+28     	; 0x53c4 <_ZN3USB4TaskEv+0xe6>
    53a8:	80 32       	cpi	r24, 0x20	; 32
    53aa:	79 f1       	breq	.+94     	; 0x540a <_ZN3USB4TaskEv+0x12c>
    53ac:	80 33       	cpi	r24, 0x30	; 48
    53ae:	e9 f1       	breq	.+122    	; 0x542a <_ZN3USB4TaskEv+0x14c>
    53b0:	81 31       	cpi	r24, 0x11	; 17
    53b2:	09 f0       	breq	.+2      	; 0x53b6 <_ZN3USB4TaskEv+0xd8>
    53b4:	83 c0       	rjmp	.+262    	; 0x54bc <_ZN3USB4TaskEv+0x1de>
    53b6:	fe 01       	movw	r30, r28
    53b8:	ea 58       	subi	r30, 0x8A	; 138
    53ba:	ff 4f       	sbci	r31, 0xFF	; 255
    53bc:	10 82       	st	Z, r1
    53be:	e1 2c       	mov	r14, r1
    53c0:	f1 2c       	mov	r15, r1
    53c2:	0a c0       	rjmp	.+20     	; 0x53d8 <_ZN3USB4TaskEv+0xfa>
    53c4:	81 35       	cpi	r24, 0x51	; 81
    53c6:	09 f4       	brne	.+2      	; 0x53ca <_ZN3USB4TaskEv+0xec>
    53c8:	57 c0       	rjmp	.+174    	; 0x5478 <_ZN3USB4TaskEv+0x19a>
    53ca:	80 38       	cpi	r24, 0x80	; 128
    53cc:	09 f4       	brne	.+2      	; 0x53d0 <_ZN3USB4TaskEv+0xf2>
    53ce:	66 c0       	rjmp	.+204    	; 0x549c <_ZN3USB4TaskEv+0x1be>
    53d0:	80 35       	cpi	r24, 0x50	; 80
    53d2:	09 f0       	breq	.+2      	; 0x53d6 <_ZN3USB4TaskEv+0xf8>
    53d4:	73 c0       	rjmp	.+230    	; 0x54bc <_ZN3USB4TaskEv+0x1de>
    53d6:	3a c0       	rjmp	.+116    	; 0x544c <_ZN3USB4TaskEv+0x16e>
    53d8:	fe 01       	movw	r30, r28
    53da:	ee 0d       	add	r30, r14
    53dc:	ff 1d       	adc	r31, r15
    53de:	ea 5a       	subi	r30, 0xAA	; 170
    53e0:	ff 4f       	sbci	r31, 0xFF	; 255
    53e2:	80 81       	ld	r24, Z
    53e4:	91 81       	ldd	r25, Z+1	; 0x01
    53e6:	00 97       	sbiw	r24, 0x00	; 0
    53e8:	39 f0       	breq	.+14     	; 0x53f8 <_ZN3USB4TaskEv+0x11a>
    53ea:	dc 01       	movw	r26, r24
    53ec:	ed 91       	ld	r30, X+
    53ee:	fc 91       	ld	r31, X
    53f0:	04 80       	ldd	r0, Z+4	; 0x04
    53f2:	f5 81       	ldd	r31, Z+5	; 0x05
    53f4:	e0 2d       	mov	r30, r0
    53f6:	09 95       	icall
    53f8:	b2 e0       	ldi	r27, 0x02	; 2
    53fa:	eb 0e       	add	r14, r27
    53fc:	f1 1c       	adc	r15, r1
    53fe:	80 e2       	ldi	r24, 0x20	; 32
    5400:	e8 16       	cp	r14, r24
    5402:	f1 04       	cpc	r15, r1
    5404:	49 f7       	brne	.-46     	; 0x53d8 <_ZN3USB4TaskEv+0xfa>
    5406:	82 e1       	ldi	r24, 0x12	; 18
    5408:	57 c0       	rjmp	.+174    	; 0x54b8 <_ZN3USB4TaskEv+0x1da>
    540a:	c0 90 ef 04 	lds	r12, 0x04EF
    540e:	d0 90 f0 04 	lds	r13, 0x04F0
    5412:	e0 90 f1 04 	lds	r14, 0x04F1
    5416:	f0 90 f2 04 	lds	r15, 0x04F2
    541a:	0e 94 a7 18 	call	0x314e	; 0x314e <millis>
    541e:	c6 16       	cp	r12, r22
    5420:	d7 06       	cpc	r13, r23
    5422:	e8 06       	cpc	r14, r24
    5424:	f9 06       	cpc	r15, r25
    5426:	08 f0       	brcs	.+2      	; 0x542a <_ZN3USB4TaskEv+0x14c>
    5428:	49 c0       	rjmp	.+146    	; 0x54bc <_ZN3USB4TaskEv+0x1de>
    542a:	61 e0       	ldi	r22, 0x01	; 1
    542c:	88 ee       	ldi	r24, 0xE8	; 232
    542e:	48 d8       	rcall	.-3952   	; 0x44c0 <_ZN8MAX3421eI4TPinI5PortbLh2EES0_IS1_Lh1EEE5regWrEhh.isra.3>
    5430:	80 e4       	ldi	r24, 0x40	; 64
    5432:	42 c0       	rjmp	.+132    	; 0x54b8 <_ZN3USB4TaskEv+0x1da>
    5434:	88 ee       	ldi	r24, 0xE8	; 232
    5436:	2d d8       	rcall	.-4006   	; 0x4492 <_ZN8MAX3421eI4TPinI5PortbLh2EES0_IS1_Lh1EEE5regRdEh.isra.2>
    5438:	80 fd       	sbrc	r24, 0
    543a:	40 c0       	rjmp	.+128    	; 0x54bc <_ZN3USB4TaskEv+0x1de>
    543c:	88 ed       	ldi	r24, 0xD8	; 216
    543e:	29 d8       	rcall	.-4014   	; 0x4492 <_ZN8MAX3421eI4TPinI5PortbLh2EES0_IS1_Lh1EEE5regRdEh.isra.2>
    5440:	68 2f       	mov	r22, r24
    5442:	68 60       	ori	r22, 0x08	; 8
    5444:	88 ed       	ldi	r24, 0xD8	; 216
    5446:	3c d8       	rcall	.-3976   	; 0x44c0 <_ZN8MAX3421eI4TPinI5PortbLh2EES0_IS1_Lh1EEE5regWrEhh.isra.3>
    5448:	80 e5       	ldi	r24, 0x50	; 80
    544a:	36 c0       	rjmp	.+108    	; 0x54b8 <_ZN3USB4TaskEv+0x1da>
    544c:	88 ec       	ldi	r24, 0xC8	; 200
    544e:	21 d8       	rcall	.-4030   	; 0x4492 <_ZN8MAX3421eI4TPinI5PortbLh2EES0_IS1_Lh1EEE5regRdEh.isra.2>
    5450:	86 ff       	sbrs	r24, 6
    5452:	34 c0       	rjmp	.+104    	; 0x54bc <_ZN3USB4TaskEv+0x1de>
    5454:	81 e5       	ldi	r24, 0x51	; 81
    5456:	80 93 f3 04 	sts	0x04F3, r24
    545a:	0e 94 a7 18 	call	0x314e	; 0x314e <millis>
    545e:	6c 5e       	subi	r22, 0xEC	; 236
    5460:	7f 4f       	sbci	r23, 0xFF	; 255
    5462:	8f 4f       	sbci	r24, 0xFF	; 255
    5464:	9f 4f       	sbci	r25, 0xFF	; 255
    5466:	60 93 ef 04 	sts	0x04EF, r22
    546a:	70 93 f0 04 	sts	0x04F0, r23
    546e:	80 93 f1 04 	sts	0x04F1, r24
    5472:	90 93 f2 04 	sts	0x04F2, r25
    5476:	22 c0       	rjmp	.+68     	; 0x54bc <_ZN3USB4TaskEv+0x1de>
    5478:	c0 90 ef 04 	lds	r12, 0x04EF
    547c:	d0 90 f0 04 	lds	r13, 0x04F0
    5480:	e0 90 f1 04 	lds	r14, 0x04F1
    5484:	f0 90 f2 04 	lds	r15, 0x04F2
    5488:	0e 94 a7 18 	call	0x314e	; 0x314e <millis>
    548c:	c6 16       	cp	r12, r22
    548e:	d7 06       	cpc	r13, r23
    5490:	e8 06       	cpc	r14, r24
    5492:	f9 06       	cpc	r15, r25
    5494:	98 f4       	brcc	.+38     	; 0x54bc <_ZN3USB4TaskEv+0x1de>
    5496:	80 e8       	ldi	r24, 0x80	; 128
    5498:	80 93 f3 04 	sts	0x04F3, r24
    549c:	21 2f       	mov	r18, r17
    549e:	40 e0       	ldi	r20, 0x00	; 0
    54a0:	60 e0       	ldi	r22, 0x00	; 0
    54a2:	ce 01       	movw	r24, r28
    54a4:	32 de       	rcall	.-924    	; 0x510a <_ZN3USB11ConfiguringEhhb>
    54a6:	88 23       	and	r24, r24
    54a8:	31 f0       	breq	.+12     	; 0x54b6 <_ZN3USB4TaskEv+0x1d8>
    54aa:	82 3d       	cpi	r24, 0xD2	; 210
    54ac:	39 f0       	breq	.+14     	; 0x54bc <_ZN3USB4TaskEv+0x1de>
    54ae:	80 93 f4 04 	sts	0x04F4, r24
    54b2:	80 ea       	ldi	r24, 0xA0	; 160
    54b4:	01 c0       	rjmp	.+2      	; 0x54b8 <_ZN3USB4TaskEv+0x1da>
    54b6:	80 e9       	ldi	r24, 0x90	; 144
    54b8:	80 93 f3 04 	sts	0x04F3, r24
    54bc:	df 91       	pop	r29
    54be:	cf 91       	pop	r28
    54c0:	1f 91       	pop	r17
    54c2:	ff 90       	pop	r15
    54c4:	ef 90       	pop	r14
    54c6:	df 90       	pop	r13
    54c8:	cf 90       	pop	r12
    54ca:	08 95       	ret

000054cc <_Z9E_Notifycci>:
    54cc:	40 91 18 01 	lds	r20, 0x0118
    54d0:	50 91 19 01 	lds	r21, 0x0119
    54d4:	46 17       	cp	r20, r22
    54d6:	57 07       	cpc	r21, r23
    54d8:	2c f0       	brlt	.+10     	; 0x54e4 <_Z9E_Notifycci+0x18>
    54da:	68 2f       	mov	r22, r24
    54dc:	8c e3       	ldi	r24, 0x3C	; 60
    54de:	94 e0       	ldi	r25, 0x04	; 4
    54e0:	0c 94 5f 17 	jmp	0x2ebe	; 0x2ebe <_ZN5Print5printEc>
    54e4:	08 95       	ret

000054e6 <_Z8E_NotifyPKci>:
    54e6:	0f 93       	push	r16
    54e8:	1f 93       	push	r17
    54ea:	cf 93       	push	r28
    54ec:	df 93       	push	r29
    54ee:	eb 01       	movw	r28, r22
    54f0:	20 91 18 01 	lds	r18, 0x0118
    54f4:	30 91 19 01 	lds	r19, 0x0119
    54f8:	26 17       	cp	r18, r22
    54fa:	37 07       	cpc	r19, r23
    54fc:	6c f0       	brlt	.+26     	; 0x5518 <_Z8E_NotifyPKci+0x32>
    54fe:	00 97       	sbiw	r24, 0x00	; 0
    5500:	59 f0       	breq	.+22     	; 0x5518 <_Z8E_NotifyPKci+0x32>
    5502:	fc 01       	movw	r30, r24
    5504:	84 91       	lpm	r24, Z
    5506:	8f 01       	movw	r16, r30
    5508:	0f 5f       	subi	r16, 0xFF	; 255
    550a:	1f 4f       	sbci	r17, 0xFF	; 255
    550c:	88 23       	and	r24, r24
    550e:	21 f0       	breq	.+8      	; 0x5518 <_Z8E_NotifyPKci+0x32>
    5510:	be 01       	movw	r22, r28
    5512:	dc df       	rcall	.-72     	; 0x54cc <_Z9E_Notifycci>
    5514:	f8 01       	movw	r30, r16
    5516:	f6 cf       	rjmp	.-20     	; 0x5504 <_Z8E_NotifyPKci+0x1e>
    5518:	df 91       	pop	r29
    551a:	cf 91       	pop	r28
    551c:	1f 91       	pop	r17
    551e:	0f 91       	pop	r16
    5520:	08 95       	ret

00005522 <__divmodhi4>:
    5522:	97 fb       	bst	r25, 7
    5524:	07 2e       	mov	r0, r23
    5526:	16 f4       	brtc	.+4      	; 0x552c <__divmodhi4+0xa>
    5528:	00 94       	com	r0
    552a:	06 d0       	rcall	.+12     	; 0x5538 <__divmodhi4_neg1>
    552c:	77 fd       	sbrc	r23, 7
    552e:	08 d0       	rcall	.+16     	; 0x5540 <__divmodhi4_neg2>
    5530:	37 d0       	rcall	.+110    	; 0x55a0 <__udivmodhi4>
    5532:	07 fc       	sbrc	r0, 7
    5534:	05 d0       	rcall	.+10     	; 0x5540 <__divmodhi4_neg2>
    5536:	3e f4       	brtc	.+14     	; 0x5546 <__divmodhi4_exit>

00005538 <__divmodhi4_neg1>:
    5538:	90 95       	com	r25
    553a:	81 95       	neg	r24
    553c:	9f 4f       	sbci	r25, 0xFF	; 255
    553e:	08 95       	ret

00005540 <__divmodhi4_neg2>:
    5540:	70 95       	com	r23
    5542:	61 95       	neg	r22
    5544:	7f 4f       	sbci	r23, 0xFF	; 255

00005546 <__divmodhi4_exit>:
    5546:	08 95       	ret

00005548 <__udivmodsi4>:
    5548:	a1 e2       	ldi	r26, 0x21	; 33
    554a:	1a 2e       	mov	r1, r26
    554c:	aa 1b       	sub	r26, r26
    554e:	bb 1b       	sub	r27, r27
    5550:	fd 01       	movw	r30, r26
    5552:	0d c0       	rjmp	.+26     	; 0x556e <__udivmodsi4_ep>

00005554 <__udivmodsi4_loop>:
    5554:	aa 1f       	adc	r26, r26
    5556:	bb 1f       	adc	r27, r27
    5558:	ee 1f       	adc	r30, r30
    555a:	ff 1f       	adc	r31, r31
    555c:	a2 17       	cp	r26, r18
    555e:	b3 07       	cpc	r27, r19
    5560:	e4 07       	cpc	r30, r20
    5562:	f5 07       	cpc	r31, r21
    5564:	20 f0       	brcs	.+8      	; 0x556e <__udivmodsi4_ep>
    5566:	a2 1b       	sub	r26, r18
    5568:	b3 0b       	sbc	r27, r19
    556a:	e4 0b       	sbc	r30, r20
    556c:	f5 0b       	sbc	r31, r21

0000556e <__udivmodsi4_ep>:
    556e:	66 1f       	adc	r22, r22
    5570:	77 1f       	adc	r23, r23
    5572:	88 1f       	adc	r24, r24
    5574:	99 1f       	adc	r25, r25
    5576:	1a 94       	dec	r1
    5578:	69 f7       	brne	.-38     	; 0x5554 <__udivmodsi4_loop>
    557a:	60 95       	com	r22
    557c:	70 95       	com	r23
    557e:	80 95       	com	r24
    5580:	90 95       	com	r25
    5582:	9b 01       	movw	r18, r22
    5584:	ac 01       	movw	r20, r24
    5586:	bd 01       	movw	r22, r26
    5588:	cf 01       	movw	r24, r30
    558a:	08 95       	ret

0000558c <__muluhisi3>:
    558c:	23 d0       	rcall	.+70     	; 0x55d4 <__umulhisi3>
    558e:	a5 9f       	mul	r26, r21
    5590:	90 0d       	add	r25, r0
    5592:	b4 9f       	mul	r27, r20
    5594:	90 0d       	add	r25, r0
    5596:	a4 9f       	mul	r26, r20
    5598:	80 0d       	add	r24, r0
    559a:	91 1d       	adc	r25, r1
    559c:	11 24       	eor	r1, r1
    559e:	08 95       	ret

000055a0 <__udivmodhi4>:
    55a0:	aa 1b       	sub	r26, r26
    55a2:	bb 1b       	sub	r27, r27
    55a4:	51 e1       	ldi	r21, 0x11	; 17
    55a6:	07 c0       	rjmp	.+14     	; 0x55b6 <__udivmodhi4_ep>

000055a8 <__udivmodhi4_loop>:
    55a8:	aa 1f       	adc	r26, r26
    55aa:	bb 1f       	adc	r27, r27
    55ac:	a6 17       	cp	r26, r22
    55ae:	b7 07       	cpc	r27, r23
    55b0:	10 f0       	brcs	.+4      	; 0x55b6 <__udivmodhi4_ep>
    55b2:	a6 1b       	sub	r26, r22
    55b4:	b7 0b       	sbc	r27, r23

000055b6 <__udivmodhi4_ep>:
    55b6:	88 1f       	adc	r24, r24
    55b8:	99 1f       	adc	r25, r25
    55ba:	5a 95       	dec	r21
    55bc:	a9 f7       	brne	.-22     	; 0x55a8 <__udivmodhi4_loop>
    55be:	80 95       	com	r24
    55c0:	90 95       	com	r25
    55c2:	bc 01       	movw	r22, r24
    55c4:	cd 01       	movw	r24, r26
    55c6:	08 95       	ret

000055c8 <__tablejump2__>:
    55c8:	ee 0f       	add	r30, r30
    55ca:	ff 1f       	adc	r31, r31

000055cc <__tablejump__>:
    55cc:	05 90       	lpm	r0, Z+
    55ce:	f4 91       	lpm	r31, Z
    55d0:	e0 2d       	mov	r30, r0
    55d2:	09 94       	ijmp

000055d4 <__umulhisi3>:
    55d4:	a2 9f       	mul	r26, r18
    55d6:	b0 01       	movw	r22, r0
    55d8:	b3 9f       	mul	r27, r19
    55da:	c0 01       	movw	r24, r0
    55dc:	a3 9f       	mul	r26, r19
    55de:	70 0d       	add	r23, r0
    55e0:	81 1d       	adc	r24, r1
    55e2:	11 24       	eor	r1, r1
    55e4:	91 1d       	adc	r25, r1
    55e6:	b2 9f       	mul	r27, r18
    55e8:	70 0d       	add	r23, r0
    55ea:	81 1d       	adc	r24, r1
    55ec:	11 24       	eor	r1, r1
    55ee:	91 1d       	adc	r25, r1
    55f0:	08 95       	ret

000055f2 <memcpy>:
    55f2:	fb 01       	movw	r30, r22
    55f4:	dc 01       	movw	r26, r24
    55f6:	02 c0       	rjmp	.+4      	; 0x55fc <memcpy+0xa>
    55f8:	01 90       	ld	r0, Z+
    55fa:	0d 92       	st	X+, r0
    55fc:	41 50       	subi	r20, 0x01	; 1
    55fe:	50 40       	sbci	r21, 0x00	; 0
    5600:	d8 f7       	brcc	.-10     	; 0x55f8 <memcpy+0x6>
    5602:	08 95       	ret

00005604 <__eerd_byte_m328p>:
    5604:	f9 99       	sbic	0x1f, 1	; 31
    5606:	fe cf       	rjmp	.-4      	; 0x5604 <__eerd_byte_m328p>
    5608:	92 bd       	out	0x22, r25	; 34
    560a:	81 bd       	out	0x21, r24	; 33
    560c:	f8 9a       	sbi	0x1f, 0	; 31
    560e:	99 27       	eor	r25, r25
    5610:	80 b5       	in	r24, 0x20	; 32
    5612:	08 95       	ret

00005614 <__eerd_word_m328p>:
    5614:	a8 e1       	ldi	r26, 0x18	; 24
    5616:	b0 e0       	ldi	r27, 0x00	; 0
    5618:	42 e0       	ldi	r20, 0x02	; 2
    561a:	50 e0       	ldi	r21, 0x00	; 0
    561c:	13 c0       	rjmp	.+38     	; 0x5644 <__eerd_blraw_m328p>

0000561e <__eewr_byte_m328p>:
    561e:	26 2f       	mov	r18, r22

00005620 <__eewr_r18_m328p>:
    5620:	f9 99       	sbic	0x1f, 1	; 31
    5622:	fe cf       	rjmp	.-4      	; 0x5620 <__eewr_r18_m328p>
    5624:	1f ba       	out	0x1f, r1	; 31
    5626:	92 bd       	out	0x22, r25	; 34
    5628:	81 bd       	out	0x21, r24	; 33
    562a:	20 bd       	out	0x20, r18	; 32
    562c:	0f b6       	in	r0, 0x3f	; 63
    562e:	f8 94       	cli
    5630:	fa 9a       	sbi	0x1f, 2	; 31
    5632:	f9 9a       	sbi	0x1f, 1	; 31
    5634:	0f be       	out	0x3f, r0	; 63
    5636:	01 96       	adiw	r24, 0x01	; 1
    5638:	08 95       	ret

0000563a <__eewr_word_m328p>:
    563a:	f1 df       	rcall	.-30     	; 0x561e <__eewr_byte_m328p>
    563c:	27 2f       	mov	r18, r23
    563e:	f0 cf       	rjmp	.-32     	; 0x5620 <__eewr_r18_m328p>

00005640 <__eerd_block_m328p>:
    5640:	dc 01       	movw	r26, r24
    5642:	cb 01       	movw	r24, r22

00005644 <__eerd_blraw_m328p>:
    5644:	fc 01       	movw	r30, r24
    5646:	f9 99       	sbic	0x1f, 1	; 31
    5648:	fe cf       	rjmp	.-4      	; 0x5646 <__eerd_blraw_m328p+0x2>
    564a:	06 c0       	rjmp	.+12     	; 0x5658 <__eerd_blraw_m328p+0x14>
    564c:	f2 bd       	out	0x22, r31	; 34
    564e:	e1 bd       	out	0x21, r30	; 33
    5650:	f8 9a       	sbi	0x1f, 0	; 31
    5652:	31 96       	adiw	r30, 0x01	; 1
    5654:	00 b4       	in	r0, 0x20	; 32
    5656:	0d 92       	st	X+, r0
    5658:	41 50       	subi	r20, 0x01	; 1
    565a:	50 40       	sbci	r21, 0x00	; 0
    565c:	b8 f7       	brcc	.-18     	; 0x564c <__eerd_blraw_m328p+0x8>
    565e:	08 95       	ret

00005660 <__do_global_dtors>:
    5660:	11 e0       	ldi	r17, 0x01	; 1
    5662:	ce ec       	ldi	r28, 0xCE	; 206
    5664:	d1 e0       	ldi	r29, 0x01	; 1
    5666:	03 c0       	rjmp	.+6      	; 0x566e <__do_global_dtors+0xe>
    5668:	fe 01       	movw	r30, r28
    566a:	b0 df       	rcall	.-160    	; 0x55cc <__tablejump__>
    566c:	22 96       	adiw	r28, 0x02	; 2
    566e:	c0 3d       	cpi	r28, 0xD0	; 208
    5670:	d1 07       	cpc	r29, r17
    5672:	d1 f7       	brne	.-12     	; 0x5668 <__do_global_dtors+0x8>
    5674:	f8 94       	cli

00005676 <__stop_program>:
    5676:	ff cf       	rjmp	.-2      	; 0x5676 <__stop_program>
